(dp1
S'email'
p2
(dp3
S'type'
p4
S'string'
p5
sS'sortable'
p6
I5
sS'sql'
p7
S'CHAR(512)'
p8
ssS'room_no'
p9
(dp10
g4
S'integer'
p11
sg6
I4
sg7
S'INTEGER'
p12
ssS'id'
p13
(dp14
g4
S'id'
p15
sg6
I1
sg7
S'INTEGER PRIMARY KEY AUTOINCREMENT'
p16
ssS'hostel_name'
p17
(dp18
g4
g5
sg6
I3
sg7
S'CHAR(512)'
p19
ssS'name'
p20
(dp21
g4
g5
sg6
I2
sg7
S'CHAR(512)'
p22
ss.