(dp1
S'output'
p2
S"<type 'exceptions.RuntimeError'> Cannot compare courierDetails.Date_received >= None"
p3
sS'layer'
p4
S'/home/game_boy/web2py/applications/IIITCourier/controllers/default.py'
p5
sS'code'
p6
S'# -*- coding: utf-8 -*-\n# this file is released under public domain and you can use without limitations\n\n#########################################################################\n## This is a samples controller\n## - index is the default action of any application\n## - user is required for authentication and authorization\n## - download is for downloading files uploaded in the db (does streaming)\n## - call exposes all registered services (none by default)\n#########################################################################\nfrom gluon.tools import Crud\ncrud = Crud(db)\n\ndef index():\n    redirect(URL(\'login\'))\n\n@auth.requires_login()    \ndef login():\n    if auth.has_membership(group_id=\'security\'):\n        redirect(URL(\'securityHome\'))\n    else:\n        redirect(URL(\'studentHome\'))\n        \n@auth.requires_membership(\'security\')\ndef securityHome():\n    form1 = SQLFORM.factory(Field(\'Student_Name\', \'string\'),\n                            Field(\'Contact_No\', \'integer\'),\n                            Field(\'From\',\'datetime\'),\n                            Field(\'To\',\'datetime\'),\n                            Field(\'Received\', requires=IS_IN_SET([\'YES\', \'NO\']),default=\'NO\')).process()\n    form = crud.create(db.courierDetails).process()    #SQLFORM(db.courierDetails).process()\n    if form1.accepted:\n         redirect(URL(\'searchPage\', \n             vars={\'name\':form1.vars.Student_Name, \n             \'contact\':form1.vars.Contact_No, \n             \'from\':form1.vars.From, \n             \'to\':form1.vars.To, \n             \'received\':form1.vars.Received}))\n    return locals()\n\ndef searchPage():\n    name = request.vars[\'name\']\n    contact = request.vars[\'contact\']\n    From = request.vars[\'from\']\n    To = request.vars[\'to\']\n    received = request.vars[\'received\']\n    queries = []\n    if name != \'\':\n        queries.append(db.courierDetails.Name == name)\n    if contact != None and contact != \'None\':\n        queries.append(db.courierDetails.Contact_No == int(contact))\n    if From != \'None\':\n        queries.append(db.courierDetails.Date_received >=From)\n    if To != \'None\':\n        queries.append(db.courierDetails.Date_received <= To)\n    if received != \'None\':\n        queries.append(db.courierDetails.Received == received)\n    query = reduce(lambda a,b:(a&b),queries)    \n       \n    rows=SQLFORM.grid(query = query,searchable=False,details=False,deletable=False,create=False);\n    return {\'rows\':rows}\n    \n@auth.requires_membership(\'student\')\ndef studentHome():\n    query = (db.courierDetails.Email == auth.user.email) & (db.courierDetails.Received == \'NO\')\n    rows=SQLFORM.grid(query = query);\n    return {\'rows\':rows}\n\ndef getEmailFromHostelDB():\n    import cgi\n    s = cgi.escape(str(request.vars))\n    query = (db.studentHostelDetails.Hostel_Name == request.vars[\'Hostel_Name\']) & (db.studentHostelDetails.Name == request.vars[\'Name\']) & (db.studentHostelDetails.Room_No == request.vars[\'Room_No\'])\n    rows = db(query).select()\n    emailId = \'\'\n    for row in rows:\n        emailId = row.Email\n    t = \'mohit\'\n    return "jQuery(\'#courierDetails_Email\').val(%s);" % repr(str(emailId))\n\ndef user():\n    """\n    exposes:\n    http://..../[app]/default/user/login\n    http://..../[app]/default/user/logout\n    http://..../[app]/default/user/register\n    http://..../[app]/default/user/profile\n    http://..../[app]/default/user/retrieve_password\n    http://..../[app]/default/user/change_password\n    use @auth.requires_login()\n        @auth.requires_membership(\'group name\')\n        @auth.requires_permission(\'read\',\'table name\',record_id)\n    to decorate functions that need access control\n    """\n    return dict(form=auth())\n\n\ndef download():\n    """\n    allows downloading of uploaded files\n    http://..../[app]/default/download/[filename]\n    """\n    return response.download(request,db)\n\n\ndef call():\n    """\n    exposes services. for example:\n    http://..../[app]/default/call/jsonrpc\n    decorate with @services.jsonrpc the functions to expose\n    supports xml, json, xmlrpc, jsonrpc, amfrpc, rss, csv\n    """\n    return service()\n\n\n@auth.requires_signature()\ndef data():\n    """\n    http://..../[app]/default/data/tables\n    http://..../[app]/default/data/create/[table]\n    http://..../[app]/default/data/read/[table]/[id]\n    http://..../[app]/default/data/update/[table]/[id]\n    http://..../[app]/default/data/delete/[table]/[id]\n    http://..../[app]/default/data/select/[table]\n    http://..../[app]/default/data/search/[table]\n    but URLs must be signed, i.e. linked with\n      A(\'table\',_href=URL(\'data/tables\',user_signature=True))\n    or with the signed load operator\n      LOAD(\'default\',\'data.load\',args=\'tables\',ajax=True,user_signature=True)\n    """\n    return dict(form=crud())\n\nresponse._vars=response._caller(searchPage)\n'
p7
sS'snapshot'
p8
(dp9
S'exception'
p10
(dp11
S'__hash__'
p12
S"<method-wrapper '__hash__' of exceptions.RuntimeError object>"
p13
sS'__setattr__'
p14
S"<method-wrapper '__setattr__' of exceptions.RuntimeError object>"
p15
sS'__reduce_ex__'
p16
S'<built-in method __reduce_ex__ of exceptions.RuntimeError object>'
p17
sS'__getslice__'
p18
S"<method-wrapper '__getslice__' of exceptions.RuntimeError object>"
p19
sS'__getitem__'
p20
S"<method-wrapper '__getitem__' of exceptions.RuntimeError object>"
p21
sS'__setstate__'
p22
S'<built-in method __setstate__ of exceptions.RuntimeError object>'
p23
sS'args'
p24
S"('Cannot compare courierDetails.Date_received >= None',)"
p25
sS'__reduce__'
p26
S'<built-in method __reduce__ of exceptions.RuntimeError object>'
p27
sS'__str__'
p28
S"<method-wrapper '__str__' of exceptions.RuntimeError object>"
p29
sS'__format__'
p30
S'<built-in method __format__ of exceptions.RuntimeError object>'
p31
sS'__getattribute__'
p32
S"<method-wrapper '__getattribute__' of exceptions.RuntimeError object>"
p33
sS'__class__'
p34
S"<type 'exceptions.RuntimeError'>"
p35
sS'__unicode__'
p36
S'<built-in method __unicode__ of exceptions.RuntimeError object>'
p37
sS'__delattr__'
p38
S"<method-wrapper '__delattr__' of exceptions.RuntimeError object>"
p39
sS'__subclasshook__'
p40
S'<built-in method __subclasshook__ of type object>'
p41
sS'__repr__'
p42
S"<method-wrapper '__repr__' of exceptions.RuntimeError object>"
p43
sS'__dict__'
p44
S'{}'
p45
sS'__sizeof__'
p46
S'<built-in method __sizeof__ of exceptions.RuntimeError object>'
p47
sS'__doc__'
p48
S"'Unspecified run-time error.'"
p49
sS'__init__'
p50
S"<method-wrapper '__init__' of exceptions.RuntimeError object>"
p51
sS'__new__'
p52
S'<built-in method __new__ of type object>'
p53
ssS'evalue'
p54
S'Cannot compare courierDetails.Date_received >= None'
p55
sS'request'
p56
ccopy_reg
_reconstructor
p57
(cgluon.html
BEAUTIFY
p58
c__builtin__
object
p59
NtRp60
(dp61
S'attributes'
p62
(dp63
sS'components'
p64
(lp65
g57
(cgluon.html
TABLE
p66
g59
NtRp67
(dp68
g62
(dp69
S'level'
p70
I5
ssS'parent'
p71
Nsg64
(lp72
g57
(cgluon.html
TR
p73
g59
NtRp74
(dp75
g62
(dp76
sg71
g67
sg64
(lp77
g57
(cgluon.html
TD
p78
g59
NtRp79
(dp80
g62
(dp81
S'_style'
p82
S'font-weight:bold;vertical-align:top'
p83
ssg71
g74
sg64
(lp84
S'ajax'
p85
asbag57
(g78
g59
NtRp86
(dp87
g62
(dp88
S'_valign'
p89
S'top'
p90
ssg71
g74
sg64
(lp91
S':'
asbag57
(g78
g59
NtRp92
(dp93
g62
(dp94
sg71
g74
sg64
(lp95
g57
(g58
g59
NtRp96
(dp97
g62
(dp98
g70
I5
ssg71
g92
sg64
(lp99
S'False'
p100
asbasbasbag57
(g73
g59
NtRp101
(dp102
g62
(dp103
sg71
g67
sg64
(lp104
g57
(g78
g59
NtRp105
(dp106
g62
(dp107
g82
g83
ssg71
g101
sg64
(lp108
S'application'
p109
asbag57
(g78
g59
NtRp110
(dp111
g62
(dp112
g89
g90
ssg71
g101
sg64
(lp113
S':'
asbag57
(g78
g59
NtRp114
(dp115
g62
(dp116
sg71
g101
sg64
(lp117
g57
(g58
g59
NtRp118
(dp119
g62
(dp120
g70
I5
ssg71
g114
sg64
(lp121
S'IIITCourier'
p122
asbasbasbag57
(g73
g59
NtRp123
(dp124
g62
(dp125
sg71
g67
sg64
(lp126
g57
(g78
g59
NtRp127
(dp128
g62
(dp129
g82
g83
ssg71
g123
sg64
(lp130
g24
asbag57
(g78
g59
NtRp131
(dp132
g62
(dp133
g89
g90
ssg71
g123
sg64
(lp134
S':'
asbag57
(g78
g59
NtRp135
(dp136
g62
(dp137
sg71
g123
sg64
(lp138
g57
(g58
g59
NtRp139
(dp140
g62
(dp141
g70
I5
ssg71
g135
sg64
(lp142
g57
(g66
g59
NtRp143
(dp144
g62
(dp145
g70
I4
ssg71
Nsg64
(lp146
g57
(g73
g59
NtRp147
(dp148
g62
(dp149
sg71
g143
sg64
(lp150
g57
(g78
g59
NtRp151
(dp152
g62
(dp153
sg71
g147
sg64
(lp154
g57
(g58
g59
NtRp155
(dp156
g62
(dp157
g70
I4
ssg71
g151
sg64
(lp158
S'csv'
p159
asbasbasbasbasbasbasbag57
(g73
g59
NtRp160
(dp161
g62
(dp162
sg71
g67
sg64
(lp163
g57
(g78
g59
NtRp164
(dp165
g62
(dp166
g82
g83
ssg71
g160
sg64
(lp167
S'body'
p168
asbag57
(g78
g59
NtRp169
(dp170
g62
(dp171
g89
g90
ssg71
g160
sg64
(lp172
S':'
asbag57
(g78
g59
NtRp173
(dp174
g62
(dp175
sg71
g160
sg64
(lp176
g57
(g58
g59
NtRp177
(dp178
g62
(dp179
g70
I5
ssg71
g173
sg64
(lp180
S'<cStringIO.StringO object at 0x7fa6cc2a21f0>'
p181
asbasbasbag57
(g73
g59
NtRp182
(dp183
g62
(dp184
sg71
g67
sg64
(lp185
g57
(g78
g59
NtRp186
(dp187
g62
(dp188
g82
g83
ssg71
g182
sg64
(lp189
S'client'
p190
asbag57
(g78
g59
NtRp191
(dp192
g62
(dp193
g89
g90
ssg71
g182
sg64
(lp194
S':'
asbag57
(g78
g59
NtRp195
(dp196
g62
(dp197
sg71
g182
sg64
(lp198
g57
(g58
g59
NtRp199
(dp200
g62
(dp201
g70
I5
ssg71
g195
sg64
(lp202
S'127.0.0.1'
p203
asbasbasbag57
(g73
g59
NtRp204
(dp205
g62
(dp206
sg71
g67
sg64
(lp207
g57
(g78
g59
NtRp208
(dp209
g62
(dp210
g82
g83
ssg71
g204
sg64
(lp211
S'controller'
p212
asbag57
(g78
g59
NtRp213
(dp214
g62
(dp215
g89
g90
ssg71
g204
sg64
(lp216
S':'
asbag57
(g78
g59
NtRp217
(dp218
g62
(dp219
sg71
g204
sg64
(lp220
g57
(g58
g59
NtRp221
(dp222
g62
(dp223
g70
I5
ssg71
g217
sg64
(lp224
S'default'
p225
asbasbasbag57
(g73
g59
NtRp226
(dp227
g62
(dp228
sg71
g67
sg64
(lp229
g57
(g78
g59
NtRp230
(dp231
g62
(dp232
g82
g83
ssg71
g226
sg64
(lp233
S'cookies'
p234
asbag57
(g78
g59
NtRp235
(dp236
g62
(dp237
g89
g90
ssg71
g226
sg64
(lp238
S':'
asbag57
(g78
g59
NtRp239
(dp240
g62
(dp241
sg71
g226
sg64
(lp242
g57
(g58
g59
NtRp243
(dp244
g62
(dp245
g70
I5
ssg71
g239
sg64
(lp246
g57
(g66
g59
NtRp247
(dp248
g62
(dp249
g70
I4
ssg71
Nsg64
(lp250
g57
(g73
g59
NtRp251
(dp252
g62
(dp253
sg71
g247
sg64
(lp254
g57
(g78
g59
NtRp255
(dp256
g62
(dp257
g82
g83
ssg71
g251
sg64
(lp258
S'session_id_admin'
p259
asbag57
(g78
g59
NtRp260
(dp261
g62
(dp262
g89
g90
ssg71
g251
sg64
(lp263
S':'
asbag57
(g78
g59
NtRp264
(dp265
g62
(dp266
sg71
g251
sg64
(lp267
g57
(g58
g59
NtRp268
(dp269
g62
(dp270
g70
I4
ssg71
g264
sg64
(lp271
g57
(g66
g59
NtRp272
(dp273
g62
(dp274
g70
I3
ssg71
Nsg64
(lp275
g57
(g73
g59
NtRp276
(dp277
g62
(dp278
sg71
g272
sg64
(lp279
g57
(g78
g59
NtRp280
(dp281
g62
(dp282
g82
g83
ssg71
g276
sg64
(lp283
S'comment'
p284
asbag57
(g78
g59
NtRp285
(dp286
g62
(dp287
g89
g90
ssg71
g276
sg64
(lp288
S':'
asbag57
(g78
g59
NtRp289
(dp290
g62
(dp291
sg71
g276
sg64
(lp292
g57
(g58
g59
NtRp293
(dp294
g62
(dp295
g70
I3
ssg71
g289
sg64
(lp296
S''
asbasbasbag57
(g73
g59
NtRp297
(dp298
g62
(dp299
sg71
g272
sg64
(lp300
g57
(g78
g59
NtRp301
(dp302
g62
(dp303
g82
g83
ssg71
g297
sg64
(lp304
S'domain'
p305
asbag57
(g78
g59
NtRp306
(dp307
g62
(dp308
g89
g90
ssg71
g297
sg64
(lp309
S':'
asbag57
(g78
g59
NtRp310
(dp311
g62
(dp312
sg71
g297
sg64
(lp313
g57
(g58
g59
NtRp314
(dp315
g62
(dp316
g70
I3
ssg71
g310
sg64
(lp317
S''
asbasbasbag57
(g73
g59
NtRp318
(dp319
g62
(dp320
sg71
g272
sg64
(lp321
g57
(g78
g59
NtRp322
(dp323
g62
(dp324
g82
g83
ssg71
g318
sg64
(lp325
S'expires'
p326
asbag57
(g78
g59
NtRp327
(dp328
g62
(dp329
g89
g90
ssg71
g318
sg64
(lp330
S':'
asbag57
(g78
g59
NtRp331
(dp332
g62
(dp333
sg71
g318
sg64
(lp334
g57
(g58
g59
NtRp335
(dp336
g62
(dp337
g70
I3
ssg71
g331
sg64
(lp338
S''
asbasbasbag57
(g73
g59
NtRp339
(dp340
g62
(dp341
sg71
g272
sg64
(lp342
g57
(g78
g59
NtRp343
(dp344
g62
(dp345
g82
g83
ssg71
g339
sg64
(lp346
S'httponly'
p347
asbag57
(g78
g59
NtRp348
(dp349
g62
(dp350
g89
g90
ssg71
g339
sg64
(lp351
S':'
asbag57
(g78
g59
NtRp352
(dp353
g62
(dp354
sg71
g339
sg64
(lp355
g57
(g58
g59
NtRp356
(dp357
g62
(dp358
g70
I3
ssg71
g352
sg64
(lp359
S''
asbasbasbag57
(g73
g59
NtRp360
(dp361
g62
(dp362
sg71
g272
sg64
(lp363
g57
(g78
g59
NtRp364
(dp365
g62
(dp366
g82
g83
ssg71
g360
sg64
(lp367
S'max-age'
p368
asbag57
(g78
g59
NtRp369
(dp370
g62
(dp371
g89
g90
ssg71
g360
sg64
(lp372
S':'
asbag57
(g78
g59
NtRp373
(dp374
g62
(dp375
sg71
g360
sg64
(lp376
g57
(g58
g59
NtRp377
(dp378
g62
(dp379
g70
I3
ssg71
g373
sg64
(lp380
S''
asbasbasbag57
(g73
g59
NtRp381
(dp382
g62
(dp383
sg71
g272
sg64
(lp384
g57
(g78
g59
NtRp385
(dp386
g62
(dp387
g82
g83
ssg71
g381
sg64
(lp388
S'path'
p389
asbag57
(g78
g59
NtRp390
(dp391
g62
(dp392
g89
g90
ssg71
g381
sg64
(lp393
S':'
asbag57
(g78
g59
NtRp394
(dp395
g62
(dp396
sg71
g381
sg64
(lp397
g57
(g58
g59
NtRp398
(dp399
g62
(dp400
g70
I3
ssg71
g394
sg64
(lp401
S''
asbasbasbag57
(g73
g59
NtRp402
(dp403
g62
(dp404
sg71
g272
sg64
(lp405
g57
(g78
g59
NtRp406
(dp407
g62
(dp408
g82
g83
ssg71
g402
sg64
(lp409
S'secure'
p410
asbag57
(g78
g59
NtRp411
(dp412
g62
(dp413
g89
g90
ssg71
g402
sg64
(lp414
S':'
asbag57
(g78
g59
NtRp415
(dp416
g62
(dp417
sg71
g402
sg64
(lp418
g57
(g58
g59
NtRp419
(dp420
g62
(dp421
g70
I3
ssg71
g415
sg64
(lp422
S''
asbasbasbag57
(g73
g59
NtRp423
(dp424
g62
(dp425
sg71
g272
sg64
(lp426
g57
(g78
g59
NtRp427
(dp428
g62
(dp429
g82
g83
ssg71
g423
sg64
(lp430
S'version'
p431
asbag57
(g78
g59
NtRp432
(dp433
g62
(dp434
g89
g90
ssg71
g423
sg64
(lp435
S':'
asbag57
(g78
g59
NtRp436
(dp437
g62
(dp438
sg71
g423
sg64
(lp439
g57
(g58
g59
NtRp440
(dp441
g62
(dp442
g70
I3
ssg71
g436
sg64
(lp443
S''
asbasbasbasbasbasbasbag57
(g73
g59
NtRp444
(dp445
g62
(dp446
sg71
g247
sg64
(lp447
g57
(g78
g59
NtRp448
(dp449
g62
(dp450
g82
g83
ssg71
g444
sg64
(lp451
S'session_id_iiitcourier'
p452
asbag57
(g78
g59
NtRp453
(dp454
g62
(dp455
g89
g90
ssg71
g444
sg64
(lp456
S':'
asbag57
(g78
g59
NtRp457
(dp458
g62
(dp459
sg71
g444
sg64
(lp460
g57
(g58
g59
NtRp461
(dp462
g62
(dp463
g70
I4
ssg71
g457
sg64
(lp464
g57
(g66
g59
NtRp465
(dp466
g62
(dp467
g70
I3
ssg71
Nsg64
(lp468
g57
(g73
g59
NtRp469
(dp470
g62
(dp471
sg71
g465
sg64
(lp472
g57
(g78
g59
NtRp473
(dp474
g62
(dp475
g82
g83
ssg71
g469
sg64
(lp476
g284
asbag57
(g78
g59
NtRp477
(dp478
g62
(dp479
g89
g90
ssg71
g469
sg64
(lp480
S':'
asbag57
(g78
g59
NtRp481
(dp482
g62
(dp483
sg71
g469
sg64
(lp484
g57
(g58
g59
NtRp485
(dp486
g62
(dp487
g70
I3
ssg71
g481
sg64
(lp488
S''
asbasbasbag57
(g73
g59
NtRp489
(dp490
g62
(dp491
sg71
g465
sg64
(lp492
g57
(g78
g59
NtRp493
(dp494
g62
(dp495
g82
g83
ssg71
g489
sg64
(lp496
g305
asbag57
(g78
g59
NtRp497
(dp498
g62
(dp499
g89
g90
ssg71
g489
sg64
(lp500
S':'
asbag57
(g78
g59
NtRp501
(dp502
g62
(dp503
sg71
g489
sg64
(lp504
g57
(g58
g59
NtRp505
(dp506
g62
(dp507
g70
I3
ssg71
g501
sg64
(lp508
S''
asbasbasbag57
(g73
g59
NtRp509
(dp510
g62
(dp511
sg71
g465
sg64
(lp512
g57
(g78
g59
NtRp513
(dp514
g62
(dp515
g82
g83
ssg71
g509
sg64
(lp516
g326
asbag57
(g78
g59
NtRp517
(dp518
g62
(dp519
g89
g90
ssg71
g509
sg64
(lp520
S':'
asbag57
(g78
g59
NtRp521
(dp522
g62
(dp523
sg71
g509
sg64
(lp524
g57
(g58
g59
NtRp525
(dp526
g62
(dp527
g70
I3
ssg71
g521
sg64
(lp528
S''
asbasbasbag57
(g73
g59
NtRp529
(dp530
g62
(dp531
sg71
g465
sg64
(lp532
g57
(g78
g59
NtRp533
(dp534
g62
(dp535
g82
g83
ssg71
g529
sg64
(lp536
g347
asbag57
(g78
g59
NtRp537
(dp538
g62
(dp539
g89
g90
ssg71
g529
sg64
(lp540
S':'
asbag57
(g78
g59
NtRp541
(dp542
g62
(dp543
sg71
g529
sg64
(lp544
g57
(g58
g59
NtRp545
(dp546
g62
(dp547
g70
I3
ssg71
g541
sg64
(lp548
S''
asbasbasbag57
(g73
g59
NtRp549
(dp550
g62
(dp551
sg71
g465
sg64
(lp552
g57
(g78
g59
NtRp553
(dp554
g62
(dp555
g82
g83
ssg71
g549
sg64
(lp556
g368
asbag57
(g78
g59
NtRp557
(dp558
g62
(dp559
g89
g90
ssg71
g549
sg64
(lp560
S':'
asbag57
(g78
g59
NtRp561
(dp562
g62
(dp563
sg71
g549
sg64
(lp564
g57
(g58
g59
NtRp565
(dp566
g62
(dp567
g70
I3
ssg71
g561
sg64
(lp568
S''
asbasbasbag57
(g73
g59
NtRp569
(dp570
g62
(dp571
sg71
g465
sg64
(lp572
g57
(g78
g59
NtRp573
(dp574
g62
(dp575
g82
g83
ssg71
g569
sg64
(lp576
g389
asbag57
(g78
g59
NtRp577
(dp578
g62
(dp579
g89
g90
ssg71
g569
sg64
(lp580
S':'
asbag57
(g78
g59
NtRp581
(dp582
g62
(dp583
sg71
g569
sg64
(lp584
g57
(g58
g59
NtRp585
(dp586
g62
(dp587
g70
I3
ssg71
g581
sg64
(lp588
S''
asbasbasbag57
(g73
g59
NtRp589
(dp590
g62
(dp591
sg71
g465
sg64
(lp592
g57
(g78
g59
NtRp593
(dp594
g62
(dp595
g82
g83
ssg71
g589
sg64
(lp596
g410
asbag57
(g78
g59
NtRp597
(dp598
g62
(dp599
g89
g90
ssg71
g589
sg64
(lp600
S':'
asbag57
(g78
g59
NtRp601
(dp602
g62
(dp603
sg71
g589
sg64
(lp604
g57
(g58
g59
NtRp605
(dp606
g62
(dp607
g70
I3
ssg71
g601
sg64
(lp608
S''
asbasbasbag57
(g73
g59
NtRp609
(dp610
g62
(dp611
sg71
g465
sg64
(lp612
g57
(g78
g59
NtRp613
(dp614
g62
(dp615
g82
g83
ssg71
g609
sg64
(lp616
g431
asbag57
(g78
g59
NtRp617
(dp618
g62
(dp619
g89
g90
ssg71
g609
sg64
(lp620
S':'
asbag57
(g78
g59
NtRp621
(dp622
g62
(dp623
sg71
g609
sg64
(lp624
g57
(g58
g59
NtRp625
(dp626
g62
(dp627
g70
I3
ssg71
g621
sg64
(lp628
S''
asbasbasbasbasbasbasbag57
(g73
g59
NtRp629
(dp630
g62
(dp631
sg71
g247
sg64
(lp632
g57
(g78
g59
NtRp633
(dp634
g62
(dp635
g82
g83
ssg71
g629
sg64
(lp636
S'session_id_welcome'
p637
asbag57
(g78
g59
NtRp638
(dp639
g62
(dp640
g89
g90
ssg71
g629
sg64
(lp641
S':'
asbag57
(g78
g59
NtRp642
(dp643
g62
(dp644
sg71
g629
sg64
(lp645
g57
(g58
g59
NtRp646
(dp647
g62
(dp648
g70
I4
ssg71
g642
sg64
(lp649
g57
(g66
g59
NtRp650
(dp651
g62
(dp652
g70
I3
ssg71
Nsg64
(lp653
g57
(g73
g59
NtRp654
(dp655
g62
(dp656
sg71
g650
sg64
(lp657
g57
(g78
g59
NtRp658
(dp659
g62
(dp660
g82
g83
ssg71
g654
sg64
(lp661
g284
asbag57
(g78
g59
NtRp662
(dp663
g62
(dp664
g89
g90
ssg71
g654
sg64
(lp665
S':'
asbag57
(g78
g59
NtRp666
(dp667
g62
(dp668
sg71
g654
sg64
(lp669
g57
(g58
g59
NtRp670
(dp671
g62
(dp672
g70
I3
ssg71
g666
sg64
(lp673
S''
asbasbasbag57
(g73
g59
NtRp674
(dp675
g62
(dp676
sg71
g650
sg64
(lp677
g57
(g78
g59
NtRp678
(dp679
g62
(dp680
g82
g83
ssg71
g674
sg64
(lp681
g305
asbag57
(g78
g59
NtRp682
(dp683
g62
(dp684
g89
g90
ssg71
g674
sg64
(lp685
S':'
asbag57
(g78
g59
NtRp686
(dp687
g62
(dp688
sg71
g674
sg64
(lp689
g57
(g58
g59
NtRp690
(dp691
g62
(dp692
g70
I3
ssg71
g686
sg64
(lp693
S''
asbasbasbag57
(g73
g59
NtRp694
(dp695
g62
(dp696
sg71
g650
sg64
(lp697
g57
(g78
g59
NtRp698
(dp699
g62
(dp700
g82
g83
ssg71
g694
sg64
(lp701
g326
asbag57
(g78
g59
NtRp702
(dp703
g62
(dp704
g89
g90
ssg71
g694
sg64
(lp705
S':'
asbag57
(g78
g59
NtRp706
(dp707
g62
(dp708
sg71
g694
sg64
(lp709
g57
(g58
g59
NtRp710
(dp711
g62
(dp712
g70
I3
ssg71
g706
sg64
(lp713
S''
asbasbasbag57
(g73
g59
NtRp714
(dp715
g62
(dp716
sg71
g650
sg64
(lp717
g57
(g78
g59
NtRp718
(dp719
g62
(dp720
g82
g83
ssg71
g714
sg64
(lp721
g347
asbag57
(g78
g59
NtRp722
(dp723
g62
(dp724
g89
g90
ssg71
g714
sg64
(lp725
S':'
asbag57
(g78
g59
NtRp726
(dp727
g62
(dp728
sg71
g714
sg64
(lp729
g57
(g58
g59
NtRp730
(dp731
g62
(dp732
g70
I3
ssg71
g726
sg64
(lp733
S''
asbasbasbag57
(g73
g59
NtRp734
(dp735
g62
(dp736
sg71
g650
sg64
(lp737
g57
(g78
g59
NtRp738
(dp739
g62
(dp740
g82
g83
ssg71
g734
sg64
(lp741
g368
asbag57
(g78
g59
NtRp742
(dp743
g62
(dp744
g89
g90
ssg71
g734
sg64
(lp745
S':'
asbag57
(g78
g59
NtRp746
(dp747
g62
(dp748
sg71
g734
sg64
(lp749
g57
(g58
g59
NtRp750
(dp751
g62
(dp752
g70
I3
ssg71
g746
sg64
(lp753
S''
asbasbasbag57
(g73
g59
NtRp754
(dp755
g62
(dp756
sg71
g650
sg64
(lp757
g57
(g78
g59
NtRp758
(dp759
g62
(dp760
g82
g83
ssg71
g754
sg64
(lp761
g389
asbag57
(g78
g59
NtRp762
(dp763
g62
(dp764
g89
g90
ssg71
g754
sg64
(lp765
S':'
asbag57
(g78
g59
NtRp766
(dp767
g62
(dp768
sg71
g754
sg64
(lp769
g57
(g58
g59
NtRp770
(dp771
g62
(dp772
g70
I3
ssg71
g766
sg64
(lp773
S''
asbasbasbag57
(g73
g59
NtRp774
(dp775
g62
(dp776
sg71
g650
sg64
(lp777
g57
(g78
g59
NtRp778
(dp779
g62
(dp780
g82
g83
ssg71
g774
sg64
(lp781
g410
asbag57
(g78
g59
NtRp782
(dp783
g62
(dp784
g89
g90
ssg71
g774
sg64
(lp785
S':'
asbag57
(g78
g59
NtRp786
(dp787
g62
(dp788
sg71
g774
sg64
(lp789
g57
(g58
g59
NtRp790
(dp791
g62
(dp792
g70
I3
ssg71
g786
sg64
(lp793
S''
asbasbasbag57
(g73
g59
NtRp794
(dp795
g62
(dp796
sg71
g650
sg64
(lp797
g57
(g78
g59
NtRp798
(dp799
g62
(dp800
g82
g83
ssg71
g794
sg64
(lp801
g431
asbag57
(g78
g59
NtRp802
(dp803
g62
(dp804
g89
g90
ssg71
g794
sg64
(lp805
S':'
asbag57
(g78
g59
NtRp806
(dp807
g62
(dp808
sg71
g794
sg64
(lp809
g57
(g58
g59
NtRp810
(dp811
g62
(dp812
g70
I3
ssg71
g806
sg64
(lp813
S''
asbasbasbasbasbasbasbasbasbasbasbag57
(g73
g59
NtRp814
(dp815
g62
(dp816
sg71
g67
sg64
(lp817
g57
(g78
g59
NtRp818
(dp819
g62
(dp820
g82
g83
ssg71
g814
sg64
(lp821
S'env'
p822
asbag57
(g78
g59
NtRp823
(dp824
g62
(dp825
g89
g90
ssg71
g814
sg64
(lp826
S':'
asbag57
(g78
g59
NtRp827
(dp828
g62
(dp829
sg71
g814
sg64
(lp830
g57
(g58
g59
NtRp831
(dp832
g62
(dp833
g70
I5
ssg71
g827
sg64
(lp834
g57
(g66
g59
NtRp835
(dp836
g62
(dp837
g70
I4
ssg71
Nsg64
(lp838
g57
(g73
g59
NtRp839
(dp840
g62
(dp841
sg71
g835
sg64
(lp842
g57
(g78
g59
NtRp843
(dp844
g62
(dp845
g82
g83
ssg71
g839
sg64
(lp846
S'app_folders'
p847
asbag57
(g78
g59
NtRp848
(dp849
g62
(dp850
g89
g90
ssg71
g839
sg64
(lp851
S':'
asbag57
(g78
g59
NtRp852
(dp853
g62
(dp854
sg71
g839
sg64
(lp855
g57
(g58
g59
NtRp856
(dp857
g62
(dp858
g70
I4
ssg71
g852
sg64
(lp859
S"set(['/home/game_boy/web2py/applications/examples/', '/home/game_boy/web2py/applications/welcome/', '/home/game_boy/web2py/applications/IIITCourier/', '/home/game_boy/web2py/applications/admin/'])"
p860
asbasbasbag57
(g73
g59
NtRp861
(dp862
g62
(dp863
sg71
g835
sg64
(lp864
g57
(g78
g59
NtRp865
(dp866
g62
(dp867
g82
g83
ssg71
g861
sg64
(lp868
S'applications_parent'
p869
asbag57
(g78
g59
NtRp870
(dp871
g62
(dp872
g89
g90
ssg71
g861
sg64
(lp873
S':'
asbag57
(g78
g59
NtRp874
(dp875
g62
(dp876
sg71
g861
sg64
(lp877
g57
(g58
g59
NtRp878
(dp879
g62
(dp880
g70
I4
ssg71
g874
sg64
(lp881
S'/home/game_boy/web2py'
p882
asbasbasbag57
(g73
g59
NtRp883
(dp884
g62
(dp885
sg71
g835
sg64
(lp886
g57
(g78
g59
NtRp887
(dp888
g62
(dp889
g82
g83
ssg71
g883
sg64
(lp890
S'cmd_args'
p891
asbag57
(g78
g59
NtRp892
(dp893
g62
(dp894
g89
g90
ssg71
g883
sg64
(lp895
S':'
asbag57
(g78
g59
NtRp896
(dp897
g62
(dp898
sg71
g883
sg64
(lp899
g57
(g58
g59
NtRp900
(dp901
g62
(dp902
g70
I4
ssg71
g896
sg64
(lp903
g57
(g66
g59
NtRp904
(dp905
g62
(dp906
g70
I3
ssg71
Nsg64
(lp907
sbasbasbasbag57
(g73
g59
NtRp908
(dp909
g62
(dp910
sg71
g835
sg64
(lp911
g57
(g78
g59
NtRp912
(dp913
g62
(dp914
g82
g83
ssg71
g908
sg64
(lp915
S'cmd_options'
p916
asbag57
(g78
g59
NtRp917
(dp918
g62
(dp919
g89
g90
ssg71
g908
sg64
(lp920
S':'
asbag57
(g78
g59
NtRp921
(dp922
g62
(dp923
sg71
g908
sg64
(lp924
g57
(g58
g59
NtRp925
(dp926
g62
(dp927
g70
I4
ssg71
g921
sg64
(lp928
S"<Values at 0x7fa715cc8758: {'verbose': False, 'ip': '127.0.0.1', 'shutdown_timeout': 5, 'taskbar': False, 'nocron': False, 'pid_filename': 'httpserver.pid', 'maxthreads': None, 'softcron': False, 'server_name': 'gameBoy-VGN-SR53GF-B', 'bpython': False, 'nogui': False, 'port': 8000, 'extcron': False, 'debuglevel': 30, 'test': None, 'folder': '/home/game_boy/web2py', 'config': '', 'import_models': False, 'winservice': '', 'shell': None, 'run': '', 'log_filename': 'httpserver.log', 'args': [''], 'socket_timeout': 5, 'ssl_ca_certificate': None, 'scheduler': None, 'profiler_filename': None, 'ssl_private_key': '', 'password': '<ask>', 'request_queue_size': 5, 'ssl_certificate': '', 'cronjob': False, 'numthreads': None, 'quiet': False, 'interfaces': None, 'minthreads': None, 'timeout': 10, 'plain': False, 'nobanner': False}>"
p929
asbasbasbag57
(g73
g59
NtRp930
(dp931
g62
(dp932
sg71
g835
sg64
(lp933
g57
(g78
g59
NtRp934
(dp935
g62
(dp936
g82
g83
ssg71
g930
sg64
(lp937
S'db_sessions'
p938
asbag57
(g78
g59
NtRp939
(dp940
g62
(dp941
g89
g90
ssg71
g930
sg64
(lp942
S':'
asbag57
(g78
g59
NtRp943
(dp944
g62
(dp945
sg71
g930
sg64
(lp946
g57
(g58
g59
NtRp947
(dp948
g62
(dp949
g70
I4
ssg71
g943
sg64
(lp950
S'set([])'
p951
asbasbasbag57
(g73
g59
NtRp952
(dp953
g62
(dp954
sg71
g835
sg64
(lp955
g57
(g78
g59
NtRp956
(dp957
g62
(dp958
g82
g83
ssg71
g952
sg64
(lp959
S'debugging'
p960
asbag57
(g78
g59
NtRp961
(dp962
g62
(dp963
g89
g90
ssg71
g952
sg64
(lp964
S':'
asbag57
(g78
g59
NtRp965
(dp966
g62
(dp967
sg71
g952
sg64
(lp968
g57
(g58
g59
NtRp969
(dp970
g62
(dp971
g70
I4
ssg71
g965
sg64
(lp972
g100
asbasbasbag57
(g73
g59
NtRp973
(dp974
g62
(dp975
sg71
g835
sg64
(lp976
g57
(g78
g59
NtRp977
(dp978
g62
(dp979
g82
g83
ssg71
g973
sg64
(lp980
S'gluon_parent'
p981
asbag57
(g78
g59
NtRp982
(dp983
g62
(dp984
g89
g90
ssg71
g973
sg64
(lp985
S':'
asbag57
(g78
g59
NtRp986
(dp987
g62
(dp988
sg71
g973
sg64
(lp989
g57
(g58
g59
NtRp990
(dp991
g62
(dp992
g70
I4
ssg71
g986
sg64
(lp993
S'/usr/share/web2py'
p994
asbasbasbag57
(g73
g59
NtRp995
(dp996
g62
(dp997
sg71
g835
sg64
(lp998
g57
(g78
g59
NtRp999
(dp1000
g62
(dp1001
g82
g83
ssg71
g995
sg64
(lp1002
S'http_accept'
p1003
asbag57
(g78
g59
NtRp1004
(dp1005
g62
(dp1006
g89
g90
ssg71
g995
sg64
(lp1007
S':'
asbag57
(g78
g59
NtRp1008
(dp1009
g62
(dp1010
sg71
g995
sg64
(lp1011
g57
(g58
g59
NtRp1012
(dp1013
g62
(dp1014
g70
I4
ssg71
g1008
sg64
(lp1015
S'text/html,application/xhtml+xml,application/xml;q=0.9,*/*;q=0.8'
p1016
asbasbasbag57
(g73
g59
NtRp1017
(dp1018
g62
(dp1019
sg71
g835
sg64
(lp1020
g57
(g78
g59
NtRp1021
(dp1022
g62
(dp1023
g82
g83
ssg71
g1017
sg64
(lp1024
S'http_accept_encoding'
p1025
asbag57
(g78
g59
NtRp1026
(dp1027
g62
(dp1028
g89
g90
ssg71
g1017
sg64
(lp1029
S':'
asbag57
(g78
g59
NtRp1030
(dp1031
g62
(dp1032
sg71
g1017
sg64
(lp1033
g57
(g58
g59
NtRp1034
(dp1035
g62
(dp1036
g70
I4
ssg71
g1030
sg64
(lp1037
S'gzip, deflate'
p1038
asbasbasbag57
(g73
g59
NtRp1039
(dp1040
g62
(dp1041
sg71
g835
sg64
(lp1042
g57
(g78
g59
NtRp1043
(dp1044
g62
(dp1045
g82
g83
ssg71
g1039
sg64
(lp1046
S'http_accept_language'
p1047
asbag57
(g78
g59
NtRp1048
(dp1049
g62
(dp1050
g89
g90
ssg71
g1039
sg64
(lp1051
S':'
asbag57
(g78
g59
NtRp1052
(dp1053
g62
(dp1054
sg71
g1039
sg64
(lp1055
g57
(g58
g59
NtRp1056
(dp1057
g62
(dp1058
g70
I4
ssg71
g1052
sg64
(lp1059
S'en-US,en;q=0.5'
p1060
asbasbasbag57
(g73
g59
NtRp1061
(dp1062
g62
(dp1063
sg71
g835
sg64
(lp1064
g57
(g78
g59
NtRp1065
(dp1066
g62
(dp1067
g82
g83
ssg71
g1061
sg64
(lp1068
S'http_connection'
p1069
asbag57
(g78
g59
NtRp1070
(dp1071
g62
(dp1072
g89
g90
ssg71
g1061
sg64
(lp1073
S':'
asbag57
(g78
g59
NtRp1074
(dp1075
g62
(dp1076
sg71
g1061
sg64
(lp1077
g57
(g58
g59
NtRp1078
(dp1079
g62
(dp1080
g70
I4
ssg71
g1074
sg64
(lp1081
S'keep-alive'
p1082
asbasbasbag57
(g73
g59
NtRp1083
(dp1084
g62
(dp1085
sg71
g835
sg64
(lp1086
g57
(g78
g59
NtRp1087
(dp1088
g62
(dp1089
g82
g83
ssg71
g1083
sg64
(lp1090
S'http_cookie'
p1091
asbag57
(g78
g59
NtRp1092
(dp1093
g62
(dp1094
g89
g90
ssg71
g1083
sg64
(lp1095
S':'
asbag57
(g78
g59
NtRp1096
(dp1097
g62
(dp1098
sg71
g1083
sg64
(lp1099
g57
(g58
g59
NtRp1100
(dp1101
g62
(dp1102
g70
I4
ssg71
g1096
sg64
(lp1103
S'session_id_welcome=127.0.0.1-24a75461-14f1-4d3a-9fa8-78b9b48c05ba; session_id_admin=127.0.0.1-1fa45aea-be5e-40d9-a0ee-c4308d2071b8; session_id_iiitcourier=127.0.0.1-d80de6ec-cf5d-4cf3-8d7c-fad6af1bba5b'
p1104
asbasbasbag57
(g73
g59
NtRp1105
(dp1106
g62
(dp1107
sg71
g835
sg64
(lp1108
g57
(g78
g59
NtRp1109
(dp1110
g62
(dp1111
g82
g83
ssg71
g1105
sg64
(lp1112
S'http_host'
p1113
asbag57
(g78
g59
NtRp1114
(dp1115
g62
(dp1116
g89
g90
ssg71
g1105
sg64
(lp1117
S':'
asbag57
(g78
g59
NtRp1118
(dp1119
g62
(dp1120
sg71
g1105
sg64
(lp1121
g57
(g58
g59
NtRp1122
(dp1123
g62
(dp1124
g70
I4
ssg71
g1118
sg64
(lp1125
S'127.0.0.1:8000'
p1126
asbasbasbag57
(g73
g59
NtRp1127
(dp1128
g62
(dp1129
sg71
g835
sg64
(lp1130
g57
(g78
g59
NtRp1131
(dp1132
g62
(dp1133
g82
g83
ssg71
g1127
sg64
(lp1134
S'http_referer'
p1135
asbag57
(g78
g59
NtRp1136
(dp1137
g62
(dp1138
g89
g90
ssg71
g1127
sg64
(lp1139
S':'
asbag57
(g78
g59
NtRp1140
(dp1141
g62
(dp1142
sg71
g1127
sg64
(lp1143
g57
(g58
g59
NtRp1144
(dp1145
g62
(dp1146
g70
I4
ssg71
g1140
sg64
(lp1147
S'http://127.0.0.1:8000/IIITCourier/default/searchPage?contact=None&from=None&name=&received=NO&to=None&_signature=2d44190fd56cf27b38f604787fc52d510dbf68ce'
p1148
asbasbasbag57
(g73
g59
NtRp1149
(dp1150
g62
(dp1151
sg71
g835
sg64
(lp1152
g57
(g78
g59
NtRp1153
(dp1154
g62
(dp1155
g82
g83
ssg71
g1149
sg64
(lp1156
S'http_user_agent'
p1157
asbag57
(g78
g59
NtRp1158
(dp1159
g62
(dp1160
g89
g90
ssg71
g1149
sg64
(lp1161
S':'
asbag57
(g78
g59
NtRp1162
(dp1163
g62
(dp1164
sg71
g1149
sg64
(lp1165
g57
(g58
g59
NtRp1166
(dp1167
g62
(dp1168
g70
I4
ssg71
g1162
sg64
(lp1169
S'Mozilla/5.0 (X11; Ubuntu; Linux x86_64; rv:42.0) Gecko/20100101 Firefox/42.0'
p1170
asbasbasbag57
(g73
g59
NtRp1171
(dp1172
g62
(dp1173
sg71
g835
sg64
(lp1174
g57
(g78
g59
NtRp1175
(dp1176
g62
(dp1177
g82
g83
ssg71
g1171
sg64
(lp1178
S'is_jython'
p1179
asbag57
(g78
g59
NtRp1180
(dp1181
g62
(dp1182
g89
g90
ssg71
g1171
sg64
(lp1183
S':'
asbag57
(g78
g59
NtRp1184
(dp1185
g62
(dp1186
sg71
g1171
sg64
(lp1187
g57
(g58
g59
NtRp1188
(dp1189
g62
(dp1190
g70
I4
ssg71
g1184
sg64
(lp1191
g100
asbasbasbag57
(g73
g59
NtRp1192
(dp1193
g62
(dp1194
sg71
g835
sg64
(lp1195
g57
(g78
g59
NtRp1196
(dp1197
g62
(dp1198
g82
g83
ssg71
g1192
sg64
(lp1199
S'is_pypy'
p1200
asbag57
(g78
g59
NtRp1201
(dp1202
g62
(dp1203
g89
g90
ssg71
g1192
sg64
(lp1204
S':'
asbag57
(g78
g59
NtRp1205
(dp1206
g62
(dp1207
sg71
g1192
sg64
(lp1208
g57
(g58
g59
NtRp1209
(dp1210
g62
(dp1211
g70
I4
ssg71
g1205
sg64
(lp1212
g100
asbasbasbag57
(g73
g59
NtRp1213
(dp1214
g62
(dp1215
sg71
g835
sg64
(lp1216
g57
(g78
g59
NtRp1217
(dp1218
g62
(dp1219
g82
g83
ssg71
g1213
sg64
(lp1220
S'path_info'
p1221
asbag57
(g78
g59
NtRp1222
(dp1223
g62
(dp1224
g89
g90
ssg71
g1213
sg64
(lp1225
S':'
asbag57
(g78
g59
NtRp1226
(dp1227
g62
(dp1228
sg71
g1213
sg64
(lp1229
g57
(g58
g59
NtRp1230
(dp1231
g62
(dp1232
g70
I4
ssg71
g1226
sg64
(lp1233
S'/IIITCourier/default/searchPage/csv'
p1234
asbasbasbag57
(g73
g59
NtRp1235
(dp1236
g62
(dp1237
sg71
g835
sg64
(lp1238
g57
(g78
g59
NtRp1239
(dp1240
g62
(dp1241
g82
g83
ssg71
g1235
sg64
(lp1242
S'query_string'
p1243
asbag57
(g78
g59
NtRp1244
(dp1245
g62
(dp1246
g89
g90
ssg71
g1235
sg64
(lp1247
S':'
asbag57
(g78
g59
NtRp1248
(dp1249
g62
(dp1250
sg71
g1235
sg64
(lp1251
g57
(g58
g59
NtRp1252
(dp1253
g62
(dp1254
g70
I4
ssg71
g1248
sg64
(lp1255
S'keywords=&_signature=5883a4bed5bc5bab253197c4f935be2810ed737c'
p1256
asbasbasbag57
(g73
g59
NtRp1257
(dp1258
g62
(dp1259
sg71
g835
sg64
(lp1260
g57
(g78
g59
NtRp1261
(dp1262
g62
(dp1263
g82
g83
ssg71
g1257
sg64
(lp1264
S'remote_addr'
p1265
asbag57
(g78
g59
NtRp1266
(dp1267
g62
(dp1268
g89
g90
ssg71
g1257
sg64
(lp1269
S':'
asbag57
(g78
g59
NtRp1270
(dp1271
g62
(dp1272
sg71
g1257
sg64
(lp1273
g57
(g58
g59
NtRp1274
(dp1275
g62
(dp1276
g70
I4
ssg71
g1270
sg64
(lp1277
g203
asbasbasbag57
(g73
g59
NtRp1278
(dp1279
g62
(dp1280
sg71
g835
sg64
(lp1281
g57
(g78
g59
NtRp1282
(dp1283
g62
(dp1284
g82
g83
ssg71
g1278
sg64
(lp1285
S'remote_port'
p1286
asbag57
(g78
g59
NtRp1287
(dp1288
g62
(dp1289
g89
g90
ssg71
g1278
sg64
(lp1290
S':'
asbag57
(g78
g59
NtRp1291
(dp1292
g62
(dp1293
sg71
g1278
sg64
(lp1294
g57
(g58
g59
NtRp1295
(dp1296
g62
(dp1297
g70
I4
ssg71
g1291
sg64
(lp1298
S'57347'
p1299
asbasbasbag57
(g73
g59
NtRp1300
(dp1301
g62
(dp1302
sg71
g835
sg64
(lp1303
g57
(g78
g59
NtRp1304
(dp1305
g62
(dp1306
g82
g83
ssg71
g1300
sg64
(lp1307
S'request_method'
p1308
asbag57
(g78
g59
NtRp1309
(dp1310
g62
(dp1311
g89
g90
ssg71
g1300
sg64
(lp1312
S':'
asbag57
(g78
g59
NtRp1313
(dp1314
g62
(dp1315
sg71
g1300
sg64
(lp1316
g57
(g58
g59
NtRp1317
(dp1318
g62
(dp1319
g70
I4
ssg71
g1313
sg64
(lp1320
S'GET'
p1321
asbasbasbag57
(g73
g59
NtRp1322
(dp1323
g62
(dp1324
sg71
g835
sg64
(lp1325
g57
(g78
g59
NtRp1326
(dp1327
g62
(dp1328
g82
g83
ssg71
g1322
sg64
(lp1329
S'script_name'
p1330
asbag57
(g78
g59
NtRp1331
(dp1332
g62
(dp1333
g89
g90
ssg71
g1322
sg64
(lp1334
S':'
asbag57
(g78
g59
NtRp1335
(dp1336
g62
(dp1337
sg71
g1322
sg64
(lp1338
g57
(g58
g59
NtRp1339
(dp1340
g62
(dp1341
g70
I4
ssg71
g1335
sg64
(lp1342
S''
asbasbasbag57
(g73
g59
NtRp1343
(dp1344
g62
(dp1345
sg71
g835
sg64
(lp1346
g57
(g78
g59
NtRp1347
(dp1348
g62
(dp1349
g82
g83
ssg71
g1343
sg64
(lp1350
S'server_name'
p1351
asbag57
(g78
g59
NtRp1352
(dp1353
g62
(dp1354
g89
g90
ssg71
g1343
sg64
(lp1355
S':'
asbag57
(g78
g59
NtRp1356
(dp1357
g62
(dp1358
sg71
g1343
sg64
(lp1359
g57
(g58
g59
NtRp1360
(dp1361
g62
(dp1362
g70
I4
ssg71
g1356
sg64
(lp1363
S'gameBoy-VGN-SR53GF-B'
p1364
asbasbasbag57
(g73
g59
NtRp1365
(dp1366
g62
(dp1367
sg71
g835
sg64
(lp1368
g57
(g78
g59
NtRp1369
(dp1370
g62
(dp1371
g82
g83
ssg71
g1365
sg64
(lp1372
S'server_port'
p1373
asbag57
(g78
g59
NtRp1374
(dp1375
g62
(dp1376
g89
g90
ssg71
g1365
sg64
(lp1377
S':'
asbag57
(g78
g59
NtRp1378
(dp1379
g62
(dp1380
sg71
g1365
sg64
(lp1381
g57
(g58
g59
NtRp1382
(dp1383
g62
(dp1384
g70
I4
ssg71
g1378
sg64
(lp1385
S'8000'
p1386
asbasbasbag57
(g73
g59
NtRp1387
(dp1388
g62
(dp1389
sg71
g835
sg64
(lp1390
g57
(g78
g59
NtRp1391
(dp1392
g62
(dp1393
g82
g83
ssg71
g1387
sg64
(lp1394
S'server_protocol'
p1395
asbag57
(g78
g59
NtRp1396
(dp1397
g62
(dp1398
g89
g90
ssg71
g1387
sg64
(lp1399
S':'
asbag57
(g78
g59
NtRp1400
(dp1401
g62
(dp1402
sg71
g1387
sg64
(lp1403
g57
(g58
g59
NtRp1404
(dp1405
g62
(dp1406
g70
I4
ssg71
g1400
sg64
(lp1407
S'HTTP/1.1'
p1408
asbasbasbag57
(g73
g59
NtRp1409
(dp1410
g62
(dp1411
sg71
g835
sg64
(lp1412
g57
(g78
g59
NtRp1413
(dp1414
g62
(dp1415
g82
g83
ssg71
g1409
sg64
(lp1416
S'server_software'
p1417
asbag57
(g78
g59
NtRp1418
(dp1419
g62
(dp1420
g89
g90
ssg71
g1409
sg64
(lp1421
S':'
asbag57
(g78
g59
NtRp1422
(dp1423
g62
(dp1424
sg71
g1409
sg64
(lp1425
g57
(g58
g59
NtRp1426
(dp1427
g62
(dp1428
g70
I4
ssg71
g1422
sg64
(lp1429
S'Rocket 1.2.4'
p1430
asbasbasbag57
(g73
g59
NtRp1431
(dp1432
g62
(dp1433
sg71
g835
sg64
(lp1434
g57
(g78
g59
NtRp1435
(dp1436
g62
(dp1437
g82
g83
ssg71
g1431
sg64
(lp1438
S'web2py_crontype'
p1439
asbag57
(g78
g59
NtRp1440
(dp1441
g62
(dp1442
g89
g90
ssg71
g1431
sg64
(lp1443
S':'
asbag57
(g78
g59
NtRp1444
(dp1445
g62
(dp1446
sg71
g1431
sg64
(lp1447
g57
(g58
g59
NtRp1448
(dp1449
g62
(dp1450
g70
I4
ssg71
g1444
sg64
(lp1451
S'hard'
p1452
asbasbasbag57
(g73
g59
NtRp1453
(dp1454
g62
(dp1455
sg71
g835
sg64
(lp1456
g57
(g78
g59
NtRp1457
(dp1458
g62
(dp1459
g82
g83
ssg71
g1453
sg64
(lp1460
S'web2py_path'
p1461
asbag57
(g78
g59
NtRp1462
(dp1463
g62
(dp1464
g89
g90
ssg71
g1453
sg64
(lp1465
S':'
asbag57
(g78
g59
NtRp1466
(dp1467
g62
(dp1468
sg71
g1453
sg64
(lp1469
g57
(g58
g59
NtRp1470
(dp1471
g62
(dp1472
g70
I4
ssg71
g1466
sg64
(lp1473
g882
asbasbasbag57
(g73
g59
NtRp1474
(dp1475
g62
(dp1476
sg71
g835
sg64
(lp1477
g57
(g78
g59
NtRp1478
(dp1479
g62
(dp1480
g82
g83
ssg71
g1474
sg64
(lp1481
S'web2py_version'
p1482
asbag57
(g78
g59
NtRp1483
(dp1484
g62
(dp1485
g89
g90
ssg71
g1474
sg64
(lp1486
S':'
asbag57
(g78
g59
NtRp1487
(dp1488
g62
(dp1489
sg71
g1474
sg64
(lp1490
g57
(g58
g59
NtRp1491
(dp1492
g62
(dp1493
g70
I4
ssg71
g1487
sg64
(lp1494
g57
(g66
g59
NtRp1495
(dp1496
g62
(dp1497
g70
I3
ssg71
Nsg64
(lp1498
g57
(g73
g59
NtRp1499
(dp1500
g62
(dp1501
sg71
g1495
sg64
(lp1502
g57
(g78
g59
NtRp1503
(dp1504
g62
(dp1505
sg71
g1499
sg64
(lp1506
g57
(g58
g59
NtRp1507
(dp1508
g62
(dp1509
g70
I3
ssg71
g1503
sg64
(lp1510
S'1'
asbasbasbag57
(g73
g59
NtRp1511
(dp1512
g62
(dp1513
sg71
g1495
sg64
(lp1514
g57
(g78
g59
NtRp1515
(dp1516
g62
(dp1517
sg71
g1511
sg64
(lp1518
g57
(g58
g59
NtRp1519
(dp1520
g62
(dp1521
g70
I3
ssg71
g1515
sg64
(lp1522
S'99'
p1523
asbasbasbag57
(g73
g59
NtRp1524
(dp1525
g62
(dp1526
sg71
g1495
sg64
(lp1527
g57
(g78
g59
NtRp1528
(dp1529
g62
(dp1530
sg71
g1524
sg64
(lp1531
g57
(g58
g59
NtRp1532
(dp1533
g62
(dp1534
g70
I3
ssg71
g1528
sg64
(lp1535
S'7'
asbasbasbag57
(g73
g59
NtRp1536
(dp1537
g62
(dp1538
sg71
g1495
sg64
(lp1539
g57
(g78
g59
NtRp1540
(dp1541
g62
(dp1542
sg71
g1536
sg64
(lp1543
g57
(g58
g59
NtRp1544
(dp1545
g62
(dp1546
g70
I3
ssg71
g1540
sg64
(lp1547
S'datetime.datetime(2012, 3, 4, 22, 12, 8)'
p1548
asbasbasbag57
(g73
g59
NtRp1549
(dp1550
g62
(dp1551
sg71
g1495
sg64
(lp1552
g57
(g78
g59
NtRp1553
(dp1554
g62
(dp1555
sg71
g1549
sg64
(lp1556
g57
(g58
g59
NtRp1557
(dp1558
g62
(dp1559
g70
I3
ssg71
g1553
sg64
(lp1560
S'stable'
p1561
asbasbasbasbasbasbasbag57
(g73
g59
NtRp1562
(dp1563
g62
(dp1564
sg71
g835
sg64
(lp1565
g57
(g78
g59
NtRp1566
(dp1567
g62
(dp1568
g82
g83
ssg71
g1562
sg64
(lp1569
S'wsgi_errors'
p1570
asbag57
(g78
g59
NtRp1571
(dp1572
g62
(dp1573
g89
g90
ssg71
g1562
sg64
(lp1574
S':'
asbag57
(g78
g59
NtRp1575
(dp1576
g62
(dp1577
sg71
g1562
sg64
(lp1578
g57
(g58
g59
NtRp1579
(dp1580
g62
(dp1581
g70
I4
ssg71
g1575
sg64
(lp1582
S"<open file '<stderr>', mode 'w' at 0x7fa71a3bc1e0>"
p1583
asbasbasbag57
(g73
g59
NtRp1584
(dp1585
g62
(dp1586
sg71
g835
sg64
(lp1587
g57
(g78
g59
NtRp1588
(dp1589
g62
(dp1590
g82
g83
ssg71
g1584
sg64
(lp1591
S'wsgi_file_wrapper'
p1592
asbag57
(g78
g59
NtRp1593
(dp1594
g62
(dp1595
g89
g90
ssg71
g1584
sg64
(lp1596
S':'
asbag57
(g78
g59
NtRp1597
(dp1598
g62
(dp1599
sg71
g1584
sg64
(lp1600
g57
(g58
g59
NtRp1601
(dp1602
g62
(dp1603
g70
I4
ssg71
g1597
sg64
(lp1604
S'<class wsgiref.util.FileWrapper at 0x7fa715d59258>'
p1605
asbasbasbag57
(g73
g59
NtRp1606
(dp1607
g62
(dp1608
sg71
g835
sg64
(lp1609
g57
(g78
g59
NtRp1610
(dp1611
g62
(dp1612
g82
g83
ssg71
g1606
sg64
(lp1613
S'wsgi_input'
p1614
asbag57
(g78
g59
NtRp1615
(dp1616
g62
(dp1617
g89
g90
ssg71
g1606
sg64
(lp1618
S':'
asbag57
(g78
g59
NtRp1619
(dp1620
g62
(dp1621
sg71
g1606
sg64
(lp1622
g57
(g58
g59
NtRp1623
(dp1624
g62
(dp1625
g70
I4
ssg71
g1619
sg64
(lp1626
S'<socket._fileobject object at 0x7fa6f276ec50>'
p1627
asbasbasbag57
(g73
g59
NtRp1628
(dp1629
g62
(dp1630
sg71
g835
sg64
(lp1631
g57
(g78
g59
NtRp1632
(dp1633
g62
(dp1634
g82
g83
ssg71
g1628
sg64
(lp1635
S'wsgi_multiprocess'
p1636
asbag57
(g78
g59
NtRp1637
(dp1638
g62
(dp1639
g89
g90
ssg71
g1628
sg64
(lp1640
S':'
asbag57
(g78
g59
NtRp1641
(dp1642
g62
(dp1643
sg71
g1628
sg64
(lp1644
g57
(g58
g59
NtRp1645
(dp1646
g62
(dp1647
g70
I4
ssg71
g1641
sg64
(lp1648
g100
asbasbasbag57
(g73
g59
NtRp1649
(dp1650
g62
(dp1651
sg71
g835
sg64
(lp1652
g57
(g78
g59
NtRp1653
(dp1654
g62
(dp1655
g82
g83
ssg71
g1649
sg64
(lp1656
S'wsgi_multithread'
p1657
asbag57
(g78
g59
NtRp1658
(dp1659
g62
(dp1660
g89
g90
ssg71
g1649
sg64
(lp1661
S':'
asbag57
(g78
g59
NtRp1662
(dp1663
g62
(dp1664
sg71
g1649
sg64
(lp1665
g57
(g58
g59
NtRp1666
(dp1667
g62
(dp1668
g70
I4
ssg71
g1662
sg64
(lp1669
S'True'
p1670
asbasbasbag57
(g73
g59
NtRp1671
(dp1672
g62
(dp1673
sg71
g835
sg64
(lp1674
g57
(g78
g59
NtRp1675
(dp1676
g62
(dp1677
g82
g83
ssg71
g1671
sg64
(lp1678
S'wsgi_run_once'
p1679
asbag57
(g78
g59
NtRp1680
(dp1681
g62
(dp1682
g89
g90
ssg71
g1671
sg64
(lp1683
S':'
asbag57
(g78
g59
NtRp1684
(dp1685
g62
(dp1686
sg71
g1671
sg64
(lp1687
g57
(g58
g59
NtRp1688
(dp1689
g62
(dp1690
g70
I4
ssg71
g1684
sg64
(lp1691
g100
asbasbasbag57
(g73
g59
NtRp1692
(dp1693
g62
(dp1694
sg71
g835
sg64
(lp1695
g57
(g78
g59
NtRp1696
(dp1697
g62
(dp1698
g82
g83
ssg71
g1692
sg64
(lp1699
S'wsgi_url_scheme'
p1700
asbag57
(g78
g59
NtRp1701
(dp1702
g62
(dp1703
g89
g90
ssg71
g1692
sg64
(lp1704
S':'
asbag57
(g78
g59
NtRp1705
(dp1706
g62
(dp1707
sg71
g1692
sg64
(lp1708
g57
(g58
g59
NtRp1709
(dp1710
g62
(dp1711
g70
I4
ssg71
g1705
sg64
(lp1712
S'http'
p1713
asbasbasbag57
(g73
g59
NtRp1714
(dp1715
g62
(dp1716
sg71
g835
sg64
(lp1717
g57
(g78
g59
NtRp1718
(dp1719
g62
(dp1720
g82
g83
ssg71
g1714
sg64
(lp1721
S'wsgi_version'
p1722
asbag57
(g78
g59
NtRp1723
(dp1724
g62
(dp1725
g89
g90
ssg71
g1714
sg64
(lp1726
S':'
asbag57
(g78
g59
NtRp1727
(dp1728
g62
(dp1729
sg71
g1714
sg64
(lp1730
g57
(g58
g59
NtRp1731
(dp1732
g62
(dp1733
g70
I4
ssg71
g1727
sg64
(lp1734
g57
(g66
g59
NtRp1735
(dp1736
g62
(dp1737
g70
I3
ssg71
Nsg64
(lp1738
g57
(g73
g59
NtRp1739
(dp1740
g62
(dp1741
sg71
g1735
sg64
(lp1742
g57
(g78
g59
NtRp1743
(dp1744
g62
(dp1745
sg71
g1739
sg64
(lp1746
g57
(g58
g59
NtRp1747
(dp1748
g62
(dp1749
g70
I3
ssg71
g1743
sg64
(lp1750
S'1'
asbasbasbag57
(g73
g59
NtRp1751
(dp1752
g62
(dp1753
sg71
g1735
sg64
(lp1754
g57
(g78
g59
NtRp1755
(dp1756
g62
(dp1757
sg71
g1751
sg64
(lp1758
g57
(g58
g59
NtRp1759
(dp1760
g62
(dp1761
g70
I3
ssg71
g1755
sg64
(lp1762
S'0'
asbasbasbasbasbasbasbasbasbasbasbag57
(g73
g59
NtRp1763
(dp1764
g62
(dp1765
sg71
g67
sg64
(lp1766
g57
(g78
g59
NtRp1767
(dp1768
g62
(dp1769
g82
g83
ssg71
g1763
sg64
(lp1770
S'extension'
p1771
asbag57
(g78
g59
NtRp1772
(dp1773
g62
(dp1774
g89
g90
ssg71
g1763
sg64
(lp1775
S':'
asbag57
(g78
g59
NtRp1776
(dp1777
g62
(dp1778
sg71
g1763
sg64
(lp1779
g57
(g58
g59
NtRp1780
(dp1781
g62
(dp1782
g70
I5
ssg71
g1776
sg64
(lp1783
S'html'
p1784
asbasbasbag57
(g73
g59
NtRp1785
(dp1786
g62
(dp1787
sg71
g67
sg64
(lp1788
g57
(g78
g59
NtRp1789
(dp1790
g62
(dp1791
g82
g83
ssg71
g1785
sg64
(lp1792
S'folder'
p1793
asbag57
(g78
g59
NtRp1794
(dp1795
g62
(dp1796
g89
g90
ssg71
g1785
sg64
(lp1797
S':'
asbag57
(g78
g59
NtRp1798
(dp1799
g62
(dp1800
sg71
g1785
sg64
(lp1801
g57
(g58
g59
NtRp1802
(dp1803
g62
(dp1804
g70
I5
ssg71
g1798
sg64
(lp1805
S'/home/game_boy/web2py/applications/IIITCourier/'
p1806
asbasbasbag57
(g73
g59
NtRp1807
(dp1808
g62
(dp1809
sg71
g67
sg64
(lp1810
g57
(g78
g59
NtRp1811
(dp1812
g62
(dp1813
g82
g83
ssg71
g1807
sg64
(lp1814
S'function'
p1815
asbag57
(g78
g59
NtRp1816
(dp1817
g62
(dp1818
g89
g90
ssg71
g1807
sg64
(lp1819
S':'
asbag57
(g78
g59
NtRp1820
(dp1821
g62
(dp1822
sg71
g1807
sg64
(lp1823
g57
(g58
g59
NtRp1824
(dp1825
g62
(dp1826
g70
I5
ssg71
g1820
sg64
(lp1827
S'searchPage'
p1828
asbasbasbag57
(g73
g59
NtRp1829
(dp1830
g62
(dp1831
sg71
g67
sg64
(lp1832
g57
(g78
g59
NtRp1833
(dp1834
g62
(dp1835
g82
g83
ssg71
g1829
sg64
(lp1836
S'get_vars'
p1837
asbag57
(g78
g59
NtRp1838
(dp1839
g62
(dp1840
g89
g90
ssg71
g1829
sg64
(lp1841
S':'
asbag57
(g78
g59
NtRp1842
(dp1843
g62
(dp1844
sg71
g1829
sg64
(lp1845
g57
(g58
g59
NtRp1846
(dp1847
g62
(dp1848
g70
I5
ssg71
g1842
sg64
(lp1849
g57
(g66
g59
NtRp1850
(dp1851
g62
(dp1852
g70
I4
ssg71
Nsg64
(lp1853
g57
(g73
g59
NtRp1854
(dp1855
g62
(dp1856
sg71
g1850
sg64
(lp1857
g57
(g78
g59
NtRp1858
(dp1859
g62
(dp1860
g82
g83
ssg71
g1854
sg64
(lp1861
S'keywords'
p1862
asbag57
(g78
g59
NtRp1863
(dp1864
g62
(dp1865
g89
g90
ssg71
g1854
sg64
(lp1866
S':'
asbag57
(g78
g59
NtRp1867
(dp1868
g62
(dp1869
sg71
g1854
sg64
(lp1870
g57
(g58
g59
NtRp1871
(dp1872
g62
(dp1873
g70
I4
ssg71
g1867
sg64
(lp1874
S''
asbasbasbasbasbasbasbag57
(g73
g59
NtRp1875
(dp1876
g62
(dp1877
sg71
g67
sg64
(lp1878
g57
(g78
g59
NtRp1879
(dp1880
g62
(dp1881
g82
g83
ssg71
g1875
sg64
(lp1882
S'global_settings'
p1883
asbag57
(g78
g59
NtRp1884
(dp1885
g62
(dp1886
g89
g90
ssg71
g1875
sg64
(lp1887
S':'
asbag57
(g78
g59
NtRp1888
(dp1889
g62
(dp1890
sg71
g1875
sg64
(lp1891
g57
(g58
g59
NtRp1892
(dp1893
g62
(dp1894
g70
I5
ssg71
g1888
sg64
(lp1895
g57
(g66
g59
NtRp1896
(dp1897
g62
(dp1898
g70
I4
ssg71
Nsg64
(lp1899
g57
(g73
g59
NtRp1900
(dp1901
g62
(dp1902
sg71
g1896
sg64
(lp1903
g57
(g78
g59
NtRp1904
(dp1905
g62
(dp1906
g82
g83
ssg71
g1900
sg64
(lp1907
g847
asbag57
(g78
g59
NtRp1908
(dp1909
g62
(dp1910
g89
g90
ssg71
g1900
sg64
(lp1911
S':'
asbag57
(g78
g59
NtRp1912
(dp1913
g62
(dp1914
sg71
g1900
sg64
(lp1915
g57
(g58
g59
NtRp1916
(dp1917
g62
(dp1918
g70
I4
ssg71
g1912
sg64
(lp1919
S"set(['/home/game_boy/web2py/applications/examples/', '/home/game_boy/web2py/applications/welcome/', '/home/game_boy/web2py/applications/IIITCourier/', '/home/game_boy/web2py/applications/admin/'])"
p1920
asbasbasbag57
(g73
g59
NtRp1921
(dp1922
g62
(dp1923
sg71
g1896
sg64
(lp1924
g57
(g78
g59
NtRp1925
(dp1926
g62
(dp1927
g82
g83
ssg71
g1921
sg64
(lp1928
g869
asbag57
(g78
g59
NtRp1929
(dp1930
g62
(dp1931
g89
g90
ssg71
g1921
sg64
(lp1932
S':'
asbag57
(g78
g59
NtRp1933
(dp1934
g62
(dp1935
sg71
g1921
sg64
(lp1936
g57
(g58
g59
NtRp1937
(dp1938
g62
(dp1939
g70
I4
ssg71
g1933
sg64
(lp1940
g882
asbasbasbag57
(g73
g59
NtRp1941
(dp1942
g62
(dp1943
sg71
g1896
sg64
(lp1944
g57
(g78
g59
NtRp1945
(dp1946
g62
(dp1947
g82
g83
ssg71
g1941
sg64
(lp1948
g891
asbag57
(g78
g59
NtRp1949
(dp1950
g62
(dp1951
g89
g90
ssg71
g1941
sg64
(lp1952
S':'
asbag57
(g78
g59
NtRp1953
(dp1954
g62
(dp1955
sg71
g1941
sg64
(lp1956
g57
(g58
g59
NtRp1957
(dp1958
g62
(dp1959
g70
I4
ssg71
g1953
sg64
(lp1960
g57
(g66
g59
NtRp1961
(dp1962
g62
(dp1963
g70
I3
ssg71
Nsg64
(lp1964
sbasbasbasbag57
(g73
g59
NtRp1965
(dp1966
g62
(dp1967
sg71
g1896
sg64
(lp1968
g57
(g78
g59
NtRp1969
(dp1970
g62
(dp1971
g82
g83
ssg71
g1965
sg64
(lp1972
g916
asbag57
(g78
g59
NtRp1973
(dp1974
g62
(dp1975
g89
g90
ssg71
g1965
sg64
(lp1976
S':'
asbag57
(g78
g59
NtRp1977
(dp1978
g62
(dp1979
sg71
g1965
sg64
(lp1980
g57
(g58
g59
NtRp1981
(dp1982
g62
(dp1983
g70
I4
ssg71
g1977
sg64
(lp1984
S"<Values at 0x7fa715cc8758: {'verbose': False, 'ip': '127.0.0.1', 'shutdown_timeout': 5, 'taskbar': False, 'nocron': False, 'pid_filename': 'httpserver.pid', 'maxthreads': None, 'softcron': False, 'server_name': 'gameBoy-VGN-SR53GF-B', 'bpython': False, 'nogui': False, 'port': 8000, 'extcron': False, 'debuglevel': 30, 'test': None, 'folder': '/home/game_boy/web2py', 'config': '', 'import_models': False, 'winservice': '', 'shell': None, 'run': '', 'log_filename': 'httpserver.log', 'args': [''], 'socket_timeout': 5, 'ssl_ca_certificate': None, 'scheduler': None, 'profiler_filename': None, 'ssl_private_key': '', 'password': '<ask>', 'request_queue_size': 5, 'ssl_certificate': '', 'cronjob': False, 'numthreads': None, 'quiet': False, 'interfaces': None, 'minthreads': None, 'timeout': 10, 'plain': False, 'nobanner': False}>"
p1985
asbasbasbag57
(g73
g59
NtRp1986
(dp1987
g62
(dp1988
sg71
g1896
sg64
(lp1989
g57
(g78
g59
NtRp1990
(dp1991
g62
(dp1992
g82
g83
ssg71
g1986
sg64
(lp1993
g938
asbag57
(g78
g59
NtRp1994
(dp1995
g62
(dp1996
g89
g90
ssg71
g1986
sg64
(lp1997
S':'
asbag57
(g78
g59
NtRp1998
(dp1999
g62
(dp2000
sg71
g1986
sg64
(lp2001
g57
(g58
g59
NtRp2002
(dp2003
g62
(dp2004
g70
I4
ssg71
g1998
sg64
(lp2005
S'set([])'
p2006
asbasbasbag57
(g73
g59
NtRp2007
(dp2008
g62
(dp2009
sg71
g1896
sg64
(lp2010
g57
(g78
g59
NtRp2011
(dp2012
g62
(dp2013
g82
g83
ssg71
g2007
sg64
(lp2014
g960
asbag57
(g78
g59
NtRp2015
(dp2016
g62
(dp2017
g89
g90
ssg71
g2007
sg64
(lp2018
S':'
asbag57
(g78
g59
NtRp2019
(dp2020
g62
(dp2021
sg71
g2007
sg64
(lp2022
g57
(g58
g59
NtRp2023
(dp2024
g62
(dp2025
g70
I4
ssg71
g2019
sg64
(lp2026
g100
asbasbasbag57
(g73
g59
NtRp2027
(dp2028
g62
(dp2029
sg71
g1896
sg64
(lp2030
g57
(g78
g59
NtRp2031
(dp2032
g62
(dp2033
g82
g83
ssg71
g2027
sg64
(lp2034
g981
asbag57
(g78
g59
NtRp2035
(dp2036
g62
(dp2037
g89
g90
ssg71
g2027
sg64
(lp2038
S':'
asbag57
(g78
g59
NtRp2039
(dp2040
g62
(dp2041
sg71
g2027
sg64
(lp2042
g57
(g58
g59
NtRp2043
(dp2044
g62
(dp2045
g70
I4
ssg71
g2039
sg64
(lp2046
g994
asbasbasbag57
(g73
g59
NtRp2047
(dp2048
g62
(dp2049
sg71
g1896
sg64
(lp2050
g57
(g78
g59
NtRp2051
(dp2052
g62
(dp2053
g82
g83
ssg71
g2047
sg64
(lp2054
g1179
asbag57
(g78
g59
NtRp2055
(dp2056
g62
(dp2057
g89
g90
ssg71
g2047
sg64
(lp2058
S':'
asbag57
(g78
g59
NtRp2059
(dp2060
g62
(dp2061
sg71
g2047
sg64
(lp2062
g57
(g58
g59
NtRp2063
(dp2064
g62
(dp2065
g70
I4
ssg71
g2059
sg64
(lp2066
g100
asbasbasbag57
(g73
g59
NtRp2067
(dp2068
g62
(dp2069
sg71
g1896
sg64
(lp2070
g57
(g78
g59
NtRp2071
(dp2072
g62
(dp2073
g82
g83
ssg71
g2067
sg64
(lp2074
g1200
asbag57
(g78
g59
NtRp2075
(dp2076
g62
(dp2077
g89
g90
ssg71
g2067
sg64
(lp2078
S':'
asbag57
(g78
g59
NtRp2079
(dp2080
g62
(dp2081
sg71
g2067
sg64
(lp2082
g57
(g58
g59
NtRp2083
(dp2084
g62
(dp2085
g70
I4
ssg71
g2079
sg64
(lp2086
g100
asbasbasbag57
(g73
g59
NtRp2087
(dp2088
g62
(dp2089
sg71
g1896
sg64
(lp2090
g57
(g78
g59
NtRp2091
(dp2092
g62
(dp2093
g82
g83
ssg71
g2087
sg64
(lp2094
g1439
asbag57
(g78
g59
NtRp2095
(dp2096
g62
(dp2097
g89
g90
ssg71
g2087
sg64
(lp2098
S':'
asbag57
(g78
g59
NtRp2099
(dp2100
g62
(dp2101
sg71
g2087
sg64
(lp2102
g57
(g58
g59
NtRp2103
(dp2104
g62
(dp2105
g70
I4
ssg71
g2099
sg64
(lp2106
g1452
asbasbasbag57
(g73
g59
NtRp2107
(dp2108
g62
(dp2109
sg71
g1896
sg64
(lp2110
g57
(g78
g59
NtRp2111
(dp2112
g62
(dp2113
g82
g83
ssg71
g2107
sg64
(lp2114
g1482
asbag57
(g78
g59
NtRp2115
(dp2116
g62
(dp2117
g89
g90
ssg71
g2107
sg64
(lp2118
S':'
asbag57
(g78
g59
NtRp2119
(dp2120
g62
(dp2121
sg71
g2107
sg64
(lp2122
g57
(g58
g59
NtRp2123
(dp2124
g62
(dp2125
g70
I4
ssg71
g2119
sg64
(lp2126
g57
(g66
g59
NtRp2127
(dp2128
g62
(dp2129
g70
I3
ssg71
Nsg64
(lp2130
g57
(g73
g59
NtRp2131
(dp2132
g62
(dp2133
sg71
g2127
sg64
(lp2134
g57
(g78
g59
NtRp2135
(dp2136
g62
(dp2137
sg71
g2131
sg64
(lp2138
g57
(g58
g59
NtRp2139
(dp2140
g62
(dp2141
g70
I3
ssg71
g2135
sg64
(lp2142
S'1'
asbasbasbag57
(g73
g59
NtRp2143
(dp2144
g62
(dp2145
sg71
g2127
sg64
(lp2146
g57
(g78
g59
NtRp2147
(dp2148
g62
(dp2149
sg71
g2143
sg64
(lp2150
g57
(g58
g59
NtRp2151
(dp2152
g62
(dp2153
g70
I3
ssg71
g2147
sg64
(lp2154
S'99'
p2155
asbasbasbag57
(g73
g59
NtRp2156
(dp2157
g62
(dp2158
sg71
g2127
sg64
(lp2159
g57
(g78
g59
NtRp2160
(dp2161
g62
(dp2162
sg71
g2156
sg64
(lp2163
g57
(g58
g59
NtRp2164
(dp2165
g62
(dp2166
g70
I3
ssg71
g2160
sg64
(lp2167
S'7'
asbasbasbag57
(g73
g59
NtRp2168
(dp2169
g62
(dp2170
sg71
g2127
sg64
(lp2171
g57
(g78
g59
NtRp2172
(dp2173
g62
(dp2174
sg71
g2168
sg64
(lp2175
g57
(g58
g59
NtRp2176
(dp2177
g62
(dp2178
g70
I3
ssg71
g2172
sg64
(lp2179
S'datetime.datetime(2012, 3, 4, 22, 12, 8)'
p2180
asbasbasbag57
(g73
g59
NtRp2181
(dp2182
g62
(dp2183
sg71
g2127
sg64
(lp2184
g57
(g78
g59
NtRp2185
(dp2186
g62
(dp2187
sg71
g2181
sg64
(lp2188
g57
(g58
g59
NtRp2189
(dp2190
g62
(dp2191
g70
I3
ssg71
g2185
sg64
(lp2192
g1561
asbasbasbasbasbasbasbasbasbasbasbag57
(g73
g59
NtRp2193
(dp2194
g62
(dp2195
sg71
g67
sg64
(lp2196
g57
(g78
g59
NtRp2197
(dp2198
g62
(dp2199
g82
g83
ssg71
g2193
sg64
(lp2200
S'is_https'
p2201
asbag57
(g78
g59
NtRp2202
(dp2203
g62
(dp2204
g89
g90
ssg71
g2193
sg64
(lp2205
S':'
asbag57
(g78
g59
NtRp2206
(dp2207
g62
(dp2208
sg71
g2193
sg64
(lp2209
g57
(g58
g59
NtRp2210
(dp2211
g62
(dp2212
g70
I5
ssg71
g2206
sg64
(lp2213
g100
asbasbasbag57
(g73
g59
NtRp2214
(dp2215
g62
(dp2216
sg71
g67
sg64
(lp2217
g57
(g78
g59
NtRp2218
(dp2219
g62
(dp2220
g82
g83
ssg71
g2214
sg64
(lp2221
S'is_local'
p2222
asbag57
(g78
g59
NtRp2223
(dp2224
g62
(dp2225
g89
g90
ssg71
g2214
sg64
(lp2226
S':'
asbag57
(g78
g59
NtRp2227
(dp2228
g62
(dp2229
sg71
g2214
sg64
(lp2230
g57
(g58
g59
NtRp2231
(dp2232
g62
(dp2233
g70
I5
ssg71
g2227
sg64
(lp2234
g1670
asbasbasbag57
(g73
g59
NtRp2235
(dp2236
g62
(dp2237
sg71
g67
sg64
(lp2238
g57
(g78
g59
NtRp2239
(dp2240
g62
(dp2241
g82
g83
ssg71
g2235
sg64
(lp2242
S'is_restful'
p2243
asbag57
(g78
g59
NtRp2244
(dp2245
g62
(dp2246
g89
g90
ssg71
g2235
sg64
(lp2247
S':'
asbag57
(g78
g59
NtRp2248
(dp2249
g62
(dp2250
sg71
g2235
sg64
(lp2251
g57
(g58
g59
NtRp2252
(dp2253
g62
(dp2254
g70
I5
ssg71
g2248
sg64
(lp2255
g100
asbasbasbag57
(g73
g59
NtRp2256
(dp2257
g62
(dp2258
sg71
g67
sg64
(lp2259
g57
(g78
g59
NtRp2260
(dp2261
g62
(dp2262
g82
g83
ssg71
g2256
sg64
(lp2263
S'now'
p2264
asbag57
(g78
g59
NtRp2265
(dp2266
g62
(dp2267
g89
g90
ssg71
g2256
sg64
(lp2268
S':'
asbag57
(g78
g59
NtRp2269
(dp2270
g62
(dp2271
sg71
g2256
sg64
(lp2272
g57
(g58
g59
NtRp2273
(dp2274
g62
(dp2275
g70
I5
ssg71
g2269
sg64
(lp2276
S'datetime.datetime(2015, 11, 16, 3, 23, 35, 711218)'
p2277
asbasbasbag57
(g73
g59
NtRp2278
(dp2279
g62
(dp2280
sg71
g67
sg64
(lp2281
g57
(g78
g59
NtRp2282
(dp2283
g62
(dp2284
g82
g83
ssg71
g2278
sg64
(lp2285
S'post_vars'
p2286
asbag57
(g78
g59
NtRp2287
(dp2288
g62
(dp2289
g89
g90
ssg71
g2278
sg64
(lp2290
S':'
asbag57
(g78
g59
NtRp2291
(dp2292
g62
(dp2293
sg71
g2278
sg64
(lp2294
g57
(g58
g59
NtRp2295
(dp2296
g62
(dp2297
g70
I5
ssg71
g2291
sg64
(lp2298
g57
(g66
g59
NtRp2299
(dp2300
g62
(dp2301
g70
I4
ssg71
Nsg64
(lp2302
sbasbasbasbag57
(g73
g59
NtRp2303
(dp2304
g62
(dp2305
sg71
g67
sg64
(lp2306
g57
(g78
g59
NtRp2307
(dp2308
g62
(dp2309
g82
g83
ssg71
g2303
sg64
(lp2310
S'raw_args'
p2311
asbag57
(g78
g59
NtRp2312
(dp2313
g62
(dp2314
g89
g90
ssg71
g2303
sg64
(lp2315
S':'
asbag57
(g78
g59
NtRp2316
(dp2317
g62
(dp2318
sg71
g2303
sg64
(lp2319
g57
(g58
g59
NtRp2320
(dp2321
g62
(dp2322
g70
I5
ssg71
g2316
sg64
(lp2323
g159
asbasbasbag57
(g73
g59
NtRp2324
(dp2325
g62
(dp2326
sg71
g67
sg64
(lp2327
g57
(g78
g59
NtRp2328
(dp2329
g62
(dp2330
g82
g83
ssg71
g2324
sg64
(lp2331
S'url'
p2332
asbag57
(g78
g59
NtRp2333
(dp2334
g62
(dp2335
g89
g90
ssg71
g2324
sg64
(lp2336
S':'
asbag57
(g78
g59
NtRp2337
(dp2338
g62
(dp2339
sg71
g2324
sg64
(lp2340
g57
(g58
g59
NtRp2341
(dp2342
g62
(dp2343
g70
I5
ssg71
g2337
sg64
(lp2344
S'/IIITCourier/default/searchPage/csv'
p2345
asbasbasbag57
(g73
g59
NtRp2346
(dp2347
g62
(dp2348
sg71
g67
sg64
(lp2349
g57
(g78
g59
NtRp2350
(dp2351
g62
(dp2352
g82
g83
ssg71
g2346
sg64
(lp2353
S'utcnow'
p2354
asbag57
(g78
g59
NtRp2355
(dp2356
g62
(dp2357
g89
g90
ssg71
g2346
sg64
(lp2358
S':'
asbag57
(g78
g59
NtRp2359
(dp2360
g62
(dp2361
sg71
g2346
sg64
(lp2362
g57
(g58
g59
NtRp2363
(dp2364
g62
(dp2365
g70
I5
ssg71
g2359
sg64
(lp2366
S'datetime.datetime(2015, 11, 15, 21, 53, 35, 711303)'
p2367
asbasbasbag57
(g73
g59
NtRp2368
(dp2369
g62
(dp2370
sg71
g67
sg64
(lp2371
g57
(g78
g59
NtRp2372
(dp2373
g62
(dp2374
g82
g83
ssg71
g2368
sg64
(lp2375
S'uuid'
p2376
asbag57
(g78
g59
NtRp2377
(dp2378
g62
(dp2379
g89
g90
ssg71
g2368
sg64
(lp2380
S':'
asbag57
(g78
g59
NtRp2381
(dp2382
g62
(dp2383
sg71
g2368
sg64
(lp2384
g57
(g58
g59
NtRp2385
(dp2386
g62
(dp2387
g70
I5
ssg71
g2381
sg64
(lp2388
S'IIITCourier/127.0.0.1.2015-11-16.03-23-35.f1ec4c7f-806f-4984-a056-5b0647a24346'
p2389
asbasbasbag57
(g73
g59
NtRp2390
(dp2391
g62
(dp2392
sg71
g67
sg64
(lp2393
g57
(g78
g59
NtRp2394
(dp2395
g62
(dp2396
g82
g83
ssg71
g2390
sg64
(lp2397
S'vars'
p2398
asbag57
(g78
g59
NtRp2399
(dp2400
g62
(dp2401
g89
g90
ssg71
g2390
sg64
(lp2402
S':'
asbag57
(g78
g59
NtRp2403
(dp2404
g62
(dp2405
sg71
g2390
sg64
(lp2406
g57
(g58
g59
NtRp2407
(dp2408
g62
(dp2409
g70
I5
ssg71
g2403
sg64
(lp2410
g57
(g66
g59
NtRp2411
(dp2412
g62
(dp2413
g70
I4
ssg71
Nsg64
(lp2414
g57
(g73
g59
NtRp2415
(dp2416
g62
(dp2417
sg71
g2411
sg64
(lp2418
g57
(g78
g59
NtRp2419
(dp2420
g62
(dp2421
g82
g83
ssg71
g2415
sg64
(lp2422
g1862
asbag57
(g78
g59
NtRp2423
(dp2424
g62
(dp2425
g89
g90
ssg71
g2415
sg64
(lp2426
S':'
asbag57
(g78
g59
NtRp2427
(dp2428
g62
(dp2429
sg71
g2415
sg64
(lp2430
g57
(g58
g59
NtRp2431
(dp2432
g62
(dp2433
g70
I4
ssg71
g2427
sg64
(lp2434
S''
asbasbasbasbasbasbasbag57
(g73
g59
NtRp2435
(dp2436
g62
(dp2437
sg71
g67
sg64
(lp2438
g57
(g78
g59
NtRp2439
(dp2440
g62
(dp2441
g82
g83
ssg71
g2435
sg64
(lp2442
S'wsgi'
p2443
asbag57
(g78
g59
NtRp2444
(dp2445
g62
(dp2446
g89
g90
ssg71
g2435
sg64
(lp2447
S':'
asbag57
(g78
g59
NtRp2448
(dp2449
g62
(dp2450
sg71
g2435
sg64
(lp2451
g57
(g58
g59
NtRp2452
(dp2453
g62
(dp2454
g70
I5
ssg71
g2448
sg64
(lp2455
g57
(g66
g59
NtRp2456
(dp2457
g62
(dp2458
g70
I4
ssg71
Nsg64
(lp2459
g57
(g73
g59
NtRp2460
(dp2461
g62
(dp2462
sg71
g2456
sg64
(lp2463
g57
(g78
g59
NtRp2464
(dp2465
g62
(dp2466
g82
g83
ssg71
g2460
sg64
(lp2467
S'environ'
p2468
asbag57
(g78
g59
NtRp2469
(dp2470
g62
(dp2471
g89
g90
ssg71
g2460
sg64
(lp2472
S':'
asbag57
(g78
g59
NtRp2473
(dp2474
g62
(dp2475
sg71
g2460
sg64
(lp2476
g57
(g58
g59
NtRp2477
(dp2478
g62
(dp2479
g70
I4
ssg71
g2473
sg64
(lp2480
g57
(g66
g59
NtRp2481
(dp2482
g62
(dp2483
g70
I3
ssg71
Nsg64
(lp2484
g57
(g73
g59
NtRp2485
(dp2486
g62
(dp2487
sg71
g2481
sg64
(lp2488
g57
(g78
g59
NtRp2489
(dp2490
g62
(dp2491
g82
g83
ssg71
g2485
sg64
(lp2492
S'HTTP_ACCEPT'
p2493
asbag57
(g78
g59
NtRp2494
(dp2495
g62
(dp2496
g89
g90
ssg71
g2485
sg64
(lp2497
S':'
asbag57
(g78
g59
NtRp2498
(dp2499
g62
(dp2500
sg71
g2485
sg64
(lp2501
g57
(g58
g59
NtRp2502
(dp2503
g62
(dp2504
g70
I3
ssg71
g2498
sg64
(lp2505
g1016
asbasbasbag57
(g73
g59
NtRp2506
(dp2507
g62
(dp2508
sg71
g2481
sg64
(lp2509
g57
(g78
g59
NtRp2510
(dp2511
g62
(dp2512
g82
g83
ssg71
g2506
sg64
(lp2513
S'HTTP_ACCEPT_ENCODING'
p2514
asbag57
(g78
g59
NtRp2515
(dp2516
g62
(dp2517
g89
g90
ssg71
g2506
sg64
(lp2518
S':'
asbag57
(g78
g59
NtRp2519
(dp2520
g62
(dp2521
sg71
g2506
sg64
(lp2522
g57
(g58
g59
NtRp2523
(dp2524
g62
(dp2525
g70
I3
ssg71
g2519
sg64
(lp2526
g1038
asbasbasbag57
(g73
g59
NtRp2527
(dp2528
g62
(dp2529
sg71
g2481
sg64
(lp2530
g57
(g78
g59
NtRp2531
(dp2532
g62
(dp2533
g82
g83
ssg71
g2527
sg64
(lp2534
S'HTTP_ACCEPT_LANGUAGE'
p2535
asbag57
(g78
g59
NtRp2536
(dp2537
g62
(dp2538
g89
g90
ssg71
g2527
sg64
(lp2539
S':'
asbag57
(g78
g59
NtRp2540
(dp2541
g62
(dp2542
sg71
g2527
sg64
(lp2543
g57
(g58
g59
NtRp2544
(dp2545
g62
(dp2546
g70
I3
ssg71
g2540
sg64
(lp2547
g1060
asbasbasbag57
(g73
g59
NtRp2548
(dp2549
g62
(dp2550
sg71
g2481
sg64
(lp2551
g57
(g78
g59
NtRp2552
(dp2553
g62
(dp2554
g82
g83
ssg71
g2548
sg64
(lp2555
S'HTTP_CONNECTION'
p2556
asbag57
(g78
g59
NtRp2557
(dp2558
g62
(dp2559
g89
g90
ssg71
g2548
sg64
(lp2560
S':'
asbag57
(g78
g59
NtRp2561
(dp2562
g62
(dp2563
sg71
g2548
sg64
(lp2564
g57
(g58
g59
NtRp2565
(dp2566
g62
(dp2567
g70
I3
ssg71
g2561
sg64
(lp2568
g1082
asbasbasbag57
(g73
g59
NtRp2569
(dp2570
g62
(dp2571
sg71
g2481
sg64
(lp2572
g57
(g78
g59
NtRp2573
(dp2574
g62
(dp2575
g82
g83
ssg71
g2569
sg64
(lp2576
S'HTTP_COOKIE'
p2577
asbag57
(g78
g59
NtRp2578
(dp2579
g62
(dp2580
g89
g90
ssg71
g2569
sg64
(lp2581
S':'
asbag57
(g78
g59
NtRp2582
(dp2583
g62
(dp2584
sg71
g2569
sg64
(lp2585
g57
(g58
g59
NtRp2586
(dp2587
g62
(dp2588
g70
I3
ssg71
g2582
sg64
(lp2589
g1104
asbasbasbag57
(g73
g59
NtRp2590
(dp2591
g62
(dp2592
sg71
g2481
sg64
(lp2593
g57
(g78
g59
NtRp2594
(dp2595
g62
(dp2596
g82
g83
ssg71
g2590
sg64
(lp2597
S'HTTP_HOST'
p2598
asbag57
(g78
g59
NtRp2599
(dp2600
g62
(dp2601
g89
g90
ssg71
g2590
sg64
(lp2602
S':'
asbag57
(g78
g59
NtRp2603
(dp2604
g62
(dp2605
sg71
g2590
sg64
(lp2606
g57
(g58
g59
NtRp2607
(dp2608
g62
(dp2609
g70
I3
ssg71
g2603
sg64
(lp2610
g1126
asbasbasbag57
(g73
g59
NtRp2611
(dp2612
g62
(dp2613
sg71
g2481
sg64
(lp2614
g57
(g78
g59
NtRp2615
(dp2616
g62
(dp2617
g82
g83
ssg71
g2611
sg64
(lp2618
S'HTTP_REFERER'
p2619
asbag57
(g78
g59
NtRp2620
(dp2621
g62
(dp2622
g89
g90
ssg71
g2611
sg64
(lp2623
S':'
asbag57
(g78
g59
NtRp2624
(dp2625
g62
(dp2626
sg71
g2611
sg64
(lp2627
g57
(g58
g59
NtRp2628
(dp2629
g62
(dp2630
g70
I3
ssg71
g2624
sg64
(lp2631
g1148
asbasbasbag57
(g73
g59
NtRp2632
(dp2633
g62
(dp2634
sg71
g2481
sg64
(lp2635
g57
(g78
g59
NtRp2636
(dp2637
g62
(dp2638
g82
g83
ssg71
g2632
sg64
(lp2639
S'HTTP_USER_AGENT'
p2640
asbag57
(g78
g59
NtRp2641
(dp2642
g62
(dp2643
g89
g90
ssg71
g2632
sg64
(lp2644
S':'
asbag57
(g78
g59
NtRp2645
(dp2646
g62
(dp2647
sg71
g2632
sg64
(lp2648
g57
(g58
g59
NtRp2649
(dp2650
g62
(dp2651
g70
I3
ssg71
g2645
sg64
(lp2652
g1170
asbasbasbag57
(g73
g59
NtRp2653
(dp2654
g62
(dp2655
sg71
g2481
sg64
(lp2656
g57
(g78
g59
NtRp2657
(dp2658
g62
(dp2659
g82
g83
ssg71
g2653
sg64
(lp2660
S'PATH_INFO'
p2661
asbag57
(g78
g59
NtRp2662
(dp2663
g62
(dp2664
g89
g90
ssg71
g2653
sg64
(lp2665
S':'
asbag57
(g78
g59
NtRp2666
(dp2667
g62
(dp2668
sg71
g2653
sg64
(lp2669
g57
(g58
g59
NtRp2670
(dp2671
g62
(dp2672
g70
I3
ssg71
g2666
sg64
(lp2673
g1234
asbasbasbag57
(g73
g59
NtRp2674
(dp2675
g62
(dp2676
sg71
g2481
sg64
(lp2677
g57
(g78
g59
NtRp2678
(dp2679
g62
(dp2680
g82
g83
ssg71
g2674
sg64
(lp2681
S'QUERY_STRING'
p2682
asbag57
(g78
g59
NtRp2683
(dp2684
g62
(dp2685
g89
g90
ssg71
g2674
sg64
(lp2686
S':'
asbag57
(g78
g59
NtRp2687
(dp2688
g62
(dp2689
sg71
g2674
sg64
(lp2690
g57
(g58
g59
NtRp2691
(dp2692
g62
(dp2693
g70
I3
ssg71
g2687
sg64
(lp2694
g1256
asbasbasbag57
(g73
g59
NtRp2695
(dp2696
g62
(dp2697
sg71
g2481
sg64
(lp2698
g57
(g78
g59
NtRp2699
(dp2700
g62
(dp2701
g82
g83
ssg71
g2695
sg64
(lp2702
S'REMOTE_ADDR'
p2703
asbag57
(g78
g59
NtRp2704
(dp2705
g62
(dp2706
g89
g90
ssg71
g2695
sg64
(lp2707
S':'
asbag57
(g78
g59
NtRp2708
(dp2709
g62
(dp2710
sg71
g2695
sg64
(lp2711
g57
(g58
g59
NtRp2712
(dp2713
g62
(dp2714
g70
I3
ssg71
g2708
sg64
(lp2715
g203
asbasbasbag57
(g73
g59
NtRp2716
(dp2717
g62
(dp2718
sg71
g2481
sg64
(lp2719
g57
(g78
g59
NtRp2720
(dp2721
g62
(dp2722
g82
g83
ssg71
g2716
sg64
(lp2723
S'REMOTE_PORT'
p2724
asbag57
(g78
g59
NtRp2725
(dp2726
g62
(dp2727
g89
g90
ssg71
g2716
sg64
(lp2728
S':'
asbag57
(g78
g59
NtRp2729
(dp2730
g62
(dp2731
sg71
g2716
sg64
(lp2732
g57
(g58
g59
NtRp2733
(dp2734
g62
(dp2735
g70
I3
ssg71
g2729
sg64
(lp2736
g1299
asbasbasbag57
(g73
g59
NtRp2737
(dp2738
g62
(dp2739
sg71
g2481
sg64
(lp2740
g57
(g78
g59
NtRp2741
(dp2742
g62
(dp2743
g82
g83
ssg71
g2737
sg64
(lp2744
S'REQUEST_METHOD'
p2745
asbag57
(g78
g59
NtRp2746
(dp2747
g62
(dp2748
g89
g90
ssg71
g2737
sg64
(lp2749
S':'
asbag57
(g78
g59
NtRp2750
(dp2751
g62
(dp2752
sg71
g2737
sg64
(lp2753
g57
(g58
g59
NtRp2754
(dp2755
g62
(dp2756
g70
I3
ssg71
g2750
sg64
(lp2757
g1321
asbasbasbag57
(g73
g59
NtRp2758
(dp2759
g62
(dp2760
sg71
g2481
sg64
(lp2761
g57
(g78
g59
NtRp2762
(dp2763
g62
(dp2764
g82
g83
ssg71
g2758
sg64
(lp2765
S'SCRIPT_NAME'
p2766
asbag57
(g78
g59
NtRp2767
(dp2768
g62
(dp2769
g89
g90
ssg71
g2758
sg64
(lp2770
S':'
asbag57
(g78
g59
NtRp2771
(dp2772
g62
(dp2773
sg71
g2758
sg64
(lp2774
g57
(g58
g59
NtRp2775
(dp2776
g62
(dp2777
g70
I3
ssg71
g2771
sg64
(lp2778
S''
asbasbasbag57
(g73
g59
NtRp2779
(dp2780
g62
(dp2781
sg71
g2481
sg64
(lp2782
g57
(g78
g59
NtRp2783
(dp2784
g62
(dp2785
g82
g83
ssg71
g2779
sg64
(lp2786
S'SERVER_NAME'
p2787
asbag57
(g78
g59
NtRp2788
(dp2789
g62
(dp2790
g89
g90
ssg71
g2779
sg64
(lp2791
S':'
asbag57
(g78
g59
NtRp2792
(dp2793
g62
(dp2794
sg71
g2779
sg64
(lp2795
g57
(g58
g59
NtRp2796
(dp2797
g62
(dp2798
g70
I3
ssg71
g2792
sg64
(lp2799
g1364
asbasbasbag57
(g73
g59
NtRp2800
(dp2801
g62
(dp2802
sg71
g2481
sg64
(lp2803
g57
(g78
g59
NtRp2804
(dp2805
g62
(dp2806
g82
g83
ssg71
g2800
sg64
(lp2807
S'SERVER_PORT'
p2808
asbag57
(g78
g59
NtRp2809
(dp2810
g62
(dp2811
g89
g90
ssg71
g2800
sg64
(lp2812
S':'
asbag57
(g78
g59
NtRp2813
(dp2814
g62
(dp2815
sg71
g2800
sg64
(lp2816
g57
(g58
g59
NtRp2817
(dp2818
g62
(dp2819
g70
I3
ssg71
g2813
sg64
(lp2820
g1386
asbasbasbag57
(g73
g59
NtRp2821
(dp2822
g62
(dp2823
sg71
g2481
sg64
(lp2824
g57
(g78
g59
NtRp2825
(dp2826
g62
(dp2827
g82
g83
ssg71
g2821
sg64
(lp2828
S'SERVER_PROTOCOL'
p2829
asbag57
(g78
g59
NtRp2830
(dp2831
g62
(dp2832
g89
g90
ssg71
g2821
sg64
(lp2833
S':'
asbag57
(g78
g59
NtRp2834
(dp2835
g62
(dp2836
sg71
g2821
sg64
(lp2837
g57
(g58
g59
NtRp2838
(dp2839
g62
(dp2840
g70
I3
ssg71
g2834
sg64
(lp2841
g1408
asbasbasbag57
(g73
g59
NtRp2842
(dp2843
g62
(dp2844
sg71
g2481
sg64
(lp2845
g57
(g78
g59
NtRp2846
(dp2847
g62
(dp2848
g82
g83
ssg71
g2842
sg64
(lp2849
S'SERVER_SOFTWARE'
p2850
asbag57
(g78
g59
NtRp2851
(dp2852
g62
(dp2853
g89
g90
ssg71
g2842
sg64
(lp2854
S':'
asbag57
(g78
g59
NtRp2855
(dp2856
g62
(dp2857
sg71
g2842
sg64
(lp2858
g57
(g58
g59
NtRp2859
(dp2860
g62
(dp2861
g70
I3
ssg71
g2855
sg64
(lp2862
g1430
asbasbasbag57
(g73
g59
NtRp2863
(dp2864
g62
(dp2865
sg71
g2481
sg64
(lp2866
g57
(g78
g59
NtRp2867
(dp2868
g62
(dp2869
g82
g83
ssg71
g2863
sg64
(lp2870
S'wsgi.errors'
p2871
asbag57
(g78
g59
NtRp2872
(dp2873
g62
(dp2874
g89
g90
ssg71
g2863
sg64
(lp2875
S':'
asbag57
(g78
g59
NtRp2876
(dp2877
g62
(dp2878
sg71
g2863
sg64
(lp2879
g57
(g58
g59
NtRp2880
(dp2881
g62
(dp2882
g70
I3
ssg71
g2876
sg64
(lp2883
S"<open file '<stderr>', mode 'w' at 0x7fa71a3bc1e0>"
p2884
asbasbasbag57
(g73
g59
NtRp2885
(dp2886
g62
(dp2887
sg71
g2481
sg64
(lp2888
g57
(g78
g59
NtRp2889
(dp2890
g62
(dp2891
g82
g83
ssg71
g2885
sg64
(lp2892
S'wsgi.file_wrapper'
p2893
asbag57
(g78
g59
NtRp2894
(dp2895
g62
(dp2896
g89
g90
ssg71
g2885
sg64
(lp2897
S':'
asbag57
(g78
g59
NtRp2898
(dp2899
g62
(dp2900
sg71
g2885
sg64
(lp2901
g57
(g58
g59
NtRp2902
(dp2903
g62
(dp2904
g70
I3
ssg71
g2898
sg64
(lp2905
S'<class wsgiref.util.FileWrapper at 0x7fa715d59258>'
p2906
asbasbasbag57
(g73
g59
NtRp2907
(dp2908
g62
(dp2909
sg71
g2481
sg64
(lp2910
g57
(g78
g59
NtRp2911
(dp2912
g62
(dp2913
g82
g83
ssg71
g2907
sg64
(lp2914
S'wsgi.input'
p2915
asbag57
(g78
g59
NtRp2916
(dp2917
g62
(dp2918
g89
g90
ssg71
g2907
sg64
(lp2919
S':'
asbag57
(g78
g59
NtRp2920
(dp2921
g62
(dp2922
sg71
g2907
sg64
(lp2923
g57
(g58
g59
NtRp2924
(dp2925
g62
(dp2926
g70
I3
ssg71
g2920
sg64
(lp2927
S'<cStringIO.StringO object at 0x7fa6cc2a21f0>'
p2928
asbasbasbag57
(g73
g59
NtRp2929
(dp2930
g62
(dp2931
sg71
g2481
sg64
(lp2932
g57
(g78
g59
NtRp2933
(dp2934
g62
(dp2935
g82
g83
ssg71
g2929
sg64
(lp2936
S'wsgi.multiprocess'
p2937
asbag57
(g78
g59
NtRp2938
(dp2939
g62
(dp2940
g89
g90
ssg71
g2929
sg64
(lp2941
S':'
asbag57
(g78
g59
NtRp2942
(dp2943
g62
(dp2944
sg71
g2929
sg64
(lp2945
g57
(g58
g59
NtRp2946
(dp2947
g62
(dp2948
g70
I3
ssg71
g2942
sg64
(lp2949
g100
asbasbasbag57
(g73
g59
NtRp2950
(dp2951
g62
(dp2952
sg71
g2481
sg64
(lp2953
g57
(g78
g59
NtRp2954
(dp2955
g62
(dp2956
g82
g83
ssg71
g2950
sg64
(lp2957
S'wsgi.multithread'
p2958
asbag57
(g78
g59
NtRp2959
(dp2960
g62
(dp2961
g89
g90
ssg71
g2950
sg64
(lp2962
S':'
asbag57
(g78
g59
NtRp2963
(dp2964
g62
(dp2965
sg71
g2950
sg64
(lp2966
g57
(g58
g59
NtRp2967
(dp2968
g62
(dp2969
g70
I3
ssg71
g2963
sg64
(lp2970
g1670
asbasbasbag57
(g73
g59
NtRp2971
(dp2972
g62
(dp2973
sg71
g2481
sg64
(lp2974
g57
(g78
g59
NtRp2975
(dp2976
g62
(dp2977
g82
g83
ssg71
g2971
sg64
(lp2978
S'wsgi.run_once'
p2979
asbag57
(g78
g59
NtRp2980
(dp2981
g62
(dp2982
g89
g90
ssg71
g2971
sg64
(lp2983
S':'
asbag57
(g78
g59
NtRp2984
(dp2985
g62
(dp2986
sg71
g2971
sg64
(lp2987
g57
(g58
g59
NtRp2988
(dp2989
g62
(dp2990
g70
I3
ssg71
g2984
sg64
(lp2991
g100
asbasbasbag57
(g73
g59
NtRp2992
(dp2993
g62
(dp2994
sg71
g2481
sg64
(lp2995
g57
(g78
g59
NtRp2996
(dp2997
g62
(dp2998
g82
g83
ssg71
g2992
sg64
(lp2999
S'wsgi.url_scheme'
p3000
asbag57
(g78
g59
NtRp3001
(dp3002
g62
(dp3003
g89
g90
ssg71
g2992
sg64
(lp3004
S':'
asbag57
(g78
g59
NtRp3005
(dp3006
g62
(dp3007
sg71
g2992
sg64
(lp3008
g57
(g58
g59
NtRp3009
(dp3010
g62
(dp3011
g70
I3
ssg71
g3005
sg64
(lp3012
g1713
asbasbasbag57
(g73
g59
NtRp3013
(dp3014
g62
(dp3015
sg71
g2481
sg64
(lp3016
g57
(g78
g59
NtRp3017
(dp3018
g62
(dp3019
g82
g83
ssg71
g3013
sg64
(lp3020
S'wsgi.version'
p3021
asbag57
(g78
g59
NtRp3022
(dp3023
g62
(dp3024
g89
g90
ssg71
g3013
sg64
(lp3025
S':'
asbag57
(g78
g59
NtRp3026
(dp3027
g62
(dp3028
sg71
g3013
sg64
(lp3029
g57
(g58
g59
NtRp3030
(dp3031
g62
(dp3032
g70
I3
ssg71
g3026
sg64
(lp3033
S'1'
asbasbasbasbasbasbasbasbasbasbasbasbasbsS'frames'
p3034
(lp3035
(dp3036
S'file'
p3037
S'/usr/lib/pymodules/python2.7/gluon/restricted.py'
p3038
sS'dump'
p3039
(dp3040
S'environment'
p3041
S"{'A': <class 'gluon.html.A'>, 'Auth': <class 'gluon.tools.Auth'>, 'B': <class 'gluon.html.B'>, 'BEAUTIFY': <class 'gluon.html.BEAUTIFY'>, 'BODY': <class 'gluon.html.BODY'>, 'BR': <class 'gluon.html.BR'>, 'BUTTON': <class 'gluon.html.BUTTON'>, 'CAT': <class 'gluon.html.CAT'>, 'CENTER': <class 'gluon.html.CENTER'>, 'CLEANUP': <class 'gluon.validators.CLEANUP'>, ...}"
p3042
sS'ccode'
p3043
S'<code object <module> at 0x7fa6c7806a30, file "/...ons/IIITCourier/controllers/default.py", line 11>'
p3044
ssS'lnum'
p3045
I205
sS'lines'
p3046
(dp3047
I200
S'    try:'
p3048
sI201
S'        if type(code) == types.CodeType:'
p3049
sI202
S'            ccode = code'
p3050
sI203
S'        else:'
p3051
sI204
S'            ccode = compile2(code,layer)'
p3052
sI205
S'        exec ccode in environment'
p3053
sI206
S'    except HTTP:'
p3054
sI207
S'        raise'
p3055
sI208
S'    except RestrictedError:'
p3056
sI209
S'        # do not encapsulate (obfuscate) the original RestrictedError'
p3057
ssS'call'
p3058
S"(code='# -*- coding: utf-8 -*-\\n# this file is released ...())\\n\\nresponse._vars=response._caller(searchPage)\\n', environment={'A': <class 'gluon.html.A'>, 'Auth': <class 'gluon.tools.Auth'>, 'B': <class 'gluon.html.B'>, 'BEAUTIFY': <class 'gluon.html.BEAUTIFY'>, 'BODY': <class 'gluon.html.BODY'>, 'BR': <class 'gluon.html.BR'>, 'BUTTON': <class 'gluon.html.BUTTON'>, 'CAT': <class 'gluon.html.CAT'>, 'CENTER': <class 'gluon.html.CENTER'>, 'CLEANUP': <class 'gluon.validators.CLEANUP'>, ...}, layer='/home/game_boy/web2py/applications/IIITCourier/controllers/default.py')"
p3059
sS'func'
p3060
S'restricted'
p3061
sa(dp3062
g3037
S'/home/game_boy/web2py/applications/IIITCourier/controllers/default.py'
p3063
sg3039
(dp3064
sg3045
I132
sg3046
(dp3065
I128
S"      LOAD('default','data.load',args='tables',ajax=True,user_signature=True)"
p3066
sI129
S'    """'
p3067
sI130
S'    return dict(form=crud())'
p3068
sI121
S'    http://..../[app]/default/data/update/[table]/[id]'
p3069
sI122
S'    http://..../[app]/default/data/delete/[table]/[id]'
p3070
sI123
S'    http://..../[app]/default/data/select/[table]'
p3071
sI124
S'    http://..../[app]/default/data/search/[table]'
p3072
sI125
S'    but URLs must be signed, i.e. linked with'
p3073
sI126
S"      A('table',_href=URL('data/tables',user_signature=True))"
p3074
sI127
S'    or with the signed load operator'
p3075
ssg3058
S'()'
p3076
sg3060
S'<module>'
p3077
sa(dp3078
g3037
S'/usr/lib/pymodules/python2.7/gluon/globals.py'
p3079
sg3039
(dp3080
S'self'
p3081
S'undefined'
p3082
sS'f'
S'<function searchPage>'
p3083
ssg3045
I173
sg3046
(dp3084
I168
S'        self.menu = []             # used by the default view layout'
p3085
sI169
S'        self.files = []            # used by web2py_ajax.html'
p3086
sI170
S'        self.generic_patterns = [] # patterns to allow generic views'
p3087
sI171
S"        self.delimiters = ('{{','}}')"
p3088
sI172
S'        self._vars = None'
p3089
sI173
S'        self._caller = lambda f: f()'
p3090
sI174
S'        self._view_environment = None'
p3091
sI175
S'        self._custom_commit = None'
p3092
sI176
S'        self._custom_rollback = None'
p3093
sI177
S''
ssg3058
S'(f=<function searchPage>)'
p3094
sg3060
S'<lambda>'
p3095
sa(dp3096
g3037
S'/home/game_boy/web2py/applications/IIITCourier/controllers/default.py'
p3097
sg3039
(dp3098
S'rows'
p3099
g3082
sS'searchable'
p3100
g3082
sS'builtinFalse'
p3101
g100
sS'SQLFORM.grid'
p3102
S'<function grid>'
p3103
sS'global SQLFORM'
p3104
S"<class 'gluon.sqlhtml.SQLFORM'>"
p3105
sS'create'
p3106
g3082
sS'details'
p3107
g3082
sS'query'
p3108
S'<gluon.dal.Query object>'
p3109
sS'deletable'
p3110
g3082
ssg3045
I60
sg3046
(dp3111
I64
S'def studentHome():'
p3112
sI55
S'        queries.append(db.courierDetails.Date_received <= To)'
p3113
sI56
S"    if received != 'None':"
p3114
sI57
S'        queries.append(db.courierDetails.Received == received)'
p3115
sI58
S'    query = reduce(lambda a,b:(a&b),queries)'
p3116
sI59
S''
sI60
S'    rows=SQLFORM.grid(query = query,searchable=False,details=False,deletable=False,create=False);'
p3117
sI61
S"    return {'rows':rows}"
p3118
sI62
S''
sI63
S"@auth.requires_membership('student')"
p3119
ssg3058
S'()'
p3120
sg3060
S'searchPage'
p3121
sa(dp3122
g3037
S'/usr/lib/pymodules/python2.7/gluon/sqlhtml.py'
p3123
sg3039
(dp3124
S'builtinstr'
p3125
S"<type 'str'>"
p3126
sS'dbset.select'
p3127
S'<bound method Set.select of <gluon.dal.Set object>>'
p3128
sS'dbset'
p3129
S'<gluon.dal.Set object>'
p3130
sS'global HTTP'
p3131
S"<class 'gluon.http.HTTP'>"
p3132
ssg3045
I1624
sg3046
(dp3133
I1619
S'                    raise HTTP(400)'
p3134
sI1620
S'            check_authorization()'
p3135
sI1621
S"            response.headers['Content-Type'] = 'text/csv'"
p3136
sI1622
S"            response.headers['Content-Disposition'] = \\"
p3137
sI1623
S"                'attachment;filename=rows.csv;'"
p3138
sI1624
S'            raise HTTP(200,str(dbset.select()),'
p3139
sI1625
S"                       **{'Content-Type':'text/csv',"
p3140
sI1626
S"                          'Content-Disposition':'attachment;filename=rows.csv;'})"
p3141
sI1627
S'        elif request.vars.records and not isinstance('
p3142
sI1628
S'            request.vars.records,list):'
p3143
ssg3058
S"(query=<gluon.dal.Query object>, fields=[<gluon.dal.Field object>, <gluon.dal.Field object>, <gluon.dal.Field object>, <gluon.dal.Field object>, <gluon.dal.Field object>, <gluon.dal.Field object>, <gluon.dal.Field object>, <gluon.dal.Field object>, <gluon.dal.Field object>, <gluon.dal.Field object>, <gluon.dal.Field object>], field_id=<gluon.dal.Field object>, left=None, headers={}, orderby=None, searchable=False, sortable=True, paginate=20, deletable=False, editable=True, details=False, selectable=None, create=False, csv=True, links=None, links_in_grid=True, upload=<function <lambda>>, args=[], user_signature=True, maxtextlengths={}, maxtextlength=20, onvalidation=None, oncreate=None, onupdate=None, ondelete=None, sorter_icons=(<gluon.html.XML object>, <gluon.html.XML object>), ui={'button': 'button', 'buttonadd': 'icon plus', 'buttonback': 'icon leftarrow', 'buttondelete': 'icon trash', 'buttonedit': 'icon pen', 'buttonexport': 'icon downarrow', 'buttontable': 'icon rightarrow', 'buttontext': 'buttontext button', 'buttonview': 'icon magnifier', 'content': '', ...}, showbuttontext=True, _class='web2py_grid', formname='web2py_grid', search_widget='default', ignore_rw=False, formstyle='table3cols')"
p3144
sg3060
S'grid'
p3145
sa(dp3146
g3037
S'/usr/lib/pymodules/python2.7/gluon/dal.py'
p3147
sg3039
(dp3148
S'self.query'
p3149
S'<gluon.dal.Query object>'
p3150
sS'adapter.select'
p3151
S'<bound method SQLiteAdapter.select of <gluon.dal.SQLiteAdapter object>>'
p3152
sS'fields'
p3153
S'[<gluon.dal.Field object>, <gluon.dal.Field object>, <gluon.dal.Field object>, <gluon.dal.Field object>, <gluon.dal.Field object>, <gluon.dal.Field object>, <gluon.dal.Field object>, <gluon.dal.Field object>, <gluon.dal.Field object>, <gluon.dal.Field object>, <gluon.dal.Field object>]'
p3154
sS'adapter'
p3155
S'<gluon.dal.SQLiteAdapter object>'
p3156
sS'attributes'
p3157
g45
sS'self'
p3158
S'<gluon.dal.Set object>'
p3159
ssg3045
I7578
sg3046
(dp3160
I7573
S'        return self.db._adapter.count(self.query,distinct)'
p3161
sI7574
S''
sI7575
S'    def select(self, *fields, **attributes):'
p3162
sI7576
S'        adapter = self.db._adapter'
p3163
sI7577
S'        fields = adapter.expand_all(fields, adapter.tables(self.query))'
p3164
sI7578
S'        return adapter.select(self.query,fields,attributes)'
p3165
sI7579
S''
sI7580
S'    def delete(self):'
p3166
sI7581
S'        tablename=self.db._adapter.get_table(self.query)'
p3167
sI7582
S'        self.delete_uploaded_files()'
p3168
ssg3058
S'(self=<gluon.dal.Set object>, *fields=[<gluon.dal.Field object>, <gluon.dal.Field object>, <gluon.dal.Field object>, <gluon.dal.Field object>, <gluon.dal.Field object>, <gluon.dal.Field object>, <gluon.dal.Field object>, <gluon.dal.Field object>, <gluon.dal.Field object>, <gluon.dal.Field object>, <gluon.dal.Field object>], **attributes={})'
p3169
sg3060
S'select'
p3170
sa(dp3171
g3037
S'/usr/lib/pymodules/python2.7/gluon/dal.py'
p3172
sg3039
(dp3173
S'self._select'
p3174
S'<bound method SQLiteAdapter._select of <gluon.dal.SQLiteAdapter object>>'
p3175
sS'fields'
p3176
S'[<gluon.dal.Field object>, <gluon.dal.Field object>, <gluon.dal.Field object>, <gluon.dal.Field object>, <gluon.dal.Field object>, <gluon.dal.Field object>, <gluon.dal.Field object>, <gluon.dal.Field object>, <gluon.dal.Field object>, <gluon.dal.Field object>, <gluon.dal.Field object>]'
p3177
sS'self'
p3178
S'<gluon.dal.SQLiteAdapter object>'
p3179
sS'sql'
p3180
g3082
sS'query'
p3181
S'<gluon.dal.Query object>'
p3182
sS'attributes'
p3183
g45
ssg3045
I1307
sg3046
(dp3184
I1302
S'        Always returns a Rows object, possibly empty.'
p3185
sI1303
S'        """'
p3186
sI1304
S'        def response(sql):'
p3187
sI1305
S'            self.execute(sql)'
p3188
sI1306
S'            return self.cursor.fetchall()'
p3189
sI1307
S'        sql = self._select(query, fields, attributes)'
p3190
sI1308
S"        if attributes.get('cache', None):"
p3191
sI1309
S"            (cache_model, time_expire) = attributes['cache']"
p3192
sI1310
S"            del attributes['cache']"
p3193
sI1311
S"            key = self.uri + '/' + sql"
p3194
ssg3058
S'(self=<gluon.dal.SQLiteAdapter object>, query=<gluon.dal.Query object>, fields=[<gluon.dal.Field object>, <gluon.dal.Field object>, <gluon.dal.Field object>, <gluon.dal.Field object>, <gluon.dal.Field object>, <gluon.dal.Field object>, <gluon.dal.Field object>, <gluon.dal.Field object>, <gluon.dal.Field object>, <gluon.dal.Field object>, <gluon.dal.Field object>], attributes={})'
p3195
sg3060
g3170
sa(dp3196
g3037
S'/usr/lib/pymodules/python2.7/gluon/dal.py'
p3197
sg3039
(dp3198
S'fields'
p3199
S'[<gluon.dal.Field object>, <gluon.dal.Field object>, <gluon.dal.Field object>, <gluon.dal.Field object>, <gluon.dal.Field object>, <gluon.dal.Field object>, <gluon.dal.Field object>, <gluon.dal.Field object>, <gluon.dal.Field object>, <gluon.dal.Field object>, <gluon.dal.Field object>]'
p3200
sS'self'
p3201
S'<gluon.dal.SQLiteAdapter object>'
p3202
sS')._select'
p3203
S'<bound method SQLiteAdapter._select of <gluon.dal.SQLiteAdapter object>>'
p3204
sS'sql'
p3205
g3082
sS'global SQLiteAdapter'
p3206
S"<class 'gluon.dal.SQLiteAdapter'>"
p3207
sS'query'
p3208
S'<gluon.dal.Query object>'
p3209
sS'builtinsuper'
p3210
S"<type 'super'>"
p3211
sS'attributes'
p3212
g45
ssg3045
I1756
sg3046
(dp3213
I1760
S''
sI1751
S'        """'
p3214
sI1752
S'        Simulate SELECT ... FOR UPDATE with BEGIN IMMEDIATE TRANSACTION.'
p3215
sI1753
S'        Note that the entire database, rather than one record, is locked'
p3216
sI1754
S'        (it will be locked eventually anyway by the following UPDATE).'
p3217
sI1755
S'        """'
p3218
sI1756
S'        sql = super(SQLiteAdapter, self)._select(query, fields, attributes)'
p3219
sI1757
S"        if attributes.get('for_update', False):"
p3220
sI1758
S"            sql = 'BEGIN IMMEDIATE TRANSACTION; ' + sql"
p3221
sI1759
S'        return sql'
p3222
ssg3058
S'(self=<gluon.dal.SQLiteAdapter object>, query=<gluon.dal.Query object>, fields=[<gluon.dal.Field object>, <gluon.dal.Field object>, <gluon.dal.Field object>, <gluon.dal.Field object>, <gluon.dal.Field object>, <gluon.dal.Field object>, <gluon.dal.Field object>, <gluon.dal.Field object>, <gluon.dal.Field object>, <gluon.dal.Field object>, <gluon.dal.Field object>], attributes={})'
p3223
sg3060
S'_select'
p3224
sa(dp3225
g3037
S'/usr/lib/pymodules/python2.7/gluon/dal.py'
p3226
sg3039
(dp3227
S'query'
p3228
S'<gluon.dal.Query object>'
p3229
sS'self'
p3230
S'<gluon.dal.SQLiteAdapter object>'
p3231
sS'sql_w'
p3232
g3082
sS'self.expand'
p3233
S'<bound method SQLiteAdapter.expand of <gluon.dal.SQLiteAdapter object>>'
p3234
ssg3045
I1200
sg3046
(dp3235
I1195
S'        if len(tablenames) < 1:'
p3236
sI1196
S"            raise SyntaxError, 'Set: no tables selected'"
p3237
sI1197
S"        sql_f = ', '.join(map(self.expand, fields))"
p3238
sI1198
S"        self._colnames = [c.strip() for c in sql_f.split(', ')]"
p3239
sI1199
S'        if query:'
p3240
sI1200
S"            sql_w = ' WHERE ' + self.expand(query)"
p3241
sI1201
S'        else:'
p3242
sI1202
S"            sql_w = ''"
p3243
sI1203
S"        sql_o = ''"
p3244
sI1204
S"        sql_s = ''"
p3245
ssg3058
S'(self=<gluon.dal.SQLiteAdapter object>, query=<gluon.dal.Query object>, fields=[<gluon.dal.Field object>, <gluon.dal.Field object>, <gluon.dal.Field object>, <gluon.dal.Field object>, <gluon.dal.Field object>, <gluon.dal.Field object>, <gluon.dal.Field object>, <gluon.dal.Field object>, <gluon.dal.Field object>, <gluon.dal.Field object>, <gluon.dal.Field object>], attributes={})'
p3246
sg3060
g3224
sa(dp3247
g3037
S'/usr/lib/pymodules/python2.7/gluon/dal.py'
p3248
sg3039
(dp3249
S'expression.op'
p3250
S'<bound method SQLiteAdapter.AND of <gluon.dal.SQLiteAdapter object>>'
p3251
sS'expression'
p3252
S'<gluon.dal.Query object>'
p3253
sS'expression.first'
p3254
S'<gluon.dal.Query object>'
p3255
sS'expression.second'
p3256
S'<gluon.dal.Query object>'
p3257
ssg3045
I1046
sg3046
(dp3258
I1041
S'    def expand(self, expression, field_type=None):'
p3259
sI1042
S'        if isinstance(expression, Field):'
p3260
sI1043
S'            return str(expression)'
p3261
sI1044
S'        elif isinstance(expression, (Expression, Query)):'
p3262
sI1045
S'            if not expression.second is None:'
p3263
sI1046
S'                return expression.op(expression.first, expression.second)'
p3264
sI1047
S'            elif not expression.first is None:'
p3265
sI1048
S'                return expression.op(expression.first)'
p3266
sI1049
S'            elif not isinstance(expression.op, str):'
p3267
sI1050
S'                return expression.op()'
p3268
ssg3058
S'(self=<gluon.dal.SQLiteAdapter object>, expression=<gluon.dal.Query object>, field_type=None)'
p3269
sg3060
S'expand'
p3270
sa(dp3271
g3037
S'/usr/lib/pymodules/python2.7/gluon/dal.py'
p3272
sg3039
(dp3273
S'self'
p3274
S'<gluon.dal.SQLiteAdapter object>'
p3275
sS'first'
p3276
S'<gluon.dal.Query object>'
p3277
sS'second'
p3278
S'<gluon.dal.Query object>'
p3279
sS'self.expand'
p3280
S'<bound method SQLiteAdapter.expand of <gluon.dal.SQLiteAdapter object>>'
p3281
ssg3045
I946
sg3046
(dp3282
I941
S''
sI942
S'    def NOT(self, first):'
p3283
sI943
S"        return '(NOT %s)' % self.expand(first)"
p3284
sI944
S''
sI945
S'    def AND(self, first, second):'
p3285
sI946
S"        return '(%s AND %s)' % (self.expand(first), self.expand(second))"
p3286
sI947
S''
sI948
S'    def OR(self, first, second):'
p3287
sI949
S"        return '(%s OR %s)' % (self.expand(first), self.expand(second))"
p3288
sI950
S''
ssg3058
S'(self=<gluon.dal.SQLiteAdapter object>, first=<gluon.dal.Query object>, second=<gluon.dal.Query object>)'
p3289
sg3060
S'AND'
p3290
sa(dp3291
g3037
S'/usr/lib/pymodules/python2.7/gluon/dal.py'
p3292
sg3039
(dp3293
S'expression.op'
p3294
S'<bound method SQLiteAdapter.AND of <gluon.dal.SQLiteAdapter object>>'
p3295
sS'expression'
p3296
S'<gluon.dal.Query object>'
p3297
sS'expression.first'
p3298
S'<gluon.dal.Query object>'
p3299
sS'expression.second'
p3300
S'<gluon.dal.Query object>'
p3301
ssg3045
I1046
sg3046
(dp3302
I1041
S'    def expand(self, expression, field_type=None):'
p3303
sI1042
S'        if isinstance(expression, Field):'
p3304
sI1043
S'            return str(expression)'
p3305
sI1044
S'        elif isinstance(expression, (Expression, Query)):'
p3306
sI1045
S'            if not expression.second is None:'
p3307
sI1046
S'                return expression.op(expression.first, expression.second)'
p3308
sI1047
S'            elif not expression.first is None:'
p3309
sI1048
S'                return expression.op(expression.first)'
p3310
sI1049
S'            elif not isinstance(expression.op, str):'
p3311
sI1050
S'                return expression.op()'
p3312
ssg3058
S'(self=<gluon.dal.SQLiteAdapter object>, expression=<gluon.dal.Query object>, field_type=None)'
p3313
sg3060
g3270
sa(dp3314
g3037
S'/usr/lib/pymodules/python2.7/gluon/dal.py'
p3315
sg3039
(dp3316
S'self'
p3317
S'<gluon.dal.SQLiteAdapter object>'
p3318
sS'first'
p3319
S'<gluon.dal.Query object>'
p3320
sS'second'
p3321
S'<gluon.dal.Query object>'
p3322
sS'self.expand'
p3323
S'<bound method SQLiteAdapter.expand of <gluon.dal.SQLiteAdapter object>>'
p3324
ssg3045
I946
sg3046
(dp3325
I941
S''
sI942
S'    def NOT(self, first):'
p3326
sI943
S"        return '(NOT %s)' % self.expand(first)"
p3327
sI944
S''
sI945
S'    def AND(self, first, second):'
p3328
sI946
S"        return '(%s AND %s)' % (self.expand(first), self.expand(second))"
p3329
sI947
S''
sI948
S'    def OR(self, first, second):'
p3330
sI949
S"        return '(%s OR %s)' % (self.expand(first), self.expand(second))"
p3331
sI950
S''
ssg3058
S'(self=<gluon.dal.SQLiteAdapter object>, first=<gluon.dal.Query object>, second=<gluon.dal.Query object>)'
p3332
sg3060
g3290
sa(dp3333
g3037
S'/usr/lib/pymodules/python2.7/gluon/dal.py'
p3334
sg3039
(dp3335
S'expression.op'
p3336
S'<bound method SQLiteAdapter.AND of <gluon.dal.SQLiteAdapter object>>'
p3337
sS'expression'
p3338
S'<gluon.dal.Query object>'
p3339
sS'expression.first'
p3340
S'<gluon.dal.Query object>'
p3341
sS'expression.second'
p3342
S'<gluon.dal.Query object>'
p3343
ssg3045
I1046
sg3046
(dp3344
I1041
S'    def expand(self, expression, field_type=None):'
p3345
sI1042
S'        if isinstance(expression, Field):'
p3346
sI1043
S'            return str(expression)'
p3347
sI1044
S'        elif isinstance(expression, (Expression, Query)):'
p3348
sI1045
S'            if not expression.second is None:'
p3349
sI1046
S'                return expression.op(expression.first, expression.second)'
p3350
sI1047
S'            elif not expression.first is None:'
p3351
sI1048
S'                return expression.op(expression.first)'
p3352
sI1049
S'            elif not isinstance(expression.op, str):'
p3353
sI1050
S'                return expression.op()'
p3354
ssg3058
S'(self=<gluon.dal.SQLiteAdapter object>, expression=<gluon.dal.Query object>, field_type=None)'
p3355
sg3060
g3270
sa(dp3356
g3037
S'/usr/lib/pymodules/python2.7/gluon/dal.py'
p3357
sg3039
(dp3358
S'self'
p3359
S'<gluon.dal.SQLiteAdapter object>'
p3360
sS'first'
p3361
S'<gluon.dal.Query object>'
p3362
sS'second'
p3363
S'<gluon.dal.Query object>'
p3364
sS'self.expand'
p3365
S'<bound method SQLiteAdapter.expand of <gluon.dal.SQLiteAdapter object>>'
p3366
ssg3045
I946
sg3046
(dp3367
I941
S''
sI942
S'    def NOT(self, first):'
p3368
sI943
S"        return '(NOT %s)' % self.expand(first)"
p3369
sI944
S''
sI945
S'    def AND(self, first, second):'
p3370
sI946
S"        return '(%s AND %s)' % (self.expand(first), self.expand(second))"
p3371
sI947
S''
sI948
S'    def OR(self, first, second):'
p3372
sI949
S"        return '(%s OR %s)' % (self.expand(first), self.expand(second))"
p3373
sI950
S''
ssg3058
S'(self=<gluon.dal.SQLiteAdapter object>, first=<gluon.dal.Query object>, second=<gluon.dal.Query object>)'
p3374
sg3060
g3290
sa(dp3375
g3037
S'/usr/lib/pymodules/python2.7/gluon/dal.py'
p3376
sg3039
(dp3377
S'expression.op'
p3378
S'<bound method SQLiteAdapter.GE of <gluon.dal.SQLiteAdapter object>>'
p3379
sS'expression'
p3380
S'<gluon.dal.Query object>'
p3381
sS'expression.first'
p3382
S'<gluon.dal.Field object>'
p3383
ssg3045
I1048
sg3046
(dp3384
I1043
S'            return str(expression)'
p3385
sI1044
S'        elif isinstance(expression, (Expression, Query)):'
p3386
sI1045
S'            if not expression.second is None:'
p3387
sI1046
S'                return expression.op(expression.first, expression.second)'
p3388
sI1047
S'            elif not expression.first is None:'
p3389
sI1048
S'                return expression.op(expression.first)'
p3390
sI1049
S'            elif not isinstance(expression.op, str):'
p3391
sI1050
S'                return expression.op()'
p3392
sI1051
S'            else:'
p3393
sI1052
S"                return '(%s)' % expression.op"
p3394
ssg3058
S'(self=<gluon.dal.SQLiteAdapter object>, expression=<gluon.dal.Query object>, field_type=None)'
p3395
sg3060
g3270
sa(dp3396
g3037
S'/usr/lib/pymodules/python2.7/gluon/dal.py'
p3397
sg3039
(dp3398
S'builtinRuntimeError'
p3399
S"<type 'exceptions.RuntimeError'>"
p3400
sS'first'
p3401
S'<gluon.dal.Field object>'
p3402
ssg3045
I1011
sg3046
(dp3403
I1006
S'            raise RuntimeError, "Cannot compare %s > None" % first'
p3404
sI1007
S"        return '(%s > %s)' % (self.expand(first),self.expand(second,first.type))"
p3405
sI1008
S''
sI1009
S'    def GE(self,first,second=None):'
p3406
sI1010
S'        if second is None:'
p3407
sI1011
S'            raise RuntimeError, "Cannot compare %s >= None" % first'
p3408
sI1012
S"        return '(%s >= %s)' % (self.expand(first),self.expand(second,first.type))"
p3409
sI1013
S''
sI1014
S'    def ADD(self, first, second):'
p3410
sI1015
S"        return '(%s + %s)' % (self.expand(first), self.expand(second, first.type))"
p3411
ssg3058
S'(self=<gluon.dal.SQLiteAdapter object>, first=<gluon.dal.Field object>, second=None)'
p3412
sg3060
S'GE'
p3413
sasS'pyver'
p3414
S'Python 2.7.6: /usr/bin/python'
p3415
sS'session'
p3416
g57
(g58
g59
NtRp3417
(dp3418
g62
(dp3419
sg64
(lp3420
g57
(g66
g59
NtRp3421
(dp3422
g62
(dp3423
g70
I5
ssg71
Nsg64
(lp3424
g57
(g73
g59
NtRp3425
(dp3426
g62
(dp3427
sg71
g3421
sg64
(lp3428
g57
(g78
g59
NtRp3429
(dp3430
g62
(dp3431
g82
g83
ssg71
g3425
sg64
(lp3432
S'auth'
p3433
asbag57
(g78
g59
NtRp3434
(dp3435
g62
(dp3436
g89
g90
ssg71
g3425
sg64
(lp3437
S':'
asbag57
(g78
g59
NtRp3438
(dp3439
g62
(dp3440
sg71
g3425
sg64
(lp3441
g57
(g58
g59
NtRp3442
(dp3443
g62
(dp3444
g70
I5
ssg71
g3438
sg64
(lp3445
g57
(g66
g59
NtRp3446
(dp3447
g62
(dp3448
g70
I4
ssg71
Nsg64
(lp3449
g57
(g73
g59
NtRp3450
(dp3451
g62
(dp3452
sg71
g3446
sg64
(lp3453
g57
(g78
g59
NtRp3454
(dp3455
g62
(dp3456
g82
g83
ssg71
g3450
sg64
(lp3457
S'expiration'
p3458
asbag57
(g78
g59
NtRp3459
(dp3460
g62
(dp3461
g89
g90
ssg71
g3450
sg64
(lp3462
S':'
asbag57
(g78
g59
NtRp3463
(dp3464
g62
(dp3465
sg71
g3450
sg64
(lp3466
g57
(g58
g59
NtRp3467
(dp3468
g62
(dp3469
g70
I4
ssg71
g3463
sg64
(lp3470
S'3600'
p3471
asbasbasbag57
(g73
g59
NtRp3472
(dp3473
g62
(dp3474
sg71
g3446
sg64
(lp3475
g57
(g78
g59
NtRp3476
(dp3477
g62
(dp3478
g82
g83
ssg71
g3472
sg64
(lp3479
S'hmac_key'
p3480
asbag57
(g78
g59
NtRp3481
(dp3482
g62
(dp3483
g89
g90
ssg71
g3472
sg64
(lp3484
S':'
asbag57
(g78
g59
NtRp3485
(dp3486
g62
(dp3487
sg71
g3472
sg64
(lp3488
g57
(g58
g59
NtRp3489
(dp3490
g62
(dp3491
g70
I4
ssg71
g3485
sg64
(lp3492
S'807aef99-3935-41c9-b7b4-77e5865b3ca8'
p3493
asbasbasbag57
(g73
g59
NtRp3494
(dp3495
g62
(dp3496
sg71
g3446
sg64
(lp3497
g57
(g78
g59
NtRp3498
(dp3499
g62
(dp3500
g82
g83
ssg71
g3494
sg64
(lp3501
S'last_visit'
p3502
asbag57
(g78
g59
NtRp3503
(dp3504
g62
(dp3505
g89
g90
ssg71
g3494
sg64
(lp3506
S':'
asbag57
(g78
g59
NtRp3507
(dp3508
g62
(dp3509
sg71
g3494
sg64
(lp3510
g57
(g58
g59
NtRp3511
(dp3512
g62
(dp3513
g70
I4
ssg71
g3507
sg64
(lp3514
S'datetime.datetime(2015, 11, 16, 3, 20, 20, 208237)'
p3515
asbasbasbag57
(g73
g59
NtRp3516
(dp3517
g62
(dp3518
sg71
g3446
sg64
(lp3519
g57
(g78
g59
NtRp3520
(dp3521
g62
(dp3522
g82
g83
ssg71
g3516
sg64
(lp3523
S'remember'
p3524
asbag57
(g78
g59
NtRp3525
(dp3526
g62
(dp3527
g89
g90
ssg71
g3516
sg64
(lp3528
S':'
asbag57
(g78
g59
NtRp3529
(dp3530
g62
(dp3531
sg71
g3516
sg64
(lp3532
g57
(g58
g59
NtRp3533
(dp3534
g62
(dp3535
g70
I4
ssg71
g3529
sg64
(lp3536
g100
asbasbasbag57
(g73
g59
NtRp3537
(dp3538
g62
(dp3539
sg71
g3446
sg64
(lp3540
g57
(g78
g59
NtRp3541
(dp3542
g62
(dp3543
g82
g83
ssg71
g3537
sg64
(lp3544
S'user'
p3545
asbag57
(g78
g59
NtRp3546
(dp3547
g62
(dp3548
g89
g90
ssg71
g3537
sg64
(lp3549
S':'
asbag57
(g78
g59
NtRp3550
(dp3551
g62
(dp3552
sg71
g3537
sg64
(lp3553
g57
(g58
g59
NtRp3554
(dp3555
g62
(dp3556
g70
I4
ssg71
g3550
sg64
(lp3557
g57
(g66
g59
NtRp3558
(dp3559
g62
(dp3560
g70
I3
ssg71
Nsg64
(lp3561
g57
(g73
g59
NtRp3562
(dp3563
g62
(dp3564
sg71
g3558
sg64
(lp3565
g57
(g78
g59
NtRp3566
(dp3567
g62
(dp3568
g82
g83
ssg71
g3562
sg64
(lp3569
S'email'
p3570
asbag57
(g78
g59
NtRp3571
(dp3572
g62
(dp3573
g89
g90
ssg71
g3562
sg64
(lp3574
S':'
asbag57
(g78
g59
NtRp3575
(dp3576
g62
(dp3577
sg71
g3562
sg64
(lp3578
g57
(g58
g59
NtRp3579
(dp3580
g62
(dp3581
g70
I3
ssg71
g3575
sg64
(lp3582
S'sharma.mohit@students.iiit.ac.in'
p3583
asbasbasbag57
(g73
g59
NtRp3584
(dp3585
g62
(dp3586
sg71
g3558
sg64
(lp3587
g57
(g78
g59
NtRp3588
(dp3589
g62
(dp3590
g82
g83
ssg71
g3584
sg64
(lp3591
S'first_name'
p3592
asbag57
(g78
g59
NtRp3593
(dp3594
g62
(dp3595
g89
g90
ssg71
g3584
sg64
(lp3596
S':'
asbag57
(g78
g59
NtRp3597
(dp3598
g62
(dp3599
sg71
g3584
sg64
(lp3600
g57
(g58
g59
NtRp3601
(dp3602
g62
(dp3603
g70
I3
ssg71
g3597
sg64
(lp3604
S'Mohit'
p3605
asbasbasbag57
(g73
g59
NtRp3606
(dp3607
g62
(dp3608
sg71
g3558
sg64
(lp3609
g57
(g78
g59
NtRp3610
(dp3611
g62
(dp3612
g82
g83
ssg71
g3606
sg64
(lp3613
S'id'
p3614
asbag57
(g78
g59
NtRp3615
(dp3616
g62
(dp3617
g89
g90
ssg71
g3606
sg64
(lp3618
S':'
asbag57
(g78
g59
NtRp3619
(dp3620
g62
(dp3621
sg71
g3606
sg64
(lp3622
g57
(g58
g59
NtRp3623
(dp3624
g62
(dp3625
g70
I3
ssg71
g3619
sg64
(lp3626
S'1'
asbasbasbag57
(g73
g59
NtRp3627
(dp3628
g62
(dp3629
sg71
g3558
sg64
(lp3630
g57
(g78
g59
NtRp3631
(dp3632
g62
(dp3633
g82
g83
ssg71
g3627
sg64
(lp3634
S'last_name'
p3635
asbag57
(g78
g59
NtRp3636
(dp3637
g62
(dp3638
g89
g90
ssg71
g3627
sg64
(lp3639
S':'
asbag57
(g78
g59
NtRp3640
(dp3641
g62
(dp3642
sg71
g3627
sg64
(lp3643
g57
(g58
g59
NtRp3644
(dp3645
g62
(dp3646
g70
I3
ssg71
g3640
sg64
(lp3647
S'Sharma'
p3648
asbasbasbag57
(g73
g59
NtRp3649
(dp3650
g62
(dp3651
sg71
g3558
sg64
(lp3652
g57
(g78
g59
NtRp3653
(dp3654
g62
(dp3655
g82
g83
ssg71
g3649
sg64
(lp3656
S'password'
p3657
asbag57
(g78
g59
NtRp3658
(dp3659
g62
(dp3660
g89
g90
ssg71
g3649
sg64
(lp3661
S':'
asbag57
(g78
g59
NtRp3662
(dp3663
g62
(dp3664
sg71
g3649
sg64
(lp3665
g57
(g58
g59
NtRp3666
(dp3667
g62
(dp3668
g70
I3
ssg71
g3662
sg64
(lp3669
S'2f5ec7b5464f877683a0b98ae667f279'
p3670
asbasbasbag57
(g73
g59
NtRp3671
(dp3672
g62
(dp3673
sg71
g3558
sg64
(lp3674
g57
(g78
g59
NtRp3675
(dp3676
g62
(dp3677
g82
g83
ssg71
g3671
sg64
(lp3678
S'registration_id'
p3679
asbag57
(g78
g59
NtRp3680
(dp3681
g62
(dp3682
g89
g90
ssg71
g3671
sg64
(lp3683
S':'
asbag57
(g78
g59
NtRp3684
(dp3685
g62
(dp3686
sg71
g3671
sg64
(lp3687
g57
(g58
g59
NtRp3688
(dp3689
g62
(dp3690
g70
I3
ssg71
g3684
sg64
(lp3691
S''
asbasbasbag57
(g73
g59
NtRp3692
(dp3693
g62
(dp3694
sg71
g3558
sg64
(lp3695
g57
(g78
g59
NtRp3696
(dp3697
g62
(dp3698
g82
g83
ssg71
g3692
sg64
(lp3699
S'registration_key'
p3700
asbag57
(g78
g59
NtRp3701
(dp3702
g62
(dp3703
g89
g90
ssg71
g3692
sg64
(lp3704
S':'
asbag57
(g78
g59
NtRp3705
(dp3706
g62
(dp3707
sg71
g3692
sg64
(lp3708
g57
(g58
g59
NtRp3709
(dp3710
g62
(dp3711
g70
I3
ssg71
g3705
sg64
(lp3712
S''
asbasbasbag57
(g73
g59
NtRp3713
(dp3714
g62
(dp3715
sg71
g3558
sg64
(lp3716
g57
(g78
g59
NtRp3717
(dp3718
g62
(dp3719
g82
g83
ssg71
g3713
sg64
(lp3720
S'reset_password_key'
p3721
asbag57
(g78
g59
NtRp3722
(dp3723
g62
(dp3724
g89
g90
ssg71
g3713
sg64
(lp3725
S':'
asbag57
(g78
g59
NtRp3726
(dp3727
g62
(dp3728
sg71
g3713
sg64
(lp3729
g57
(g58
g59
NtRp3730
(dp3731
g62
(dp3732
g70
I3
ssg71
g3726
sg64
(lp3733
S''
asbasbasbasbasbasbasbag57
(g73
g59
NtRp3734
(dp3735
g62
(dp3736
sg71
g3446
sg64
(lp3737
g57
(g78
g59
NtRp3738
(dp3739
g62
(dp3740
g82
g83
ssg71
g3734
sg64
(lp3741
S'user_groups'
p3742
asbag57
(g78
g59
NtRp3743
(dp3744
g62
(dp3745
g89
g90
ssg71
g3734
sg64
(lp3746
S':'
asbag57
(g78
g59
NtRp3747
(dp3748
g62
(dp3749
sg71
g3734
sg64
(lp3750
g57
(g58
g59
NtRp3751
(dp3752
g62
(dp3753
g70
I4
ssg71
g3747
sg64
(lp3754
g57
(g66
g59
NtRp3755
(dp3756
g62
(dp3757
g70
I3
ssg71
Nsg64
(lp3758
g57
(g73
g59
NtRp3759
(dp3760
g62
(dp3761
sg71
g3755
sg64
(lp3762
g57
(g78
g59
NtRp3763
(dp3764
g62
(dp3765
g82
g83
ssg71
g3759
sg64
(lp3766
S'1'
asbag57
(g78
g59
NtRp3767
(dp3768
g62
(dp3769
g89
g90
ssg71
g3759
sg64
(lp3770
S':'
asbag57
(g78
g59
NtRp3771
(dp3772
g62
(dp3773
sg71
g3759
sg64
(lp3774
g57
(g58
g59
NtRp3775
(dp3776
g62
(dp3777
g70
I3
ssg71
g3771
sg64
(lp3778
S'user_1'
p3779
asbasbasbag57
(g73
g59
NtRp3780
(dp3781
g62
(dp3782
sg71
g3755
sg64
(lp3783
g57
(g78
g59
NtRp3784
(dp3785
g62
(dp3786
g82
g83
ssg71
g3780
sg64
(lp3787
S'2'
asbag57
(g78
g59
NtRp3788
(dp3789
g62
(dp3790
g89
g90
ssg71
g3780
sg64
(lp3791
S':'
asbag57
(g78
g59
NtRp3792
(dp3793
g62
(dp3794
sg71
g3780
sg64
(lp3795
g57
(g58
g59
NtRp3796
(dp3797
g62
(dp3798
g70
I3
ssg71
g3792
sg64
(lp3799
S'security'
p3800
asbasbasbasbasbasbasbasbasbasbasbag57
(g73
g59
NtRp3801
(dp3802
g62
(dp3803
sg71
g3421
sg64
(lp3804
g57
(g78
g59
NtRp3805
(dp3806
g62
(dp3807
g82
g83
ssg71
g3801
sg64
(lp3808
S'last_query'
p3809
asbag57
(g78
g59
NtRp3810
(dp3811
g62
(dp3812
g89
g90
ssg71
g3801
sg64
(lp3813
S':'
asbag57
(g78
g59
NtRp3814
(dp3815
g62
(dp3816
sg71
g3801
sg64
(lp3817
g57
(g58
g59
NtRp3818
(dp3819
g62
(dp3820
g70
I5
ssg71
g3814
sg64
(lp3821
S'db.auth_cas.id>0'
p3822
asbasbasbasbasbsS'etype'
p3823
S"<type 'exceptions.RuntimeError'>"
p3824
sS'date'
p3825
S'Mon Nov 16 03:23:35 2015'
p3826
sS'response'
p3827
g57
(g58
g59
NtRp3828
(dp3829
g62
(dp3830
sg64
(lp3831
g57
(g66
g59
NtRp3832
(dp3833
g62
(dp3834
g70
I5
ssg71
Nsg64
(lp3835
g57
(g73
g59
NtRp3836
(dp3837
g62
(dp3838
sg71
g3832
sg64
(lp3839
g57
(g78
g59
NtRp3840
(dp3841
g62
(dp3842
g82
g83
ssg71
g3836
sg64
(lp3843
g168
asbag57
(g78
g59
NtRp3844
(dp3845
g62
(dp3846
g89
g90
ssg71
g3836
sg64
(lp3847
S':'
asbag57
(g78
g59
NtRp3848
(dp3849
g62
(dp3850
sg71
g3836
sg64
(lp3851
g57
(g58
g59
NtRp3852
(dp3853
g62
(dp3854
g70
I5
ssg71
g3848
sg64
(lp3855
S'<cStringIO.StringO object at 0x7fa6cc9250d8>'
p3856
asbasbasbag57
(g73
g59
NtRp3857
(dp3858
g62
(dp3859
sg71
g3832
sg64
(lp3860
g57
(g78
g59
NtRp3861
(dp3862
g62
(dp3863
g82
g83
ssg71
g3857
sg64
(lp3864
g234
asbag57
(g78
g59
NtRp3865
(dp3866
g62
(dp3867
g89
g90
ssg71
g3857
sg64
(lp3868
S':'
asbag57
(g78
g59
NtRp3869
(dp3870
g62
(dp3871
sg71
g3857
sg64
(lp3872
g57
(g58
g59
NtRp3873
(dp3874
g62
(dp3875
g70
I5
ssg71
g3869
sg64
(lp3876
g57
(g66
g59
NtRp3877
(dp3878
g62
(dp3879
g70
I4
ssg71
Nsg64
(lp3880
g57
(g73
g59
NtRp3881
(dp3882
g62
(dp3883
sg71
g3877
sg64
(lp3884
g57
(g78
g59
NtRp3885
(dp3886
g62
(dp3887
g82
g83
ssg71
g3881
sg64
(lp3888
S'session_id_iiitcourier'
p3889
asbag57
(g78
g59
NtRp3890
(dp3891
g62
(dp3892
g89
g90
ssg71
g3881
sg64
(lp3893
S':'
asbag57
(g78
g59
NtRp3894
(dp3895
g62
(dp3896
sg71
g3881
sg64
(lp3897
g57
(g58
g59
NtRp3898
(dp3899
g62
(dp3900
g70
I4
ssg71
g3894
sg64
(lp3901
g57
(g66
g59
NtRp3902
(dp3903
g62
(dp3904
g70
I3
ssg71
Nsg64
(lp3905
g57
(g73
g59
NtRp3906
(dp3907
g62
(dp3908
sg71
g3902
sg64
(lp3909
g57
(g78
g59
NtRp3910
(dp3911
g62
(dp3912
g82
g83
ssg71
g3906
sg64
(lp3913
g284
asbag57
(g78
g59
NtRp3914
(dp3915
g62
(dp3916
g89
g90
ssg71
g3906
sg64
(lp3917
S':'
asbag57
(g78
g59
NtRp3918
(dp3919
g62
(dp3920
sg71
g3906
sg64
(lp3921
g57
(g58
g59
NtRp3922
(dp3923
g62
(dp3924
g70
I3
ssg71
g3918
sg64
(lp3925
S''
asbasbasbag57
(g73
g59
NtRp3926
(dp3927
g62
(dp3928
sg71
g3902
sg64
(lp3929
g57
(g78
g59
NtRp3930
(dp3931
g62
(dp3932
g82
g83
ssg71
g3926
sg64
(lp3933
g305
asbag57
(g78
g59
NtRp3934
(dp3935
g62
(dp3936
g89
g90
ssg71
g3926
sg64
(lp3937
S':'
asbag57
(g78
g59
NtRp3938
(dp3939
g62
(dp3940
sg71
g3926
sg64
(lp3941
g57
(g58
g59
NtRp3942
(dp3943
g62
(dp3944
g70
I3
ssg71
g3938
sg64
(lp3945
S''
asbasbasbag57
(g73
g59
NtRp3946
(dp3947
g62
(dp3948
sg71
g3902
sg64
(lp3949
g57
(g78
g59
NtRp3950
(dp3951
g62
(dp3952
g82
g83
ssg71
g3946
sg64
(lp3953
g326
asbag57
(g78
g59
NtRp3954
(dp3955
g62
(dp3956
g89
g90
ssg71
g3946
sg64
(lp3957
S':'
asbag57
(g78
g59
NtRp3958
(dp3959
g62
(dp3960
sg71
g3946
sg64
(lp3961
g57
(g58
g59
NtRp3962
(dp3963
g62
(dp3964
g70
I3
ssg71
g3958
sg64
(lp3965
S''
asbasbasbag57
(g73
g59
NtRp3966
(dp3967
g62
(dp3968
sg71
g3902
sg64
(lp3969
g57
(g78
g59
NtRp3970
(dp3971
g62
(dp3972
g82
g83
ssg71
g3966
sg64
(lp3973
g347
asbag57
(g78
g59
NtRp3974
(dp3975
g62
(dp3976
g89
g90
ssg71
g3966
sg64
(lp3977
S':'
asbag57
(g78
g59
NtRp3978
(dp3979
g62
(dp3980
sg71
g3966
sg64
(lp3981
g57
(g58
g59
NtRp3982
(dp3983
g62
(dp3984
g70
I3
ssg71
g3978
sg64
(lp3985
S''
asbasbasbag57
(g73
g59
NtRp3986
(dp3987
g62
(dp3988
sg71
g3902
sg64
(lp3989
g57
(g78
g59
NtRp3990
(dp3991
g62
(dp3992
g82
g83
ssg71
g3986
sg64
(lp3993
g368
asbag57
(g78
g59
NtRp3994
(dp3995
g62
(dp3996
g89
g90
ssg71
g3986
sg64
(lp3997
S':'
asbag57
(g78
g59
NtRp3998
(dp3999
g62
(dp4000
sg71
g3986
sg64
(lp4001
g57
(g58
g59
NtRp4002
(dp4003
g62
(dp4004
g70
I3
ssg71
g3998
sg64
(lp4005
S''
asbasbasbag57
(g73
g59
NtRp4006
(dp4007
g62
(dp4008
sg71
g3902
sg64
(lp4009
g57
(g78
g59
NtRp4010
(dp4011
g62
(dp4012
g82
g83
ssg71
g4006
sg64
(lp4013
g389
asbag57
(g78
g59
NtRp4014
(dp4015
g62
(dp4016
g89
g90
ssg71
g4006
sg64
(lp4017
S':'
asbag57
(g78
g59
NtRp4018
(dp4019
g62
(dp4020
sg71
g4006
sg64
(lp4021
g57
(g58
g59
NtRp4022
(dp4023
g62
(dp4024
g70
I3
ssg71
g4018
sg64
(lp4025
S'/'
asbasbasbag57
(g73
g59
NtRp4026
(dp4027
g62
(dp4028
sg71
g3902
sg64
(lp4029
g57
(g78
g59
NtRp4030
(dp4031
g62
(dp4032
g82
g83
ssg71
g4026
sg64
(lp4033
g410
asbag57
(g78
g59
NtRp4034
(dp4035
g62
(dp4036
g89
g90
ssg71
g4026
sg64
(lp4037
S':'
asbag57
(g78
g59
NtRp4038
(dp4039
g62
(dp4040
sg71
g4026
sg64
(lp4041
g57
(g58
g59
NtRp4042
(dp4043
g62
(dp4044
g70
I3
ssg71
g4038
sg64
(lp4045
S''
asbasbasbag57
(g73
g59
NtRp4046
(dp4047
g62
(dp4048
sg71
g3902
sg64
(lp4049
g57
(g78
g59
NtRp4050
(dp4051
g62
(dp4052
g82
g83
ssg71
g4046
sg64
(lp4053
g431
asbag57
(g78
g59
NtRp4054
(dp4055
g62
(dp4056
g89
g90
ssg71
g4046
sg64
(lp4057
S':'
asbag57
(g78
g59
NtRp4058
(dp4059
g62
(dp4060
sg71
g4046
sg64
(lp4061
g57
(g58
g59
NtRp4062
(dp4063
g62
(dp4064
g70
I3
ssg71
g4058
sg64
(lp4065
S''
asbasbasbasbasbasbasbasbasbasbasbag57
(g73
g59
NtRp4066
(dp4067
g62
(dp4068
sg71
g3832
sg64
(lp4069
g57
(g78
g59
NtRp4070
(dp4071
g62
(dp4072
g82
g83
ssg71
g4066
sg64
(lp4073
S'delimiters'
p4074
asbag57
(g78
g59
NtRp4075
(dp4076
g62
(dp4077
g89
g90
ssg71
g4066
sg64
(lp4078
S':'
asbag57
(g78
g59
NtRp4079
(dp4080
g62
(dp4081
sg71
g4066
sg64
(lp4082
g57
(g58
g59
NtRp4083
(dp4084
g62
(dp4085
g70
I5
ssg71
g4079
sg64
(lp4086
g57
(g66
g59
NtRp4087
(dp4088
g62
(dp4089
g70
I4
ssg71
Nsg64
(lp4090
g57
(g73
g59
NtRp4091
(dp4092
g62
(dp4093
sg71
g4087
sg64
(lp4094
g57
(g78
g59
NtRp4095
(dp4096
g62
(dp4097
sg71
g4091
sg64
(lp4098
g57
(g58
g59
NtRp4099
(dp4100
g62
(dp4101
g70
I4
ssg71
g4095
sg64
(lp4102
S'{{'
p4103
asbasbasbag57
(g73
g59
NtRp4104
(dp4105
g62
(dp4106
sg71
g4087
sg64
(lp4107
g57
(g78
g59
NtRp4108
(dp4109
g62
(dp4110
sg71
g4104
sg64
(lp4111
g57
(g58
g59
NtRp4112
(dp4113
g62
(dp4114
g70
I4
ssg71
g4108
sg64
(lp4115
S'}}'
p4116
asbasbasbasbasbasbasbag57
(g73
g59
NtRp4117
(dp4118
g62
(dp4119
sg71
g3832
sg64
(lp4120
g57
(g78
g59
NtRp4121
(dp4122
g62
(dp4123
g82
g83
ssg71
g4117
sg64
(lp4124
S'files'
p4125
asbag57
(g78
g59
NtRp4126
(dp4127
g62
(dp4128
g89
g90
ssg71
g4117
sg64
(lp4129
S':'
asbag57
(g78
g59
NtRp4130
(dp4131
g62
(dp4132
sg71
g4117
sg64
(lp4133
g57
(g58
g59
NtRp4134
(dp4135
g62
(dp4136
g70
I5
ssg71
g4130
sg64
(lp4137
g57
(g66
g59
NtRp4138
(dp4139
g62
(dp4140
g70
I4
ssg71
Nsg64
(lp4141
sbasbasbasbag57
(g73
g59
NtRp4142
(dp4143
g62
(dp4144
sg71
g3832
sg64
(lp4145
g57
(g78
g59
NtRp4146
(dp4147
g62
(dp4148
g82
g83
ssg71
g4142
sg64
(lp4149
S'flash'
p4150
asbag57
(g78
g59
NtRp4151
(dp4152
g62
(dp4153
g89
g90
ssg71
g4142
sg64
(lp4154
S':'
asbag57
(g78
g59
NtRp4155
(dp4156
g62
(dp4157
sg71
g4142
sg64
(lp4158
g57
(g58
g59
NtRp4159
(dp4160
g62
(dp4161
g70
I5
ssg71
g4155
sg64
(lp4162
S''
asbasbasbag57
(g73
g59
NtRp4163
(dp4164
g62
(dp4165
sg71
g3832
sg64
(lp4166
g57
(g78
g59
NtRp4167
(dp4168
g62
(dp4169
g82
g83
ssg71
g4163
sg64
(lp4170
S'generic_patterns'
p4171
asbag57
(g78
g59
NtRp4172
(dp4173
g62
(dp4174
g89
g90
ssg71
g4163
sg64
(lp4175
S':'
asbag57
(g78
g59
NtRp4176
(dp4177
g62
(dp4178
sg71
g4163
sg64
(lp4179
g57
(g58
g59
NtRp4180
(dp4181
g62
(dp4182
g70
I5
ssg71
g4176
sg64
(lp4183
g57
(g66
g59
NtRp4184
(dp4185
g62
(dp4186
g70
I4
ssg71
Nsg64
(lp4187
g57
(g73
g59
NtRp4188
(dp4189
g62
(dp4190
sg71
g4184
sg64
(lp4191
g57
(g78
g59
NtRp4192
(dp4193
g62
(dp4194
sg71
g4188
sg64
(lp4195
g57
(g58
g59
NtRp4196
(dp4197
g62
(dp4198
g70
I4
ssg71
g4192
sg64
(lp4199
S'*'
asbasbasbasbasbasbasbag57
(g73
g59
NtRp4200
(dp4201
g62
(dp4202
sg71
g3832
sg64
(lp4203
g57
(g78
g59
NtRp4204
(dp4205
g62
(dp4206
g82
g83
ssg71
g4200
sg64
(lp4207
S'headers'
p4208
asbag57
(g78
g59
NtRp4209
(dp4210
g62
(dp4211
g89
g90
ssg71
g4200
sg64
(lp4212
S':'
asbag57
(g78
g59
NtRp4213
(dp4214
g62
(dp4215
sg71
g4200
sg64
(lp4216
g57
(g58
g59
NtRp4217
(dp4218
g62
(dp4219
g70
I5
ssg71
g4213
sg64
(lp4220
g57
(g66
g59
NtRp4221
(dp4222
g62
(dp4223
g70
I4
ssg71
Nsg64
(lp4224
g57
(g73
g59
NtRp4225
(dp4226
g62
(dp4227
sg71
g4221
sg64
(lp4228
g57
(g78
g59
NtRp4229
(dp4230
g62
(dp4231
g82
g83
ssg71
g4225
sg64
(lp4232
S'Cache-Control'
p4233
asbag57
(g78
g59
NtRp4234
(dp4235
g62
(dp4236
g89
g90
ssg71
g4225
sg64
(lp4237
S':'
asbag57
(g78
g59
NtRp4238
(dp4239
g62
(dp4240
sg71
g4225
sg64
(lp4241
g57
(g58
g59
NtRp4242
(dp4243
g62
(dp4244
g70
I4
ssg71
g4238
sg64
(lp4245
S'no-store, no-cache, must-revalidate, post-check=0, pre-check=0'
p4246
asbasbasbag57
(g73
g59
NtRp4247
(dp4248
g62
(dp4249
sg71
g4221
sg64
(lp4250
g57
(g78
g59
NtRp4251
(dp4252
g62
(dp4253
g82
g83
ssg71
g4247
sg64
(lp4254
S'Content-Disposition'
p4255
asbag57
(g78
g59
NtRp4256
(dp4257
g62
(dp4258
g89
g90
ssg71
g4247
sg64
(lp4259
S':'
asbag57
(g78
g59
NtRp4260
(dp4261
g62
(dp4262
sg71
g4247
sg64
(lp4263
g57
(g58
g59
NtRp4264
(dp4265
g62
(dp4266
g70
I4
ssg71
g4260
sg64
(lp4267
S'attachment;filename=rows.csv;'
p4268
asbasbasbag57
(g73
g59
NtRp4269
(dp4270
g62
(dp4271
sg71
g4221
sg64
(lp4272
g57
(g78
g59
NtRp4273
(dp4274
g62
(dp4275
g82
g83
ssg71
g4269
sg64
(lp4276
S'Content-Type'
p4277
asbag57
(g78
g59
NtRp4278
(dp4279
g62
(dp4280
g89
g90
ssg71
g4269
sg64
(lp4281
S':'
asbag57
(g78
g59
NtRp4282
(dp4283
g62
(dp4284
sg71
g4269
sg64
(lp4285
g57
(g58
g59
NtRp4286
(dp4287
g62
(dp4288
g70
I4
ssg71
g4282
sg64
(lp4289
S'text/csv'
p4290
asbasbasbag57
(g73
g59
NtRp4291
(dp4292
g62
(dp4293
sg71
g4221
sg64
(lp4294
g57
(g78
g59
NtRp4295
(dp4296
g62
(dp4297
g82
g83
ssg71
g4291
sg64
(lp4298
S'Expires'
p4299
asbag57
(g78
g59
NtRp4300
(dp4301
g62
(dp4302
g89
g90
ssg71
g4291
sg64
(lp4303
S':'
asbag57
(g78
g59
NtRp4304
(dp4305
g62
(dp4306
sg71
g4291
sg64
(lp4307
g57
(g58
g59
NtRp4308
(dp4309
g62
(dp4310
g70
I4
ssg71
g4304
sg64
(lp4311
S'Sun, 15 Nov 2015 21:53:35 GMT'
p4312
asbasbasbag57
(g73
g59
NtRp4313
(dp4314
g62
(dp4315
sg71
g4221
sg64
(lp4316
g57
(g78
g59
NtRp4317
(dp4318
g62
(dp4319
g82
g83
ssg71
g4313
sg64
(lp4320
S'Pragma'
p4321
asbag57
(g78
g59
NtRp4322
(dp4323
g62
(dp4324
g89
g90
ssg71
g4313
sg64
(lp4325
S':'
asbag57
(g78
g59
NtRp4326
(dp4327
g62
(dp4328
sg71
g4313
sg64
(lp4329
g57
(g58
g59
NtRp4330
(dp4331
g62
(dp4332
g70
I4
ssg71
g4326
sg64
(lp4333
S'no-cache'
p4334
asbasbasbag57
(g73
g59
NtRp4335
(dp4336
g62
(dp4337
sg71
g4221
sg64
(lp4338
g57
(g78
g59
NtRp4339
(dp4340
g62
(dp4341
g82
g83
ssg71
g4335
sg64
(lp4342
S'X-Powered-By'
p4343
asbag57
(g78
g59
NtRp4344
(dp4345
g62
(dp4346
g89
g90
ssg71
g4335
sg64
(lp4347
S':'
asbag57
(g78
g59
NtRp4348
(dp4349
g62
(dp4350
sg71
g4335
sg64
(lp4351
g57
(g58
g59
NtRp4352
(dp4353
g62
(dp4354
g70
I4
ssg71
g4348
sg64
(lp4355
S'web2py'
p4356
asbasbasbasbasbasbasbag57
(g73
g59
NtRp4357
(dp4358
g62
(dp4359
sg71
g3832
sg64
(lp4360
g57
(g78
g59
NtRp4361
(dp4362
g62
(dp4363
g82
g83
ssg71
g4357
sg64
(lp4364
S'menu'
p4365
asbag57
(g78
g59
NtRp4366
(dp4367
g62
(dp4368
g89
g90
ssg71
g4357
sg64
(lp4369
S':'
asbag57
(g78
g59
NtRp4370
(dp4371
g62
(dp4372
sg71
g4357
sg64
(lp4373
g57
(g58
g59
NtRp4374
(dp4375
g62
(dp4376
g70
I5
ssg71
g4370
sg64
(lp4377
g57
(g66
g59
NtRp4378
(dp4379
g62
(dp4380
g70
I4
ssg71
Nsg64
(lp4381
g57
(g73
g59
NtRp4382
(dp4383
g62
(dp4384
sg71
g4378
sg64
(lp4385
g57
(g78
g59
NtRp4386
(dp4387
g62
(dp4388
sg71
g4382
sg64
(lp4389
g57
(g58
g59
NtRp4390
(dp4391
g62
(dp4392
g70
I4
ssg71
g4386
sg64
(lp4393
g57
(g66
g59
NtRp4394
(dp4395
g62
(dp4396
g70
I3
ssg71
Nsg64
(lp4397
g57
(g73
g59
NtRp4398
(dp4399
g62
(dp4400
sg71
g4394
sg64
(lp4401
g57
(g78
g59
NtRp4402
(dp4403
g62
(dp4404
sg71
g4398
sg64
(lp4405
g57
(g58
g59
NtRp4406
(dp4407
g62
(dp4408
g70
I3
ssg71
g4402
sg64
(lp4409
cgluon.languages
lazyT_unpickle
p4410
(S't\x04\x00\x00\x00Home'
tRp4411
asbasbasbag57
(g73
g59
NtRp4412
(dp4413
g62
(dp4414
sg71
g4394
sg64
(lp4415
g57
(g78
g59
NtRp4416
(dp4417
g62
(dp4418
sg71
g4412
sg64
(lp4419
g57
(g58
g59
NtRp4420
(dp4421
g62
(dp4422
g70
I3
ssg71
g4416
sg64
(lp4423
g100
asbasbasbag57
(g73
g59
NtRp4424
(dp4425
g62
(dp4426
sg71
g4394
sg64
(lp4427
g57
(g78
g59
NtRp4428
(dp4429
g62
(dp4430
sg71
g4424
sg64
(lp4431
g57
(g58
g59
NtRp4432
(dp4433
g62
(dp4434
g70
I3
ssg71
g4428
sg64
(lp4435
S'/IIITCourier/default/index'
p4436
asbasbasbag57
(g73
g59
NtRp4437
(dp4438
g62
(dp4439
sg71
g4394
sg64
(lp4440
g57
(g78
g59
NtRp4441
(dp4442
g62
(dp4443
sg71
g4437
sg64
(lp4444
g57
(g58
g59
NtRp4445
(dp4446
g62
(dp4447
g70
I3
ssg71
g4441
sg64
(lp4448
g57
(g66
g59
NtRp4449
(dp4450
g62
(dp4451
g70
I2
ssg71
Nsg64
(lp4452
sbasbasbasbasbasbasbasbasbasbasbasbag57
(g73
g59
NtRp4453
(dp4454
g62
(dp4455
sg71
g3832
sg64
(lp4456
g57
(g78
g59
NtRp4457
(dp4458
g62
(dp4459
g82
g83
ssg71
g4453
sg64
(lp4460
S'meta'
p4461
asbag57
(g78
g59
NtRp4462
(dp4463
g62
(dp4464
g89
g90
ssg71
g4453
sg64
(lp4465
S':'
asbag57
(g78
g59
NtRp4466
(dp4467
g62
(dp4468
sg71
g4453
sg64
(lp4469
g57
(g58
g59
NtRp4470
(dp4471
g62
(dp4472
g70
I5
ssg71
g4466
sg64
(lp4473
g57
(g66
g59
NtRp4474
(dp4475
g62
(dp4476
g70
I4
ssg71
Nsg64
(lp4477
g57
(g73
g59
NtRp4478
(dp4479
g62
(dp4480
sg71
g4474
sg64
(lp4481
g57
(g78
g59
NtRp4482
(dp4483
g62
(dp4484
g82
g83
ssg71
g4478
sg64
(lp4485
S'author'
p4486
asbag57
(g78
g59
NtRp4487
(dp4488
g62
(dp4489
g89
g90
ssg71
g4478
sg64
(lp4490
S':'
asbag57
(g78
g59
NtRp4491
(dp4492
g62
(dp4493
sg71
g4478
sg64
(lp4494
g57
(g58
g59
NtRp4495
(dp4496
g62
(dp4497
g70
I4
ssg71
g4491
sg64
(lp4498
S'Your Name <you@example.com>'
p4499
asbasbasbag57
(g73
g59
NtRp4500
(dp4501
g62
(dp4502
sg71
g4474
sg64
(lp4503
g57
(g78
g59
NtRp4504
(dp4505
g62
(dp4506
g82
g83
ssg71
g4500
sg64
(lp4507
S'copyright'
p4508
asbag57
(g78
g59
NtRp4509
(dp4510
g62
(dp4511
g89
g90
ssg71
g4500
sg64
(lp4512
S':'
asbag57
(g78
g59
NtRp4513
(dp4514
g62
(dp4515
sg71
g4500
sg64
(lp4516
g57
(g58
g59
NtRp4517
(dp4518
g62
(dp4519
g70
I4
ssg71
g4513
sg64
(lp4520
S'Copyright 2015'
p4521
asbasbasbag57
(g73
g59
NtRp4522
(dp4523
g62
(dp4524
sg71
g4474
sg64
(lp4525
g57
(g78
g59
NtRp4526
(dp4527
g62
(dp4528
g82
g83
ssg71
g4522
sg64
(lp4529
S'description'
p4530
asbag57
(g78
g59
NtRp4531
(dp4532
g62
(dp4533
g89
g90
ssg71
g4522
sg64
(lp4534
S':'
asbag57
(g78
g59
NtRp4535
(dp4536
g62
(dp4537
sg71
g4522
sg64
(lp4538
g57
(g58
g59
NtRp4539
(dp4540
g62
(dp4541
g70
I4
ssg71
g4535
sg64
(lp4542
S'a cool new app'
p4543
asbasbasbag57
(g73
g59
NtRp4544
(dp4545
g62
(dp4546
sg71
g4474
sg64
(lp4547
g57
(g78
g59
NtRp4548
(dp4549
g62
(dp4550
g82
g83
ssg71
g4544
sg64
(lp4551
S'generator'
p4552
asbag57
(g78
g59
NtRp4553
(dp4554
g62
(dp4555
g89
g90
ssg71
g4544
sg64
(lp4556
S':'
asbag57
(g78
g59
NtRp4557
(dp4558
g62
(dp4559
sg71
g4544
sg64
(lp4560
g57
(g58
g59
NtRp4561
(dp4562
g62
(dp4563
g70
I4
ssg71
g4557
sg64
(lp4564
S'Web2py Web Framework'
p4565
asbasbasbag57
(g73
g59
NtRp4566
(dp4567
g62
(dp4568
sg71
g4474
sg64
(lp4569
g57
(g78
g59
NtRp4570
(dp4571
g62
(dp4572
g82
g83
ssg71
g4566
sg64
(lp4573
S'keywords'
p4574
asbag57
(g78
g59
NtRp4575
(dp4576
g62
(dp4577
g89
g90
ssg71
g4566
sg64
(lp4578
S':'
asbag57
(g78
g59
NtRp4579
(dp4580
g62
(dp4581
sg71
g4566
sg64
(lp4582
g57
(g58
g59
NtRp4583
(dp4584
g62
(dp4585
g70
I4
ssg71
g4579
sg64
(lp4586
S'web2py, python, framework'
p4587
asbasbasbasbasbasbasbag57
(g73
g59
NtRp4588
(dp4589
g62
(dp4590
sg71
g3832
sg64
(lp4591
g57
(g78
g59
NtRp4592
(dp4593
g62
(dp4594
g82
g83
ssg71
g4588
sg64
(lp4595
S'postprocessing'
p4596
asbag57
(g78
g59
NtRp4597
(dp4598
g62
(dp4599
g89
g90
ssg71
g4588
sg64
(lp4600
S':'
asbag57
(g78
g59
NtRp4601
(dp4602
g62
(dp4603
sg71
g4588
sg64
(lp4604
g57
(g58
g59
NtRp4605
(dp4606
g62
(dp4607
g70
I5
ssg71
g4601
sg64
(lp4608
g57
(g66
g59
NtRp4609
(dp4610
g62
(dp4611
g70
I4
ssg71
Nsg64
(lp4612
sbasbasbasbag57
(g73
g59
NtRp4613
(dp4614
g62
(dp4615
sg71
g3832
sg64
(lp4616
g57
(g78
g59
NtRp4617
(dp4618
g62
(dp4619
g82
g83
ssg71
g4613
sg64
(lp4620
S'session_file'
p4621
asbag57
(g78
g59
NtRp4622
(dp4623
g62
(dp4624
g89
g90
ssg71
g4613
sg64
(lp4625
S':'
asbag57
(g78
g59
NtRp4626
(dp4627
g62
(dp4628
sg71
g4613
sg64
(lp4629
g57
(g58
g59
NtRp4630
(dp4631
g62
(dp4632
g70
I5
ssg71
g4626
sg64
(lp4633
S"<open file '/home/game_boy/web2py/applications/IIITCourier/sessions/127.0.0.1-d80de6ec-cf5d-4cf3-8d7c-fad6af1bba5b', mode 'rb+' at 0x7fa6c7ed74b0>"
p4634
asbasbasbag57
(g73
g59
NtRp4635
(dp4636
g62
(dp4637
sg71
g3832
sg64
(lp4638
g57
(g78
g59
NtRp4639
(dp4640
g62
(dp4641
g82
g83
ssg71
g4635
sg64
(lp4642
S'session_filename'
p4643
asbag57
(g78
g59
NtRp4644
(dp4645
g62
(dp4646
g89
g90
ssg71
g4635
sg64
(lp4647
S':'
asbag57
(g78
g59
NtRp4648
(dp4649
g62
(dp4650
sg71
g4635
sg64
(lp4651
g57
(g58
g59
NtRp4652
(dp4653
g62
(dp4654
g70
I5
ssg71
g4648
sg64
(lp4655
S'/home/game_boy/web2py/applications/IIITCourier/sessions/127.0.0.1-d80de6ec-cf5d-4cf3-8d7c-fad6af1bba5b'
p4656
asbasbasbag57
(g73
g59
NtRp4657
(dp4658
g62
(dp4659
sg71
g3832
sg64
(lp4660
g57
(g78
g59
NtRp4661
(dp4662
g62
(dp4663
g82
g83
ssg71
g4657
sg64
(lp4664
S'session_id'
p4665
asbag57
(g78
g59
NtRp4666
(dp4667
g62
(dp4668
g89
g90
ssg71
g4657
sg64
(lp4669
S':'
asbag57
(g78
g59
NtRp4670
(dp4671
g62
(dp4672
sg71
g4657
sg64
(lp4673
g57
(g58
g59
NtRp4674
(dp4675
g62
(dp4676
g70
I5
ssg71
g4670
sg64
(lp4677
S'127.0.0.1-d80de6ec-cf5d-4cf3-8d7c-fad6af1bba5b'
p4678
asbasbasbag57
(g73
g59
NtRp4679
(dp4680
g62
(dp4681
sg71
g3832
sg64
(lp4682
g57
(g78
g59
NtRp4683
(dp4684
g62
(dp4685
g82
g83
ssg71
g4679
sg64
(lp4686
S'session_id_name'
p4687
asbag57
(g78
g59
NtRp4688
(dp4689
g62
(dp4690
g89
g90
ssg71
g4679
sg64
(lp4691
S':'
asbag57
(g78
g59
NtRp4692
(dp4693
g62
(dp4694
sg71
g4679
sg64
(lp4695
g57
(g58
g59
NtRp4696
(dp4697
g62
(dp4698
g70
I5
ssg71
g4692
sg64
(lp4699
g3889
asbasbasbag57
(g73
g59
NtRp4700
(dp4701
g62
(dp4702
sg71
g3832
sg64
(lp4703
g57
(g78
g59
NtRp4704
(dp4705
g62
(dp4706
g82
g83
ssg71
g4700
sg64
(lp4707
S'session_locked'
p4708
asbag57
(g78
g59
NtRp4709
(dp4710
g62
(dp4711
g89
g90
ssg71
g4700
sg64
(lp4712
S':'
asbag57
(g78
g59
NtRp4713
(dp4714
g62
(dp4715
sg71
g4700
sg64
(lp4716
g57
(g58
g59
NtRp4717
(dp4718
g62
(dp4719
g70
I5
ssg71
g4713
sg64
(lp4720
g1670
asbasbasbag57
(g73
g59
NtRp4721
(dp4722
g62
(dp4723
sg71
g3832
sg64
(lp4724
g57
(g78
g59
NtRp4725
(dp4726
g62
(dp4727
g82
g83
ssg71
g4721
sg64
(lp4728
S'session_new'
p4729
asbag57
(g78
g59
NtRp4730
(dp4731
g62
(dp4732
g89
g90
ssg71
g4721
sg64
(lp4733
S':'
asbag57
(g78
g59
NtRp4734
(dp4735
g62
(dp4736
sg71
g4721
sg64
(lp4737
g57
(g58
g59
NtRp4738
(dp4739
g62
(dp4740
g70
I5
ssg71
g4734
sg64
(lp4741
g100
asbasbasbag57
(g73
g59
NtRp4742
(dp4743
g62
(dp4744
sg71
g3832
sg64
(lp4745
g57
(g78
g59
NtRp4746
(dp4747
g62
(dp4748
g82
g83
ssg71
g4742
sg64
(lp4749
S'status'
p4750
asbag57
(g78
g59
NtRp4751
(dp4752
g62
(dp4753
g89
g90
ssg71
g4742
sg64
(lp4754
S':'
asbag57
(g78
g59
NtRp4755
(dp4756
g62
(dp4757
sg71
g4742
sg64
(lp4758
g57
(g58
g59
NtRp4759
(dp4760
g62
(dp4761
g70
I5
ssg71
g4755
sg64
(lp4762
S'200'
p4763
asbasbasbag57
(g73
g59
NtRp4764
(dp4765
g62
(dp4766
sg71
g3832
sg64
(lp4767
g57
(g78
g59
NtRp4768
(dp4769
g62
(dp4770
g82
g83
ssg71
g4764
sg64
(lp4771
S'subtitle'
p4772
asbag57
(g78
g59
NtRp4773
(dp4774
g62
(dp4775
g89
g90
ssg71
g4764
sg64
(lp4776
S':'
asbag57
(g78
g59
NtRp4777
(dp4778
g62
(dp4779
sg71
g4764
sg64
(lp4780
g57
(g58
g59
NtRp4781
(dp4782
g62
(dp4783
g70
I5
ssg71
g4777
sg64
(lp4784
g4410
(S's\r\x00\x00\x00customize me!'
tRp4785
asbasbasbag57
(g73
g59
NtRp4786
(dp4787
g62
(dp4788
sg71
g3832
sg64
(lp4789
g57
(g78
g59
NtRp4790
(dp4791
g62
(dp4792
g82
g83
ssg71
g4786
sg64
(lp4793
S'title'
p4794
asbag57
(g78
g59
NtRp4795
(dp4796
g62
(dp4797
g89
g90
ssg71
g4786
sg64
(lp4798
S':'
asbag57
(g78
g59
NtRp4799
(dp4800
g62
(dp4801
sg71
g4786
sg64
(lp4802
g57
(g58
g59
NtRp4803
(dp4804
g62
(dp4805
g70
I5
ssg71
g4799
sg64
(lp4806
S'Iiitcourier'
p4807
asbasbasbag57
(g73
g59
NtRp4808
(dp4809
g62
(dp4810
sg71
g3832
sg64
(lp4811
g57
(g78
g59
NtRp4812
(dp4813
g62
(dp4814
g82
g83
ssg71
g4808
sg64
(lp4815
g2376
asbag57
(g78
g59
NtRp4816
(dp4817
g62
(dp4818
g89
g90
ssg71
g4808
sg64
(lp4819
S':'
asbag57
(g78
g59
NtRp4820
(dp4821
g62
(dp4822
sg71
g4808
sg64
(lp4823
g57
(g58
g59
NtRp4824
(dp4825
g62
(dp4826
g70
I5
ssg71
g4820
sg64
(lp4827
g2389
asbasbasbag57
(g73
g59
NtRp4828
(dp4829
g62
(dp4830
sg71
g3832
sg64
(lp4831
g57
(g78
g59
NtRp4832
(dp4833
g62
(dp4834
g82
g83
ssg71
g4828
sg64
(lp4835
S'view'
p4836
asbag57
(g78
g59
NtRp4837
(dp4838
g62
(dp4839
g89
g90
ssg71
g4828
sg64
(lp4840
S':'
asbag57
(g78
g59
NtRp4841
(dp4842
g62
(dp4843
sg71
g4828
sg64
(lp4844
g57
(g58
g59
NtRp4845
(dp4846
g62
(dp4847
g70
I5
ssg71
g4841
sg64
(lp4848
S'default/searchPage.html'
p4849
asbasbasbasbasbsS'locals'
p4850
(dp4851
S'second'
p4852
S'None'
p4853
sS'self'
p4854
S'<gluon.dal.SQLiteAdapter object>'
p4855
sS'first'
p4856
S'<gluon.dal.Field object>'
p4857
sssS'traceback'
p4858
S'Traceback (most recent call last):\n  File "/usr/lib/pymodules/python2.7/gluon/restricted.py", line 205, in restricted\n    exec ccode in environment\n  File "/home/game_boy/web2py/applications/IIITCourier/controllers/default.py", line 132, in <module>\n  File "/usr/lib/pymodules/python2.7/gluon/globals.py", line 173, in <lambda>\n    self._caller = lambda f: f()\n  File "/home/game_boy/web2py/applications/IIITCourier/controllers/default.py", line 60, in searchPage\n    rows=SQLFORM.grid(query = query,searchable=False,details=False,deletable=False,create=False);\n  File "/usr/lib/pymodules/python2.7/gluon/sqlhtml.py", line 1624, in grid\n    raise HTTP(200,str(dbset.select()),\n  File "/usr/lib/pymodules/python2.7/gluon/dal.py", line 7578, in select\n    return adapter.select(self.query,fields,attributes)\n  File "/usr/lib/pymodules/python2.7/gluon/dal.py", line 1307, in select\n    sql = self._select(query, fields, attributes)\n  File "/usr/lib/pymodules/python2.7/gluon/dal.py", line 1756, in _select\n    sql = super(SQLiteAdapter, self)._select(query, fields, attributes)\n  File "/usr/lib/pymodules/python2.7/gluon/dal.py", line 1200, in _select\n    sql_w = \' WHERE \' + self.expand(query)\n  File "/usr/lib/pymodules/python2.7/gluon/dal.py", line 1046, in expand\n    return expression.op(expression.first, expression.second)\n  File "/usr/lib/pymodules/python2.7/gluon/dal.py", line 946, in AND\n    return \'(%s AND %s)\' % (self.expand(first), self.expand(second))\n  File "/usr/lib/pymodules/python2.7/gluon/dal.py", line 1046, in expand\n    return expression.op(expression.first, expression.second)\n  File "/usr/lib/pymodules/python2.7/gluon/dal.py", line 946, in AND\n    return \'(%s AND %s)\' % (self.expand(first), self.expand(second))\n  File "/usr/lib/pymodules/python2.7/gluon/dal.py", line 1046, in expand\n    return expression.op(expression.first, expression.second)\n  File "/usr/lib/pymodules/python2.7/gluon/dal.py", line 946, in AND\n    return \'(%s AND %s)\' % (self.expand(first), self.expand(second))\n  File "/usr/lib/pymodules/python2.7/gluon/dal.py", line 1048, in expand\n    return expression.op(expression.first)\n  File "/usr/lib/pymodules/python2.7/gluon/dal.py", line 1011, in GE\n    raise RuntimeError, "Cannot compare %s >= None" % first\nRuntimeError: Cannot compare courierDetails.Date_received >= None\n'
p4859
s.