(dp1
S'output'
p2
S"<type 'exceptions.SyntaxError'> non-keyword arg after keyword arg (user.html, line 24)"
p3
sS'layer'
p4
S'/home/game_boy/web2py/applications/IIITCourier/views/default/user.html'
p5
sS'code'
p6
S'response.write(\'<!DOCTYPE html PUBLIC "-//W3C//DTD XHTML 1.0 Strict//EN" "http://www.w3.org/TR/xhtml1/DTD/xhtml1-strict.dtd">\\n<!--\\n\\nDesign by Free CSS Templates\\nhttp://www.freecsstemplates.org\\nReleased for free under a Creative Commons Attribution 2.5 License\\n\\nTitle      : Boorish\\nVersion    : 1.0\\nReleased   : 20080123\\nDescription: A wide two-column design suitable for blogs and small websites.\\n\\n-->\\n<html xmlns="http://www.w3.org/1999/xhtml">\\n <head>\\n  <title>\\n   \', escape=False)\nresponse.write(response.title or request.application)\nresponse.write(\'\\n  </title>\\n  \', escape=False)\nresponse.files.append(URL(request.application,\'static\',\'plugin_layouts/layouts/Boorish/default.css\'))\nresponse.write(\'\\n  \', escape=False)\nresponse.files.append(URL(\'static\',\'plugin_layouts/superfish.js\'))\nresponse.write(\'\\n  \', escape=False)\nresponse.write(\'<script type="text/javascript"><!--\\n    // These variables are used by the web2py_ajax_init function in web2py_ajax.js (which is loaded below).\\n    var w2p_ajax_confirm_message = "\', escape=False)\nresponse.write(T(\'Are you sure you want to delete this object?\'))\nresponse.write(\'";\\n    var w2p_ajax_date_format = "\', escape=False)\nresponse.write(T(\'%Y-%m-%d\'))\nresponse.write(\'";\\n    var w2p_ajax_datetime_format = "\', escape=False)\nresponse.write(T(\'%Y-%m-%d %H:%M:%S\'))\nresponse.write(\'";\\n    //--></script>\\n\', escape=False)\nresponse.files.insert(0,URL(\'static\',\'js/jquery.js\'))\nresponse.files.insert(1,URL(\'static\',\'css/calendar.css\'))\nresponse.files.insert(2,URL(\'static\',\'js/calendar.js\'))\nresponse.files.insert(3,URL(\'static\',\'js/web2py.js\'))\nresponse.include_meta()\nresponse.include_files()\nresponse.write(\'\\n\', escape=False)\nresponse.write(\'\\n  <style>\\nul.web2py-menu-vertical { width: 150px; position: relative; top:1em; left:1em;  z-index:30; border:0; margin:0; padding: 0; list-style: none; text-decoration: none;}\\nul.web2py-menu-vertical li { margin:0; padding:0; border:0; width: 150px; background: black; text-align:left;}\\nul.web2py-menu-vertical li a { margin:0; padding: 1px 3px 1px 3px; border:0; width: 144px; color: white; font-size:12px;}\\ndiv.flash { position: fixed; float: right; padding: 10px; top: 10px; right: 30px; opacity: 0.75; margin: 10px 10px 10px 10px; text-align: center; clear: both; color: #fff; font-size: 11pt; text-align: center; vertical-align: middle; cursor: pointer; background: black; border: 2px solid #fff; -moz-border-radius: 5px; -webkit-border-radius: 5px; z-index: 2; }\\ndiv.error { background-color: red; color: white; padding: 3px; }\\n.auth_navbar { text-align:right; z-index:20; position: absolute; top: 2px; right:30px; border:0; padding:0 }\\n  </style>\\n </head>\\n <body>\\n  <!-- start header -->\\n  \', escape=False)\ntry:\n    response.write(auth.navbar(action=URL(\'default\',\'user\'), sas))\nexcept:pass\nresponse.write(\'\\n\\n  <!-- start header -->\\n  <div id="header">\\n   <div id="logo">\\n    <h1>\\n    IIIT Courier\\n    </h1>\\n   </div>\\n   <div id="menu">\\n    \', escape=False)\nresponse.write(MENU(response.menu,_class=\'web2py-menu\'))\nresponse.write(\'\\n    <script>\\n      jQuery(document).ready(function(){jQuery(\\\'ul.web2py-menu\\\').superfish({delay:400});});\\n    </script>\\n   </div>\\n  </div>\\n  <!-- end header -->\\n  <!-- start page -->\\n  <div id="page">\\n   <!-- start content -->\\n   <div id="content">\\n    <div class="flash">\', escape=False)\nresponse.write(response.flash or \'\')\nresponse.write(\'</div>\\n    \', escape=False)\nresponse.write(\'\\n<h2>\', escape=False)\nresponse.write(T( request.args(0).replace(\'_\',\' \').capitalize() ))\nresponse.write(\'</h2>\\n<div id="web2py_user_form">\\n  \', escape=False)\nresponse.write(form)\nresponse.write(\'\\n  <!--\', escape=False)\nif request.args(0)==\'login\':\n    response.write(\'\\n  \', escape=False)\n    if not \'register\' in auth.settings.actions_disabled:\n        response.write(\'\\n  <br/>\\n  <a href="\', escape=False)\n        response.write(URL(args=\'register\'))\n        response.write(\'">\', escape=False)\n        response.write(T(\'Register\'))\n        response.write(\'</a>\\n  \', escape=False)\n        pass\n    response.write(\'\\n  \', escape=False)\n    if not \'request_reset_password\' in auth.settings.actions_disabled:\n        response.write(\'\\n  <br/>\\n  <a href="\', escape=False)\n        response.write(URL(args=\'request_reset_password\'))\n        response.write(\'">\', escape=False)\n        response.write(T(\'Lost Password\'))\n        response.write(\'</a>\\n  \', escape=False)\n        pass\n    response.write(\'\\n  \', escape=False)\n    pass\nresponse.write(\' -->\\n</div>\\n<script language="javascript"><!--\\n      jQuery("#web2py_user_form input:visible:enabled:first").focus();\\n      //--></script>\\n\', escape=False)\nresponse.write(\'\\n   </div>\\n   <!-- end content -->\\n   <!-- start sidebar -->\\n   <!--<div id="sidebar">\\n   <ul>\\n     <li id="search">\\n      <h2>\\n       Search\\n      </h2>\\n      <form method="get" action="">\\n       <fieldset>\\n        <input type="text" id="s" name="s" value="" />\\n        <input type="submit" id="x" value="Search" />\\n       </fieldset>\\n      </form>\\n     </li>\\n     <li>\\n      <h2>\\n       Lorem Ipsum\\n      </h2>\\n      <ul>\\n       <li>\\n        <a href="#">\\n         Fusce dui neque fringilla\\n        </a>\\n       </li>\\n       <li>\\n        <a href="#">\\n         Eget tempor eget nonummy\\n        </a>\\n       </li>\\n       <li>\\n        <a href="#">\\n         Magna lacus bibendum mauris\\n        </a>\\n       </li>\\n       <li>\\n        <a href="#">\\n         Nec metus sed donec\\n        </a>\\n       </li>\\n       <li>\\n        <a href="#">\\n         Magna lacus bibendum mauris\\n        </a>\\n       </li>\\n       <li>\\n        <a href="#">\\n         Velit semper nisi molestie\\n        </a>\\n       </li>\\n       <li>\\n        <a href="#">\\n         Eget tempor eget nonummy\\n        </a>\\n       </li>\\n      </ul>\\n     </li>\\n     <li>\\n      <h2>\\n       Volutpat Dolore\\n      </h2>\\n      <ul>\\n       <li>\\n        <a href="#">\\n         Eget tempor eget nonummy\\n        </a>\\n       </li>\\n       <li>\\n        <a href="#">\\n         Magna lacus bibendum mauris\\n        </a>\\n       </li>\\n       <li>\\n        <a href="#">\\n         Magna lacus bibendum mauris\\n        </a>\\n       </li>\\n       <li>\\n        <a href="#">\\n         Velit semper nisi molestie\\n        </a>\\n       </li>\\n       <li>\\n        <a href="#">\\n         Nec metus sed donec\\n        </a>\\n       </li>\\n       <li>\\n        <a href="#">\\n         Magna lacus bibendum mauris\\n        </a>\\n       </li>\\n       <li>\\n        <a href="#">\\n         Fusce dui neque fringilla\\n        </a>\\n       </li>\\n      </ul>\\n     </li>\\n     <li>\\n      <h2>\\n       Magna Bibendum\\n      </h2>\\n      <ul>\\n       <li>\\n        <a href="#">\\n         Nec metus sed donec\\n        </a>\\n       </li>\\n       <li>\\n        <a href="#">\\n         Magna lacus bibendum mauris\\n        </a>\\n       </li>\\n       <li>\\n        <a href="#">\\n         Velit semper nisi molestie\\n        </a>\\n       </li>\\n       <li>\\n        <a href="#">\\n         Eget tempor eget nonummy\\n        </a>\\n       </li>\\n       <li>\\n        <a href="#">\\n         Nec metus sed donec\\n        </a>\\n       </li>\\n       <li>\\n        <a href="#">\\n         Magna lacus bibendum mauris\\n        </a>\\n       </li>\\n       <li>\\n        <a href="#">\\n         Velit semper nisi molestie\\n        </a>\\n       </li>\\n      </ul>\\n     </li>\\n    </ul>\\n    <div style="clear: both;">\\n     &nbsp;\\n    </div>\\n   </div>\\n   <!-- end sidebar -->\\n  </div>\\n  <!-- end page -->\\n  <div id="footer">\\n   <p id="legal">\\n    &copy;2007 IIIT. All Rights Reserved. | Designed by Mohit Sharma and Sonam Gupta\\n   </p>\\n  </div>\\n </body>\\n</html>\\n\', escape=False)'
p7
sS'snapshot'
p8
(dp9
S'exception'
p10
(dp11
S'__getslice__'
p12
S"<method-wrapper '__getslice__' of exceptions.SyntaxError object>"
p13
sS'text'
p14
S"''"
p15
sS'__str__'
p16
S"<method-wrapper '__str__' of exceptions.SyntaxError object>"
p17
sS'__reduce__'
p18
S'<built-in method __reduce__ of exceptions.SyntaxError object>'
p19
sS'__dict__'
p20
S'{}'
p21
sS'__sizeof__'
p22
S'<built-in method __sizeof__ of exceptions.SyntaxError object>'
p23
sS'__init__'
p24
S"<method-wrapper '__init__' of exceptions.SyntaxError object>"
p25
sS'__setattr__'
p26
S"<method-wrapper '__setattr__' of exceptions.SyntaxError object>"
p27
sS'__reduce_ex__'
p28
S'<built-in method __reduce_ex__ of exceptions.SyntaxError object>'
p29
sS'__new__'
p30
S'<built-in method __new__ of type object>'
p31
sS'__format__'
p32
S'<built-in method __format__ of exceptions.SyntaxError object>'
p33
sS'__class__'
p34
S"<type 'exceptions.SyntaxError'>"
p35
sS'filename'
p36
S"'/home/game_boy/web2py/applications/IIITCourier/views/default/user.html'"
p37
sS'lineno'
p38
S'24'
p39
sS'msg'
p40
S"'non-keyword arg after keyword arg'"
p41
sS'__doc__'
p42
S"'Invalid syntax.'"
p43
sS'__getitem__'
p44
S"<method-wrapper '__getitem__' of exceptions.SyntaxError object>"
p45
sS'__setstate__'
p46
S'<built-in method __setstate__ of exceptions.SyntaxError object>'
p47
sS'__getattribute__'
p48
S"<method-wrapper '__getattribute__' of exceptions.SyntaxError object>"
p49
sS'print_file_and_line'
p50
S'None'
p51
sS'args'
p52
S"('non-keyword arg after keyword arg', ('/home/game_boy/web2py/applications/IIITCourier/views/default/user.html', 24, None, ''))"
p53
sS'__subclasshook__'
p54
S'<built-in method __subclasshook__ of type object>'
p55
sS'offset'
p56
S'None'
p57
sS'__unicode__'
p58
S'<built-in method __unicode__ of exceptions.SyntaxError object>'
p59
sS'__delattr__'
p60
S"<method-wrapper '__delattr__' of exceptions.SyntaxError object>"
p61
sS'__repr__'
p62
S"<method-wrapper '__repr__' of exceptions.SyntaxError object>"
p63
sS'__hash__'
p64
S"<method-wrapper '__hash__' of exceptions.SyntaxError object>"
p65
ssS'evalue'
p66
S'non-keyword arg after keyword arg (user.html, line 24)'
p67
sS'request'
p68
ccopy_reg
_reconstructor
p69
(cgluon.html
BEAUTIFY
p70
c__builtin__
object
p71
NtRp72
(dp73
S'attributes'
p74
(dp75
sS'components'
p76
(lp77
g69
(cgluon.html
TABLE
p78
g71
NtRp79
(dp80
g74
(dp81
S'level'
p82
I5
ssS'parent'
p83
Nsg76
(lp84
g69
(cgluon.html
TR
p85
g71
NtRp86
(dp87
g74
(dp88
sg83
g79
sg76
(lp89
g69
(cgluon.html
TD
p90
g71
NtRp91
(dp92
g74
(dp93
S'_style'
p94
S'font-weight:bold;vertical-align:top'
p95
ssg83
g86
sg76
(lp96
S'ajax'
p97
asbag69
(g90
g71
NtRp98
(dp99
g74
(dp100
S'_valign'
p101
S'top'
p102
ssg83
g86
sg76
(lp103
S':'
asbag69
(g90
g71
NtRp104
(dp105
g74
(dp106
sg83
g86
sg76
(lp107
g69
(g70
g71
NtRp108
(dp109
g74
(dp110
g82
I5
ssg83
g104
sg76
(lp111
S'False'
p112
asbasbasbag69
(g85
g71
NtRp113
(dp114
g74
(dp115
sg83
g79
sg76
(lp116
g69
(g90
g71
NtRp117
(dp118
g74
(dp119
g94
g95
ssg83
g113
sg76
(lp120
S'application'
p121
asbag69
(g90
g71
NtRp122
(dp123
g74
(dp124
g101
g102
ssg83
g113
sg76
(lp125
S':'
asbag69
(g90
g71
NtRp126
(dp127
g74
(dp128
sg83
g113
sg76
(lp129
g69
(g70
g71
NtRp130
(dp131
g74
(dp132
g82
I5
ssg83
g126
sg76
(lp133
S'IIITCourier'
p134
asbasbasbag69
(g85
g71
NtRp135
(dp136
g74
(dp137
sg83
g79
sg76
(lp138
g69
(g90
g71
NtRp139
(dp140
g74
(dp141
g94
g95
ssg83
g135
sg76
(lp142
g52
asbag69
(g90
g71
NtRp143
(dp144
g74
(dp145
g101
g102
ssg83
g135
sg76
(lp146
S':'
asbag69
(g90
g71
NtRp147
(dp148
g74
(dp149
sg83
g135
sg76
(lp150
g69
(g70
g71
NtRp151
(dp152
g74
(dp153
g82
I5
ssg83
g147
sg76
(lp154
g69
(g78
g71
NtRp155
(dp156
g74
(dp157
g82
I4
ssg83
Nsg76
(lp158
g69
(g85
g71
NtRp159
(dp160
g74
(dp161
sg83
g155
sg76
(lp162
g69
(g90
g71
NtRp163
(dp164
g74
(dp165
sg83
g159
sg76
(lp166
g69
(g70
g71
NtRp167
(dp168
g74
(dp169
g82
I4
ssg83
g163
sg76
(lp170
S'login'
p171
asbasbasbasbasbasbasbag69
(g85
g71
NtRp172
(dp173
g74
(dp174
sg83
g79
sg76
(lp175
g69
(g90
g71
NtRp176
(dp177
g74
(dp178
g94
g95
ssg83
g172
sg76
(lp179
S'body'
p180
asbag69
(g90
g71
NtRp181
(dp182
g74
(dp183
g101
g102
ssg83
g172
sg76
(lp184
S':'
asbag69
(g90
g71
NtRp185
(dp186
g74
(dp187
sg83
g172
sg76
(lp188
g69
(g70
g71
NtRp189
(dp190
g74
(dp191
g82
I5
ssg83
g185
sg76
(lp192
S'<cStringIO.StringO object at 0x7fa6c74bb1b8>'
p193
asbasbasbag69
(g85
g71
NtRp194
(dp195
g74
(dp196
sg83
g79
sg76
(lp197
g69
(g90
g71
NtRp198
(dp199
g74
(dp200
g94
g95
ssg83
g194
sg76
(lp201
S'client'
p202
asbag69
(g90
g71
NtRp203
(dp204
g74
(dp205
g101
g102
ssg83
g194
sg76
(lp206
S':'
asbag69
(g90
g71
NtRp207
(dp208
g74
(dp209
sg83
g194
sg76
(lp210
g69
(g70
g71
NtRp211
(dp212
g74
(dp213
g82
I5
ssg83
g207
sg76
(lp214
S'127.0.0.1'
p215
asbasbasbag69
(g85
g71
NtRp216
(dp217
g74
(dp218
sg83
g79
sg76
(lp219
g69
(g90
g71
NtRp220
(dp221
g74
(dp222
g94
g95
ssg83
g216
sg76
(lp223
S'controller'
p224
asbag69
(g90
g71
NtRp225
(dp226
g74
(dp227
g101
g102
ssg83
g216
sg76
(lp228
S':'
asbag69
(g90
g71
NtRp229
(dp230
g74
(dp231
sg83
g216
sg76
(lp232
g69
(g70
g71
NtRp233
(dp234
g74
(dp235
g82
I5
ssg83
g229
sg76
(lp236
S'default'
p237
asbasbasbag69
(g85
g71
NtRp238
(dp239
g74
(dp240
sg83
g79
sg76
(lp241
g69
(g90
g71
NtRp242
(dp243
g74
(dp244
g94
g95
ssg83
g238
sg76
(lp245
S'cookies'
p246
asbag69
(g90
g71
NtRp247
(dp248
g74
(dp249
g101
g102
ssg83
g238
sg76
(lp250
S':'
asbag69
(g90
g71
NtRp251
(dp252
g74
(dp253
sg83
g238
sg76
(lp254
g69
(g70
g71
NtRp255
(dp256
g74
(dp257
g82
I5
ssg83
g251
sg76
(lp258
g69
(g78
g71
NtRp259
(dp260
g74
(dp261
g82
I4
ssg83
Nsg76
(lp262
g69
(g85
g71
NtRp263
(dp264
g74
(dp265
sg83
g259
sg76
(lp266
g69
(g90
g71
NtRp267
(dp268
g74
(dp269
g94
g95
ssg83
g263
sg76
(lp270
S'session_id_admin'
p271
asbag69
(g90
g71
NtRp272
(dp273
g74
(dp274
g101
g102
ssg83
g263
sg76
(lp275
S':'
asbag69
(g90
g71
NtRp276
(dp277
g74
(dp278
sg83
g263
sg76
(lp279
g69
(g70
g71
NtRp280
(dp281
g74
(dp282
g82
I4
ssg83
g276
sg76
(lp283
g69
(g78
g71
NtRp284
(dp285
g74
(dp286
g82
I3
ssg83
Nsg76
(lp287
g69
(g85
g71
NtRp288
(dp289
g74
(dp290
sg83
g284
sg76
(lp291
g69
(g90
g71
NtRp292
(dp293
g74
(dp294
g94
g95
ssg83
g288
sg76
(lp295
S'comment'
p296
asbag69
(g90
g71
NtRp297
(dp298
g74
(dp299
g101
g102
ssg83
g288
sg76
(lp300
S':'
asbag69
(g90
g71
NtRp301
(dp302
g74
(dp303
sg83
g288
sg76
(lp304
g69
(g70
g71
NtRp305
(dp306
g74
(dp307
g82
I3
ssg83
g301
sg76
(lp308
S''
asbasbasbag69
(g85
g71
NtRp309
(dp310
g74
(dp311
sg83
g284
sg76
(lp312
g69
(g90
g71
NtRp313
(dp314
g74
(dp315
g94
g95
ssg83
g309
sg76
(lp316
S'domain'
p317
asbag69
(g90
g71
NtRp318
(dp319
g74
(dp320
g101
g102
ssg83
g309
sg76
(lp321
S':'
asbag69
(g90
g71
NtRp322
(dp323
g74
(dp324
sg83
g309
sg76
(lp325
g69
(g70
g71
NtRp326
(dp327
g74
(dp328
g82
I3
ssg83
g322
sg76
(lp329
S''
asbasbasbag69
(g85
g71
NtRp330
(dp331
g74
(dp332
sg83
g284
sg76
(lp333
g69
(g90
g71
NtRp334
(dp335
g74
(dp336
g94
g95
ssg83
g330
sg76
(lp337
S'expires'
p338
asbag69
(g90
g71
NtRp339
(dp340
g74
(dp341
g101
g102
ssg83
g330
sg76
(lp342
S':'
asbag69
(g90
g71
NtRp343
(dp344
g74
(dp345
sg83
g330
sg76
(lp346
g69
(g70
g71
NtRp347
(dp348
g74
(dp349
g82
I3
ssg83
g343
sg76
(lp350
S''
asbasbasbag69
(g85
g71
NtRp351
(dp352
g74
(dp353
sg83
g284
sg76
(lp354
g69
(g90
g71
NtRp355
(dp356
g74
(dp357
g94
g95
ssg83
g351
sg76
(lp358
S'httponly'
p359
asbag69
(g90
g71
NtRp360
(dp361
g74
(dp362
g101
g102
ssg83
g351
sg76
(lp363
S':'
asbag69
(g90
g71
NtRp364
(dp365
g74
(dp366
sg83
g351
sg76
(lp367
g69
(g70
g71
NtRp368
(dp369
g74
(dp370
g82
I3
ssg83
g364
sg76
(lp371
S''
asbasbasbag69
(g85
g71
NtRp372
(dp373
g74
(dp374
sg83
g284
sg76
(lp375
g69
(g90
g71
NtRp376
(dp377
g74
(dp378
g94
g95
ssg83
g372
sg76
(lp379
S'max-age'
p380
asbag69
(g90
g71
NtRp381
(dp382
g74
(dp383
g101
g102
ssg83
g372
sg76
(lp384
S':'
asbag69
(g90
g71
NtRp385
(dp386
g74
(dp387
sg83
g372
sg76
(lp388
g69
(g70
g71
NtRp389
(dp390
g74
(dp391
g82
I3
ssg83
g385
sg76
(lp392
S''
asbasbasbag69
(g85
g71
NtRp393
(dp394
g74
(dp395
sg83
g284
sg76
(lp396
g69
(g90
g71
NtRp397
(dp398
g74
(dp399
g94
g95
ssg83
g393
sg76
(lp400
S'path'
p401
asbag69
(g90
g71
NtRp402
(dp403
g74
(dp404
g101
g102
ssg83
g393
sg76
(lp405
S':'
asbag69
(g90
g71
NtRp406
(dp407
g74
(dp408
sg83
g393
sg76
(lp409
g69
(g70
g71
NtRp410
(dp411
g74
(dp412
g82
I3
ssg83
g406
sg76
(lp413
S''
asbasbasbag69
(g85
g71
NtRp414
(dp415
g74
(dp416
sg83
g284
sg76
(lp417
g69
(g90
g71
NtRp418
(dp419
g74
(dp420
g94
g95
ssg83
g414
sg76
(lp421
S'secure'
p422
asbag69
(g90
g71
NtRp423
(dp424
g74
(dp425
g101
g102
ssg83
g414
sg76
(lp426
S':'
asbag69
(g90
g71
NtRp427
(dp428
g74
(dp429
sg83
g414
sg76
(lp430
g69
(g70
g71
NtRp431
(dp432
g74
(dp433
g82
I3
ssg83
g427
sg76
(lp434
S''
asbasbasbag69
(g85
g71
NtRp435
(dp436
g74
(dp437
sg83
g284
sg76
(lp438
g69
(g90
g71
NtRp439
(dp440
g74
(dp441
g94
g95
ssg83
g435
sg76
(lp442
S'version'
p443
asbag69
(g90
g71
NtRp444
(dp445
g74
(dp446
g101
g102
ssg83
g435
sg76
(lp447
S':'
asbag69
(g90
g71
NtRp448
(dp449
g74
(dp450
sg83
g435
sg76
(lp451
g69
(g70
g71
NtRp452
(dp453
g74
(dp454
g82
I3
ssg83
g448
sg76
(lp455
S''
asbasbasbasbasbasbasbag69
(g85
g71
NtRp456
(dp457
g74
(dp458
sg83
g259
sg76
(lp459
g69
(g90
g71
NtRp460
(dp461
g74
(dp462
g94
g95
ssg83
g456
sg76
(lp463
S'session_id_iiitcourier'
p464
asbag69
(g90
g71
NtRp465
(dp466
g74
(dp467
g101
g102
ssg83
g456
sg76
(lp468
S':'
asbag69
(g90
g71
NtRp469
(dp470
g74
(dp471
sg83
g456
sg76
(lp472
g69
(g70
g71
NtRp473
(dp474
g74
(dp475
g82
I4
ssg83
g469
sg76
(lp476
g69
(g78
g71
NtRp477
(dp478
g74
(dp479
g82
I3
ssg83
Nsg76
(lp480
g69
(g85
g71
NtRp481
(dp482
g74
(dp483
sg83
g477
sg76
(lp484
g69
(g90
g71
NtRp485
(dp486
g74
(dp487
g94
g95
ssg83
g481
sg76
(lp488
g296
asbag69
(g90
g71
NtRp489
(dp490
g74
(dp491
g101
g102
ssg83
g481
sg76
(lp492
S':'
asbag69
(g90
g71
NtRp493
(dp494
g74
(dp495
sg83
g481
sg76
(lp496
g69
(g70
g71
NtRp497
(dp498
g74
(dp499
g82
I3
ssg83
g493
sg76
(lp500
S''
asbasbasbag69
(g85
g71
NtRp501
(dp502
g74
(dp503
sg83
g477
sg76
(lp504
g69
(g90
g71
NtRp505
(dp506
g74
(dp507
g94
g95
ssg83
g501
sg76
(lp508
g317
asbag69
(g90
g71
NtRp509
(dp510
g74
(dp511
g101
g102
ssg83
g501
sg76
(lp512
S':'
asbag69
(g90
g71
NtRp513
(dp514
g74
(dp515
sg83
g501
sg76
(lp516
g69
(g70
g71
NtRp517
(dp518
g74
(dp519
g82
I3
ssg83
g513
sg76
(lp520
S''
asbasbasbag69
(g85
g71
NtRp521
(dp522
g74
(dp523
sg83
g477
sg76
(lp524
g69
(g90
g71
NtRp525
(dp526
g74
(dp527
g94
g95
ssg83
g521
sg76
(lp528
g338
asbag69
(g90
g71
NtRp529
(dp530
g74
(dp531
g101
g102
ssg83
g521
sg76
(lp532
S':'
asbag69
(g90
g71
NtRp533
(dp534
g74
(dp535
sg83
g521
sg76
(lp536
g69
(g70
g71
NtRp537
(dp538
g74
(dp539
g82
I3
ssg83
g533
sg76
(lp540
S''
asbasbasbag69
(g85
g71
NtRp541
(dp542
g74
(dp543
sg83
g477
sg76
(lp544
g69
(g90
g71
NtRp545
(dp546
g74
(dp547
g94
g95
ssg83
g541
sg76
(lp548
g359
asbag69
(g90
g71
NtRp549
(dp550
g74
(dp551
g101
g102
ssg83
g541
sg76
(lp552
S':'
asbag69
(g90
g71
NtRp553
(dp554
g74
(dp555
sg83
g541
sg76
(lp556
g69
(g70
g71
NtRp557
(dp558
g74
(dp559
g82
I3
ssg83
g553
sg76
(lp560
S''
asbasbasbag69
(g85
g71
NtRp561
(dp562
g74
(dp563
sg83
g477
sg76
(lp564
g69
(g90
g71
NtRp565
(dp566
g74
(dp567
g94
g95
ssg83
g561
sg76
(lp568
g380
asbag69
(g90
g71
NtRp569
(dp570
g74
(dp571
g101
g102
ssg83
g561
sg76
(lp572
S':'
asbag69
(g90
g71
NtRp573
(dp574
g74
(dp575
sg83
g561
sg76
(lp576
g69
(g70
g71
NtRp577
(dp578
g74
(dp579
g82
I3
ssg83
g573
sg76
(lp580
S''
asbasbasbag69
(g85
g71
NtRp581
(dp582
g74
(dp583
sg83
g477
sg76
(lp584
g69
(g90
g71
NtRp585
(dp586
g74
(dp587
g94
g95
ssg83
g581
sg76
(lp588
g401
asbag69
(g90
g71
NtRp589
(dp590
g74
(dp591
g101
g102
ssg83
g581
sg76
(lp592
S':'
asbag69
(g90
g71
NtRp593
(dp594
g74
(dp595
sg83
g581
sg76
(lp596
g69
(g70
g71
NtRp597
(dp598
g74
(dp599
g82
I3
ssg83
g593
sg76
(lp600
S''
asbasbasbag69
(g85
g71
NtRp601
(dp602
g74
(dp603
sg83
g477
sg76
(lp604
g69
(g90
g71
NtRp605
(dp606
g74
(dp607
g94
g95
ssg83
g601
sg76
(lp608
g422
asbag69
(g90
g71
NtRp609
(dp610
g74
(dp611
g101
g102
ssg83
g601
sg76
(lp612
S':'
asbag69
(g90
g71
NtRp613
(dp614
g74
(dp615
sg83
g601
sg76
(lp616
g69
(g70
g71
NtRp617
(dp618
g74
(dp619
g82
I3
ssg83
g613
sg76
(lp620
S''
asbasbasbag69
(g85
g71
NtRp621
(dp622
g74
(dp623
sg83
g477
sg76
(lp624
g69
(g90
g71
NtRp625
(dp626
g74
(dp627
g94
g95
ssg83
g621
sg76
(lp628
g443
asbag69
(g90
g71
NtRp629
(dp630
g74
(dp631
g101
g102
ssg83
g621
sg76
(lp632
S':'
asbag69
(g90
g71
NtRp633
(dp634
g74
(dp635
sg83
g621
sg76
(lp636
g69
(g70
g71
NtRp637
(dp638
g74
(dp639
g82
I3
ssg83
g633
sg76
(lp640
S''
asbasbasbasbasbasbasbag69
(g85
g71
NtRp641
(dp642
g74
(dp643
sg83
g259
sg76
(lp644
g69
(g90
g71
NtRp645
(dp646
g74
(dp647
g94
g95
ssg83
g641
sg76
(lp648
S'session_id_welcome'
p649
asbag69
(g90
g71
NtRp650
(dp651
g74
(dp652
g101
g102
ssg83
g641
sg76
(lp653
S':'
asbag69
(g90
g71
NtRp654
(dp655
g74
(dp656
sg83
g641
sg76
(lp657
g69
(g70
g71
NtRp658
(dp659
g74
(dp660
g82
I4
ssg83
g654
sg76
(lp661
g69
(g78
g71
NtRp662
(dp663
g74
(dp664
g82
I3
ssg83
Nsg76
(lp665
g69
(g85
g71
NtRp666
(dp667
g74
(dp668
sg83
g662
sg76
(lp669
g69
(g90
g71
NtRp670
(dp671
g74
(dp672
g94
g95
ssg83
g666
sg76
(lp673
g296
asbag69
(g90
g71
NtRp674
(dp675
g74
(dp676
g101
g102
ssg83
g666
sg76
(lp677
S':'
asbag69
(g90
g71
NtRp678
(dp679
g74
(dp680
sg83
g666
sg76
(lp681
g69
(g70
g71
NtRp682
(dp683
g74
(dp684
g82
I3
ssg83
g678
sg76
(lp685
S''
asbasbasbag69
(g85
g71
NtRp686
(dp687
g74
(dp688
sg83
g662
sg76
(lp689
g69
(g90
g71
NtRp690
(dp691
g74
(dp692
g94
g95
ssg83
g686
sg76
(lp693
g317
asbag69
(g90
g71
NtRp694
(dp695
g74
(dp696
g101
g102
ssg83
g686
sg76
(lp697
S':'
asbag69
(g90
g71
NtRp698
(dp699
g74
(dp700
sg83
g686
sg76
(lp701
g69
(g70
g71
NtRp702
(dp703
g74
(dp704
g82
I3
ssg83
g698
sg76
(lp705
S''
asbasbasbag69
(g85
g71
NtRp706
(dp707
g74
(dp708
sg83
g662
sg76
(lp709
g69
(g90
g71
NtRp710
(dp711
g74
(dp712
g94
g95
ssg83
g706
sg76
(lp713
g338
asbag69
(g90
g71
NtRp714
(dp715
g74
(dp716
g101
g102
ssg83
g706
sg76
(lp717
S':'
asbag69
(g90
g71
NtRp718
(dp719
g74
(dp720
sg83
g706
sg76
(lp721
g69
(g70
g71
NtRp722
(dp723
g74
(dp724
g82
I3
ssg83
g718
sg76
(lp725
S''
asbasbasbag69
(g85
g71
NtRp726
(dp727
g74
(dp728
sg83
g662
sg76
(lp729
g69
(g90
g71
NtRp730
(dp731
g74
(dp732
g94
g95
ssg83
g726
sg76
(lp733
g359
asbag69
(g90
g71
NtRp734
(dp735
g74
(dp736
g101
g102
ssg83
g726
sg76
(lp737
S':'
asbag69
(g90
g71
NtRp738
(dp739
g74
(dp740
sg83
g726
sg76
(lp741
g69
(g70
g71
NtRp742
(dp743
g74
(dp744
g82
I3
ssg83
g738
sg76
(lp745
S''
asbasbasbag69
(g85
g71
NtRp746
(dp747
g74
(dp748
sg83
g662
sg76
(lp749
g69
(g90
g71
NtRp750
(dp751
g74
(dp752
g94
g95
ssg83
g746
sg76
(lp753
g380
asbag69
(g90
g71
NtRp754
(dp755
g74
(dp756
g101
g102
ssg83
g746
sg76
(lp757
S':'
asbag69
(g90
g71
NtRp758
(dp759
g74
(dp760
sg83
g746
sg76
(lp761
g69
(g70
g71
NtRp762
(dp763
g74
(dp764
g82
I3
ssg83
g758
sg76
(lp765
S''
asbasbasbag69
(g85
g71
NtRp766
(dp767
g74
(dp768
sg83
g662
sg76
(lp769
g69
(g90
g71
NtRp770
(dp771
g74
(dp772
g94
g95
ssg83
g766
sg76
(lp773
g401
asbag69
(g90
g71
NtRp774
(dp775
g74
(dp776
g101
g102
ssg83
g766
sg76
(lp777
S':'
asbag69
(g90
g71
NtRp778
(dp779
g74
(dp780
sg83
g766
sg76
(lp781
g69
(g70
g71
NtRp782
(dp783
g74
(dp784
g82
I3
ssg83
g778
sg76
(lp785
S''
asbasbasbag69
(g85
g71
NtRp786
(dp787
g74
(dp788
sg83
g662
sg76
(lp789
g69
(g90
g71
NtRp790
(dp791
g74
(dp792
g94
g95
ssg83
g786
sg76
(lp793
g422
asbag69
(g90
g71
NtRp794
(dp795
g74
(dp796
g101
g102
ssg83
g786
sg76
(lp797
S':'
asbag69
(g90
g71
NtRp798
(dp799
g74
(dp800
sg83
g786
sg76
(lp801
g69
(g70
g71
NtRp802
(dp803
g74
(dp804
g82
I3
ssg83
g798
sg76
(lp805
S''
asbasbasbag69
(g85
g71
NtRp806
(dp807
g74
(dp808
sg83
g662
sg76
(lp809
g69
(g90
g71
NtRp810
(dp811
g74
(dp812
g94
g95
ssg83
g806
sg76
(lp813
g443
asbag69
(g90
g71
NtRp814
(dp815
g74
(dp816
g101
g102
ssg83
g806
sg76
(lp817
S':'
asbag69
(g90
g71
NtRp818
(dp819
g74
(dp820
sg83
g806
sg76
(lp821
g69
(g70
g71
NtRp822
(dp823
g74
(dp824
g82
I3
ssg83
g818
sg76
(lp825
S''
asbasbasbasbasbasbasbasbasbasbasbag69
(g85
g71
NtRp826
(dp827
g74
(dp828
sg83
g79
sg76
(lp829
g69
(g90
g71
NtRp830
(dp831
g74
(dp832
g94
g95
ssg83
g826
sg76
(lp833
S'env'
p834
asbag69
(g90
g71
NtRp835
(dp836
g74
(dp837
g101
g102
ssg83
g826
sg76
(lp838
S':'
asbag69
(g90
g71
NtRp839
(dp840
g74
(dp841
sg83
g826
sg76
(lp842
g69
(g70
g71
NtRp843
(dp844
g74
(dp845
g82
I5
ssg83
g839
sg76
(lp846
g69
(g78
g71
NtRp847
(dp848
g74
(dp849
g82
I4
ssg83
Nsg76
(lp850
g69
(g85
g71
NtRp851
(dp852
g74
(dp853
sg83
g847
sg76
(lp854
g69
(g90
g71
NtRp855
(dp856
g74
(dp857
g94
g95
ssg83
g851
sg76
(lp858
S'app_folders'
p859
asbag69
(g90
g71
NtRp860
(dp861
g74
(dp862
g101
g102
ssg83
g851
sg76
(lp863
S':'
asbag69
(g90
g71
NtRp864
(dp865
g74
(dp866
sg83
g851
sg76
(lp867
g69
(g70
g71
NtRp868
(dp869
g74
(dp870
g82
I4
ssg83
g864
sg76
(lp871
S"set(['/home/game_boy/web2py/applications/examples/', '/home/game_boy/web2py/applications/welcome/', '/home/game_boy/web2py/applications/IIITCourier/', '/home/game_boy/web2py/applications/admin/'])"
p872
asbasbasbag69
(g85
g71
NtRp873
(dp874
g74
(dp875
sg83
g847
sg76
(lp876
g69
(g90
g71
NtRp877
(dp878
g74
(dp879
g94
g95
ssg83
g873
sg76
(lp880
S'applications_parent'
p881
asbag69
(g90
g71
NtRp882
(dp883
g74
(dp884
g101
g102
ssg83
g873
sg76
(lp885
S':'
asbag69
(g90
g71
NtRp886
(dp887
g74
(dp888
sg83
g873
sg76
(lp889
g69
(g70
g71
NtRp890
(dp891
g74
(dp892
g82
I4
ssg83
g886
sg76
(lp893
S'/home/game_boy/web2py'
p894
asbasbasbag69
(g85
g71
NtRp895
(dp896
g74
(dp897
sg83
g847
sg76
(lp898
g69
(g90
g71
NtRp899
(dp900
g74
(dp901
g94
g95
ssg83
g895
sg76
(lp902
S'cmd_args'
p903
asbag69
(g90
g71
NtRp904
(dp905
g74
(dp906
g101
g102
ssg83
g895
sg76
(lp907
S':'
asbag69
(g90
g71
NtRp908
(dp909
g74
(dp910
sg83
g895
sg76
(lp911
g69
(g70
g71
NtRp912
(dp913
g74
(dp914
g82
I4
ssg83
g908
sg76
(lp915
g69
(g78
g71
NtRp916
(dp917
g74
(dp918
g82
I3
ssg83
Nsg76
(lp919
sbasbasbasbag69
(g85
g71
NtRp920
(dp921
g74
(dp922
sg83
g847
sg76
(lp923
g69
(g90
g71
NtRp924
(dp925
g74
(dp926
g94
g95
ssg83
g920
sg76
(lp927
S'cmd_options'
p928
asbag69
(g90
g71
NtRp929
(dp930
g74
(dp931
g101
g102
ssg83
g920
sg76
(lp932
S':'
asbag69
(g90
g71
NtRp933
(dp934
g74
(dp935
sg83
g920
sg76
(lp936
g69
(g70
g71
NtRp937
(dp938
g74
(dp939
g82
I4
ssg83
g933
sg76
(lp940
S"<Values at 0x7fa715cc8758: {'verbose': False, 'ip': '127.0.0.1', 'shutdown_timeout': 5, 'taskbar': False, 'nocron': False, 'pid_filename': 'httpserver.pid', 'maxthreads': None, 'softcron': False, 'server_name': 'gameBoy-VGN-SR53GF-B', 'bpython': False, 'nogui': False, 'port': 8000, 'extcron': False, 'debuglevel': 30, 'test': None, 'folder': '/home/game_boy/web2py', 'config': '', 'import_models': False, 'winservice': '', 'shell': None, 'run': '', 'log_filename': 'httpserver.log', 'args': [''], 'socket_timeout': 5, 'ssl_ca_certificate': None, 'scheduler': None, 'profiler_filename': None, 'ssl_private_key': '', 'password': '<ask>', 'request_queue_size': 5, 'ssl_certificate': '', 'cronjob': False, 'numthreads': None, 'quiet': False, 'interfaces': None, 'minthreads': None, 'timeout': 10, 'plain': False, 'nobanner': False}>"
p941
asbasbasbag69
(g85
g71
NtRp942
(dp943
g74
(dp944
sg83
g847
sg76
(lp945
g69
(g90
g71
NtRp946
(dp947
g74
(dp948
g94
g95
ssg83
g942
sg76
(lp949
S'db_sessions'
p950
asbag69
(g90
g71
NtRp951
(dp952
g74
(dp953
g101
g102
ssg83
g942
sg76
(lp954
S':'
asbag69
(g90
g71
NtRp955
(dp956
g74
(dp957
sg83
g942
sg76
(lp958
g69
(g70
g71
NtRp959
(dp960
g74
(dp961
g82
I4
ssg83
g955
sg76
(lp962
S'set([])'
p963
asbasbasbag69
(g85
g71
NtRp964
(dp965
g74
(dp966
sg83
g847
sg76
(lp967
g69
(g90
g71
NtRp968
(dp969
g74
(dp970
g94
g95
ssg83
g964
sg76
(lp971
S'debugging'
p972
asbag69
(g90
g71
NtRp973
(dp974
g74
(dp975
g101
g102
ssg83
g964
sg76
(lp976
S':'
asbag69
(g90
g71
NtRp977
(dp978
g74
(dp979
sg83
g964
sg76
(lp980
g69
(g70
g71
NtRp981
(dp982
g74
(dp983
g82
I4
ssg83
g977
sg76
(lp984
g112
asbasbasbag69
(g85
g71
NtRp985
(dp986
g74
(dp987
sg83
g847
sg76
(lp988
g69
(g90
g71
NtRp989
(dp990
g74
(dp991
g94
g95
ssg83
g985
sg76
(lp992
S'gluon_parent'
p993
asbag69
(g90
g71
NtRp994
(dp995
g74
(dp996
g101
g102
ssg83
g985
sg76
(lp997
S':'
asbag69
(g90
g71
NtRp998
(dp999
g74
(dp1000
sg83
g985
sg76
(lp1001
g69
(g70
g71
NtRp1002
(dp1003
g74
(dp1004
g82
I4
ssg83
g998
sg76
(lp1005
S'/usr/share/web2py'
p1006
asbasbasbag69
(g85
g71
NtRp1007
(dp1008
g74
(dp1009
sg83
g847
sg76
(lp1010
g69
(g90
g71
NtRp1011
(dp1012
g74
(dp1013
g94
g95
ssg83
g1007
sg76
(lp1014
S'http_accept'
p1015
asbag69
(g90
g71
NtRp1016
(dp1017
g74
(dp1018
g101
g102
ssg83
g1007
sg76
(lp1019
S':'
asbag69
(g90
g71
NtRp1020
(dp1021
g74
(dp1022
sg83
g1007
sg76
(lp1023
g69
(g70
g71
NtRp1024
(dp1025
g74
(dp1026
g82
I4
ssg83
g1020
sg76
(lp1027
S'text/html,application/xhtml+xml,application/xml;q=0.9,*/*;q=0.8'
p1028
asbasbasbag69
(g85
g71
NtRp1029
(dp1030
g74
(dp1031
sg83
g847
sg76
(lp1032
g69
(g90
g71
NtRp1033
(dp1034
g74
(dp1035
g94
g95
ssg83
g1029
sg76
(lp1036
S'http_accept_encoding'
p1037
asbag69
(g90
g71
NtRp1038
(dp1039
g74
(dp1040
g101
g102
ssg83
g1029
sg76
(lp1041
S':'
asbag69
(g90
g71
NtRp1042
(dp1043
g74
(dp1044
sg83
g1029
sg76
(lp1045
g69
(g70
g71
NtRp1046
(dp1047
g74
(dp1048
g82
I4
ssg83
g1042
sg76
(lp1049
S'gzip, deflate'
p1050
asbasbasbag69
(g85
g71
NtRp1051
(dp1052
g74
(dp1053
sg83
g847
sg76
(lp1054
g69
(g90
g71
NtRp1055
(dp1056
g74
(dp1057
g94
g95
ssg83
g1051
sg76
(lp1058
S'http_accept_language'
p1059
asbag69
(g90
g71
NtRp1060
(dp1061
g74
(dp1062
g101
g102
ssg83
g1051
sg76
(lp1063
S':'
asbag69
(g90
g71
NtRp1064
(dp1065
g74
(dp1066
sg83
g1051
sg76
(lp1067
g69
(g70
g71
NtRp1068
(dp1069
g74
(dp1070
g82
I4
ssg83
g1064
sg76
(lp1071
S'en-US,en;q=0.5'
p1072
asbasbasbag69
(g85
g71
NtRp1073
(dp1074
g74
(dp1075
sg83
g847
sg76
(lp1076
g69
(g90
g71
NtRp1077
(dp1078
g74
(dp1079
g94
g95
ssg83
g1073
sg76
(lp1080
S'http_cache_control'
p1081
asbag69
(g90
g71
NtRp1082
(dp1083
g74
(dp1084
g101
g102
ssg83
g1073
sg76
(lp1085
S':'
asbag69
(g90
g71
NtRp1086
(dp1087
g74
(dp1088
sg83
g1073
sg76
(lp1089
g69
(g70
g71
NtRp1090
(dp1091
g74
(dp1092
g82
I4
ssg83
g1086
sg76
(lp1093
S'max-age=0'
p1094
asbasbasbag69
(g85
g71
NtRp1095
(dp1096
g74
(dp1097
sg83
g847
sg76
(lp1098
g69
(g90
g71
NtRp1099
(dp1100
g74
(dp1101
g94
g95
ssg83
g1095
sg76
(lp1102
S'http_connection'
p1103
asbag69
(g90
g71
NtRp1104
(dp1105
g74
(dp1106
g101
g102
ssg83
g1095
sg76
(lp1107
S':'
asbag69
(g90
g71
NtRp1108
(dp1109
g74
(dp1110
sg83
g1095
sg76
(lp1111
g69
(g70
g71
NtRp1112
(dp1113
g74
(dp1114
g82
I4
ssg83
g1108
sg76
(lp1115
S'keep-alive'
p1116
asbasbasbag69
(g85
g71
NtRp1117
(dp1118
g74
(dp1119
sg83
g847
sg76
(lp1120
g69
(g90
g71
NtRp1121
(dp1122
g74
(dp1123
g94
g95
ssg83
g1117
sg76
(lp1124
S'http_cookie'
p1125
asbag69
(g90
g71
NtRp1126
(dp1127
g74
(dp1128
g101
g102
ssg83
g1117
sg76
(lp1129
S':'
asbag69
(g90
g71
NtRp1130
(dp1131
g74
(dp1132
sg83
g1117
sg76
(lp1133
g69
(g70
g71
NtRp1134
(dp1135
g74
(dp1136
g82
I4
ssg83
g1130
sg76
(lp1137
S'session_id_welcome=127.0.0.1-24a75461-14f1-4d3a-9fa8-78b9b48c05ba; session_id_admin=127.0.0.1-1fa45aea-be5e-40d9-a0ee-c4308d2071b8; session_id_iiitcourier=127.0.0.1-d80de6ec-cf5d-4cf3-8d7c-fad6af1bba5b'
p1138
asbasbasbag69
(g85
g71
NtRp1139
(dp1140
g74
(dp1141
sg83
g847
sg76
(lp1142
g69
(g90
g71
NtRp1143
(dp1144
g74
(dp1145
g94
g95
ssg83
g1139
sg76
(lp1146
S'http_host'
p1147
asbag69
(g90
g71
NtRp1148
(dp1149
g74
(dp1150
g101
g102
ssg83
g1139
sg76
(lp1151
S':'
asbag69
(g90
g71
NtRp1152
(dp1153
g74
(dp1154
sg83
g1139
sg76
(lp1155
g69
(g70
g71
NtRp1156
(dp1157
g74
(dp1158
g82
I4
ssg83
g1152
sg76
(lp1159
S'127.0.0.1:8000'
p1160
asbasbasbag69
(g85
g71
NtRp1161
(dp1162
g74
(dp1163
sg83
g847
sg76
(lp1164
g69
(g90
g71
NtRp1165
(dp1166
g74
(dp1167
g94
g95
ssg83
g1161
sg76
(lp1168
S'http_referer'
p1169
asbag69
(g90
g71
NtRp1170
(dp1171
g74
(dp1172
g101
g102
ssg83
g1161
sg76
(lp1173
S':'
asbag69
(g90
g71
NtRp1174
(dp1175
g74
(dp1176
sg83
g1161
sg76
(lp1177
g69
(g70
g71
NtRp1178
(dp1179
g74
(dp1180
g82
I4
ssg83
g1174
sg76
(lp1181
S'http://127.0.0.1:8000/IIITCourier/default/user/login?_next=/IIITCourier/default/login'
p1182
asbasbasbag69
(g85
g71
NtRp1183
(dp1184
g74
(dp1185
sg83
g847
sg76
(lp1186
g69
(g90
g71
NtRp1187
(dp1188
g74
(dp1189
g94
g95
ssg83
g1183
sg76
(lp1190
S'http_user_agent'
p1191
asbag69
(g90
g71
NtRp1192
(dp1193
g74
(dp1194
g101
g102
ssg83
g1183
sg76
(lp1195
S':'
asbag69
(g90
g71
NtRp1196
(dp1197
g74
(dp1198
sg83
g1183
sg76
(lp1199
g69
(g70
g71
NtRp1200
(dp1201
g74
(dp1202
g82
I4
ssg83
g1196
sg76
(lp1203
S'Mozilla/5.0 (X11; Ubuntu; Linux x86_64; rv:42.0) Gecko/20100101 Firefox/42.0'
p1204
asbasbasbag69
(g85
g71
NtRp1205
(dp1206
g74
(dp1207
sg83
g847
sg76
(lp1208
g69
(g90
g71
NtRp1209
(dp1210
g74
(dp1211
g94
g95
ssg83
g1205
sg76
(lp1212
S'is_jython'
p1213
asbag69
(g90
g71
NtRp1214
(dp1215
g74
(dp1216
g101
g102
ssg83
g1205
sg76
(lp1217
S':'
asbag69
(g90
g71
NtRp1218
(dp1219
g74
(dp1220
sg83
g1205
sg76
(lp1221
g69
(g70
g71
NtRp1222
(dp1223
g74
(dp1224
g82
I4
ssg83
g1218
sg76
(lp1225
g112
asbasbasbag69
(g85
g71
NtRp1226
(dp1227
g74
(dp1228
sg83
g847
sg76
(lp1229
g69
(g90
g71
NtRp1230
(dp1231
g74
(dp1232
g94
g95
ssg83
g1226
sg76
(lp1233
S'is_pypy'
p1234
asbag69
(g90
g71
NtRp1235
(dp1236
g74
(dp1237
g101
g102
ssg83
g1226
sg76
(lp1238
S':'
asbag69
(g90
g71
NtRp1239
(dp1240
g74
(dp1241
sg83
g1226
sg76
(lp1242
g69
(g70
g71
NtRp1243
(dp1244
g74
(dp1245
g82
I4
ssg83
g1239
sg76
(lp1246
g112
asbasbasbag69
(g85
g71
NtRp1247
(dp1248
g74
(dp1249
sg83
g847
sg76
(lp1250
g69
(g90
g71
NtRp1251
(dp1252
g74
(dp1253
g94
g95
ssg83
g1247
sg76
(lp1254
S'path_info'
p1255
asbag69
(g90
g71
NtRp1256
(dp1257
g74
(dp1258
g101
g102
ssg83
g1247
sg76
(lp1259
S':'
asbag69
(g90
g71
NtRp1260
(dp1261
g74
(dp1262
sg83
g1247
sg76
(lp1263
g69
(g70
g71
NtRp1264
(dp1265
g74
(dp1266
g82
I4
ssg83
g1260
sg76
(lp1267
S'/IIITCourier/default/user/login'
p1268
asbasbasbag69
(g85
g71
NtRp1269
(dp1270
g74
(dp1271
sg83
g847
sg76
(lp1272
g69
(g90
g71
NtRp1273
(dp1274
g74
(dp1275
g94
g95
ssg83
g1269
sg76
(lp1276
S'query_string'
p1277
asbag69
(g90
g71
NtRp1278
(dp1279
g74
(dp1280
g101
g102
ssg83
g1269
sg76
(lp1281
S':'
asbag69
(g90
g71
NtRp1282
(dp1283
g74
(dp1284
sg83
g1269
sg76
(lp1285
g69
(g70
g71
NtRp1286
(dp1287
g74
(dp1288
g82
I4
ssg83
g1282
sg76
(lp1289
S'_next=/IIITCourier/default/login'
p1290
asbasbasbag69
(g85
g71
NtRp1291
(dp1292
g74
(dp1293
sg83
g847
sg76
(lp1294
g69
(g90
g71
NtRp1295
(dp1296
g74
(dp1297
g94
g95
ssg83
g1291
sg76
(lp1298
S'remote_addr'
p1299
asbag69
(g90
g71
NtRp1300
(dp1301
g74
(dp1302
g101
g102
ssg83
g1291
sg76
(lp1303
S':'
asbag69
(g90
g71
NtRp1304
(dp1305
g74
(dp1306
sg83
g1291
sg76
(lp1307
g69
(g70
g71
NtRp1308
(dp1309
g74
(dp1310
g82
I4
ssg83
g1304
sg76
(lp1311
g215
asbasbasbag69
(g85
g71
NtRp1312
(dp1313
g74
(dp1314
sg83
g847
sg76
(lp1315
g69
(g90
g71
NtRp1316
(dp1317
g74
(dp1318
g94
g95
ssg83
g1312
sg76
(lp1319
S'remote_port'
p1320
asbag69
(g90
g71
NtRp1321
(dp1322
g74
(dp1323
g101
g102
ssg83
g1312
sg76
(lp1324
S':'
asbag69
(g90
g71
NtRp1325
(dp1326
g74
(dp1327
sg83
g1312
sg76
(lp1328
g69
(g70
g71
NtRp1329
(dp1330
g74
(dp1331
g82
I4
ssg83
g1325
sg76
(lp1332
S'57114'
p1333
asbasbasbag69
(g85
g71
NtRp1334
(dp1335
g74
(dp1336
sg83
g847
sg76
(lp1337
g69
(g90
g71
NtRp1338
(dp1339
g74
(dp1340
g94
g95
ssg83
g1334
sg76
(lp1341
S'request_method'
p1342
asbag69
(g90
g71
NtRp1343
(dp1344
g74
(dp1345
g101
g102
ssg83
g1334
sg76
(lp1346
S':'
asbag69
(g90
g71
NtRp1347
(dp1348
g74
(dp1349
sg83
g1334
sg76
(lp1350
g69
(g70
g71
NtRp1351
(dp1352
g74
(dp1353
g82
I4
ssg83
g1347
sg76
(lp1354
S'GET'
p1355
asbasbasbag69
(g85
g71
NtRp1356
(dp1357
g74
(dp1358
sg83
g847
sg76
(lp1359
g69
(g90
g71
NtRp1360
(dp1361
g74
(dp1362
g94
g95
ssg83
g1356
sg76
(lp1363
S'script_name'
p1364
asbag69
(g90
g71
NtRp1365
(dp1366
g74
(dp1367
g101
g102
ssg83
g1356
sg76
(lp1368
S':'
asbag69
(g90
g71
NtRp1369
(dp1370
g74
(dp1371
sg83
g1356
sg76
(lp1372
g69
(g70
g71
NtRp1373
(dp1374
g74
(dp1375
g82
I4
ssg83
g1369
sg76
(lp1376
S''
asbasbasbag69
(g85
g71
NtRp1377
(dp1378
g74
(dp1379
sg83
g847
sg76
(lp1380
g69
(g90
g71
NtRp1381
(dp1382
g74
(dp1383
g94
g95
ssg83
g1377
sg76
(lp1384
S'server_name'
p1385
asbag69
(g90
g71
NtRp1386
(dp1387
g74
(dp1388
g101
g102
ssg83
g1377
sg76
(lp1389
S':'
asbag69
(g90
g71
NtRp1390
(dp1391
g74
(dp1392
sg83
g1377
sg76
(lp1393
g69
(g70
g71
NtRp1394
(dp1395
g74
(dp1396
g82
I4
ssg83
g1390
sg76
(lp1397
S'gameBoy-VGN-SR53GF-B'
p1398
asbasbasbag69
(g85
g71
NtRp1399
(dp1400
g74
(dp1401
sg83
g847
sg76
(lp1402
g69
(g90
g71
NtRp1403
(dp1404
g74
(dp1405
g94
g95
ssg83
g1399
sg76
(lp1406
S'server_port'
p1407
asbag69
(g90
g71
NtRp1408
(dp1409
g74
(dp1410
g101
g102
ssg83
g1399
sg76
(lp1411
S':'
asbag69
(g90
g71
NtRp1412
(dp1413
g74
(dp1414
sg83
g1399
sg76
(lp1415
g69
(g70
g71
NtRp1416
(dp1417
g74
(dp1418
g82
I4
ssg83
g1412
sg76
(lp1419
S'8000'
p1420
asbasbasbag69
(g85
g71
NtRp1421
(dp1422
g74
(dp1423
sg83
g847
sg76
(lp1424
g69
(g90
g71
NtRp1425
(dp1426
g74
(dp1427
g94
g95
ssg83
g1421
sg76
(lp1428
S'server_protocol'
p1429
asbag69
(g90
g71
NtRp1430
(dp1431
g74
(dp1432
g101
g102
ssg83
g1421
sg76
(lp1433
S':'
asbag69
(g90
g71
NtRp1434
(dp1435
g74
(dp1436
sg83
g1421
sg76
(lp1437
g69
(g70
g71
NtRp1438
(dp1439
g74
(dp1440
g82
I4
ssg83
g1434
sg76
(lp1441
S'HTTP/1.1'
p1442
asbasbasbag69
(g85
g71
NtRp1443
(dp1444
g74
(dp1445
sg83
g847
sg76
(lp1446
g69
(g90
g71
NtRp1447
(dp1448
g74
(dp1449
g94
g95
ssg83
g1443
sg76
(lp1450
S'server_software'
p1451
asbag69
(g90
g71
NtRp1452
(dp1453
g74
(dp1454
g101
g102
ssg83
g1443
sg76
(lp1455
S':'
asbag69
(g90
g71
NtRp1456
(dp1457
g74
(dp1458
sg83
g1443
sg76
(lp1459
g69
(g70
g71
NtRp1460
(dp1461
g74
(dp1462
g82
I4
ssg83
g1456
sg76
(lp1463
S'Rocket 1.2.4'
p1464
asbasbasbag69
(g85
g71
NtRp1465
(dp1466
g74
(dp1467
sg83
g847
sg76
(lp1468
g69
(g90
g71
NtRp1469
(dp1470
g74
(dp1471
g94
g95
ssg83
g1465
sg76
(lp1472
S'web2py_crontype'
p1473
asbag69
(g90
g71
NtRp1474
(dp1475
g74
(dp1476
g101
g102
ssg83
g1465
sg76
(lp1477
S':'
asbag69
(g90
g71
NtRp1478
(dp1479
g74
(dp1480
sg83
g1465
sg76
(lp1481
g69
(g70
g71
NtRp1482
(dp1483
g74
(dp1484
g82
I4
ssg83
g1478
sg76
(lp1485
S'hard'
p1486
asbasbasbag69
(g85
g71
NtRp1487
(dp1488
g74
(dp1489
sg83
g847
sg76
(lp1490
g69
(g90
g71
NtRp1491
(dp1492
g74
(dp1493
g94
g95
ssg83
g1487
sg76
(lp1494
S'web2py_path'
p1495
asbag69
(g90
g71
NtRp1496
(dp1497
g74
(dp1498
g101
g102
ssg83
g1487
sg76
(lp1499
S':'
asbag69
(g90
g71
NtRp1500
(dp1501
g74
(dp1502
sg83
g1487
sg76
(lp1503
g69
(g70
g71
NtRp1504
(dp1505
g74
(dp1506
g82
I4
ssg83
g1500
sg76
(lp1507
g894
asbasbasbag69
(g85
g71
NtRp1508
(dp1509
g74
(dp1510
sg83
g847
sg76
(lp1511
g69
(g90
g71
NtRp1512
(dp1513
g74
(dp1514
g94
g95
ssg83
g1508
sg76
(lp1515
S'web2py_version'
p1516
asbag69
(g90
g71
NtRp1517
(dp1518
g74
(dp1519
g101
g102
ssg83
g1508
sg76
(lp1520
S':'
asbag69
(g90
g71
NtRp1521
(dp1522
g74
(dp1523
sg83
g1508
sg76
(lp1524
g69
(g70
g71
NtRp1525
(dp1526
g74
(dp1527
g82
I4
ssg83
g1521
sg76
(lp1528
g69
(g78
g71
NtRp1529
(dp1530
g74
(dp1531
g82
I3
ssg83
Nsg76
(lp1532
g69
(g85
g71
NtRp1533
(dp1534
g74
(dp1535
sg83
g1529
sg76
(lp1536
g69
(g90
g71
NtRp1537
(dp1538
g74
(dp1539
sg83
g1533
sg76
(lp1540
g69
(g70
g71
NtRp1541
(dp1542
g74
(dp1543
g82
I3
ssg83
g1537
sg76
(lp1544
S'1'
asbasbasbag69
(g85
g71
NtRp1545
(dp1546
g74
(dp1547
sg83
g1529
sg76
(lp1548
g69
(g90
g71
NtRp1549
(dp1550
g74
(dp1551
sg83
g1545
sg76
(lp1552
g69
(g70
g71
NtRp1553
(dp1554
g74
(dp1555
g82
I3
ssg83
g1549
sg76
(lp1556
S'99'
p1557
asbasbasbag69
(g85
g71
NtRp1558
(dp1559
g74
(dp1560
sg83
g1529
sg76
(lp1561
g69
(g90
g71
NtRp1562
(dp1563
g74
(dp1564
sg83
g1558
sg76
(lp1565
g69
(g70
g71
NtRp1566
(dp1567
g74
(dp1568
g82
I3
ssg83
g1562
sg76
(lp1569
S'7'
asbasbasbag69
(g85
g71
NtRp1570
(dp1571
g74
(dp1572
sg83
g1529
sg76
(lp1573
g69
(g90
g71
NtRp1574
(dp1575
g74
(dp1576
sg83
g1570
sg76
(lp1577
g69
(g70
g71
NtRp1578
(dp1579
g74
(dp1580
g82
I3
ssg83
g1574
sg76
(lp1581
S'datetime.datetime(2012, 3, 4, 22, 12, 8)'
p1582
asbasbasbag69
(g85
g71
NtRp1583
(dp1584
g74
(dp1585
sg83
g1529
sg76
(lp1586
g69
(g90
g71
NtRp1587
(dp1588
g74
(dp1589
sg83
g1583
sg76
(lp1590
g69
(g70
g71
NtRp1591
(dp1592
g74
(dp1593
g82
I3
ssg83
g1587
sg76
(lp1594
S'stable'
p1595
asbasbasbasbasbasbasbag69
(g85
g71
NtRp1596
(dp1597
g74
(dp1598
sg83
g847
sg76
(lp1599
g69
(g90
g71
NtRp1600
(dp1601
g74
(dp1602
g94
g95
ssg83
g1596
sg76
(lp1603
S'wsgi_errors'
p1604
asbag69
(g90
g71
NtRp1605
(dp1606
g74
(dp1607
g101
g102
ssg83
g1596
sg76
(lp1608
S':'
asbag69
(g90
g71
NtRp1609
(dp1610
g74
(dp1611
sg83
g1596
sg76
(lp1612
g69
(g70
g71
NtRp1613
(dp1614
g74
(dp1615
g82
I4
ssg83
g1609
sg76
(lp1616
S"<open file '<stderr>', mode 'w' at 0x7fa71a3bc1e0>"
p1617
asbasbasbag69
(g85
g71
NtRp1618
(dp1619
g74
(dp1620
sg83
g847
sg76
(lp1621
g69
(g90
g71
NtRp1622
(dp1623
g74
(dp1624
g94
g95
ssg83
g1618
sg76
(lp1625
S'wsgi_file_wrapper'
p1626
asbag69
(g90
g71
NtRp1627
(dp1628
g74
(dp1629
g101
g102
ssg83
g1618
sg76
(lp1630
S':'
asbag69
(g90
g71
NtRp1631
(dp1632
g74
(dp1633
sg83
g1618
sg76
(lp1634
g69
(g70
g71
NtRp1635
(dp1636
g74
(dp1637
g82
I4
ssg83
g1631
sg76
(lp1638
S'<class wsgiref.util.FileWrapper at 0x7fa715d59258>'
p1639
asbasbasbag69
(g85
g71
NtRp1640
(dp1641
g74
(dp1642
sg83
g847
sg76
(lp1643
g69
(g90
g71
NtRp1644
(dp1645
g74
(dp1646
g94
g95
ssg83
g1640
sg76
(lp1647
S'wsgi_input'
p1648
asbag69
(g90
g71
NtRp1649
(dp1650
g74
(dp1651
g101
g102
ssg83
g1640
sg76
(lp1652
S':'
asbag69
(g90
g71
NtRp1653
(dp1654
g74
(dp1655
sg83
g1640
sg76
(lp1656
g69
(g70
g71
NtRp1657
(dp1658
g74
(dp1659
g82
I4
ssg83
g1653
sg76
(lp1660
S'<socket._fileobject object at 0x7fa6c7d9d350>'
p1661
asbasbasbag69
(g85
g71
NtRp1662
(dp1663
g74
(dp1664
sg83
g847
sg76
(lp1665
g69
(g90
g71
NtRp1666
(dp1667
g74
(dp1668
g94
g95
ssg83
g1662
sg76
(lp1669
S'wsgi_multiprocess'
p1670
asbag69
(g90
g71
NtRp1671
(dp1672
g74
(dp1673
g101
g102
ssg83
g1662
sg76
(lp1674
S':'
asbag69
(g90
g71
NtRp1675
(dp1676
g74
(dp1677
sg83
g1662
sg76
(lp1678
g69
(g70
g71
NtRp1679
(dp1680
g74
(dp1681
g82
I4
ssg83
g1675
sg76
(lp1682
g112
asbasbasbag69
(g85
g71
NtRp1683
(dp1684
g74
(dp1685
sg83
g847
sg76
(lp1686
g69
(g90
g71
NtRp1687
(dp1688
g74
(dp1689
g94
g95
ssg83
g1683
sg76
(lp1690
S'wsgi_multithread'
p1691
asbag69
(g90
g71
NtRp1692
(dp1693
g74
(dp1694
g101
g102
ssg83
g1683
sg76
(lp1695
S':'
asbag69
(g90
g71
NtRp1696
(dp1697
g74
(dp1698
sg83
g1683
sg76
(lp1699
g69
(g70
g71
NtRp1700
(dp1701
g74
(dp1702
g82
I4
ssg83
g1696
sg76
(lp1703
S'True'
p1704
asbasbasbag69
(g85
g71
NtRp1705
(dp1706
g74
(dp1707
sg83
g847
sg76
(lp1708
g69
(g90
g71
NtRp1709
(dp1710
g74
(dp1711
g94
g95
ssg83
g1705
sg76
(lp1712
S'wsgi_run_once'
p1713
asbag69
(g90
g71
NtRp1714
(dp1715
g74
(dp1716
g101
g102
ssg83
g1705
sg76
(lp1717
S':'
asbag69
(g90
g71
NtRp1718
(dp1719
g74
(dp1720
sg83
g1705
sg76
(lp1721
g69
(g70
g71
NtRp1722
(dp1723
g74
(dp1724
g82
I4
ssg83
g1718
sg76
(lp1725
g112
asbasbasbag69
(g85
g71
NtRp1726
(dp1727
g74
(dp1728
sg83
g847
sg76
(lp1729
g69
(g90
g71
NtRp1730
(dp1731
g74
(dp1732
g94
g95
ssg83
g1726
sg76
(lp1733
S'wsgi_url_scheme'
p1734
asbag69
(g90
g71
NtRp1735
(dp1736
g74
(dp1737
g101
g102
ssg83
g1726
sg76
(lp1738
S':'
asbag69
(g90
g71
NtRp1739
(dp1740
g74
(dp1741
sg83
g1726
sg76
(lp1742
g69
(g70
g71
NtRp1743
(dp1744
g74
(dp1745
g82
I4
ssg83
g1739
sg76
(lp1746
S'http'
p1747
asbasbasbag69
(g85
g71
NtRp1748
(dp1749
g74
(dp1750
sg83
g847
sg76
(lp1751
g69
(g90
g71
NtRp1752
(dp1753
g74
(dp1754
g94
g95
ssg83
g1748
sg76
(lp1755
S'wsgi_version'
p1756
asbag69
(g90
g71
NtRp1757
(dp1758
g74
(dp1759
g101
g102
ssg83
g1748
sg76
(lp1760
S':'
asbag69
(g90
g71
NtRp1761
(dp1762
g74
(dp1763
sg83
g1748
sg76
(lp1764
g69
(g70
g71
NtRp1765
(dp1766
g74
(dp1767
g82
I4
ssg83
g1761
sg76
(lp1768
g69
(g78
g71
NtRp1769
(dp1770
g74
(dp1771
g82
I3
ssg83
Nsg76
(lp1772
g69
(g85
g71
NtRp1773
(dp1774
g74
(dp1775
sg83
g1769
sg76
(lp1776
g69
(g90
g71
NtRp1777
(dp1778
g74
(dp1779
sg83
g1773
sg76
(lp1780
g69
(g70
g71
NtRp1781
(dp1782
g74
(dp1783
g82
I3
ssg83
g1777
sg76
(lp1784
S'1'
asbasbasbag69
(g85
g71
NtRp1785
(dp1786
g74
(dp1787
sg83
g1769
sg76
(lp1788
g69
(g90
g71
NtRp1789
(dp1790
g74
(dp1791
sg83
g1785
sg76
(lp1792
g69
(g70
g71
NtRp1793
(dp1794
g74
(dp1795
g82
I3
ssg83
g1789
sg76
(lp1796
S'0'
asbasbasbasbasbasbasbasbasbasbasbag69
(g85
g71
NtRp1797
(dp1798
g74
(dp1799
sg83
g79
sg76
(lp1800
g69
(g90
g71
NtRp1801
(dp1802
g74
(dp1803
g94
g95
ssg83
g1797
sg76
(lp1804
S'extension'
p1805
asbag69
(g90
g71
NtRp1806
(dp1807
g74
(dp1808
g101
g102
ssg83
g1797
sg76
(lp1809
S':'
asbag69
(g90
g71
NtRp1810
(dp1811
g74
(dp1812
sg83
g1797
sg76
(lp1813
g69
(g70
g71
NtRp1814
(dp1815
g74
(dp1816
g82
I5
ssg83
g1810
sg76
(lp1817
S'html'
p1818
asbasbasbag69
(g85
g71
NtRp1819
(dp1820
g74
(dp1821
sg83
g79
sg76
(lp1822
g69
(g90
g71
NtRp1823
(dp1824
g74
(dp1825
g94
g95
ssg83
g1819
sg76
(lp1826
S'folder'
p1827
asbag69
(g90
g71
NtRp1828
(dp1829
g74
(dp1830
g101
g102
ssg83
g1819
sg76
(lp1831
S':'
asbag69
(g90
g71
NtRp1832
(dp1833
g74
(dp1834
sg83
g1819
sg76
(lp1835
g69
(g70
g71
NtRp1836
(dp1837
g74
(dp1838
g82
I5
ssg83
g1832
sg76
(lp1839
S'/home/game_boy/web2py/applications/IIITCourier/'
p1840
asbasbasbag69
(g85
g71
NtRp1841
(dp1842
g74
(dp1843
sg83
g79
sg76
(lp1844
g69
(g90
g71
NtRp1845
(dp1846
g74
(dp1847
g94
g95
ssg83
g1841
sg76
(lp1848
S'function'
p1849
asbag69
(g90
g71
NtRp1850
(dp1851
g74
(dp1852
g101
g102
ssg83
g1841
sg76
(lp1853
S':'
asbag69
(g90
g71
NtRp1854
(dp1855
g74
(dp1856
sg83
g1841
sg76
(lp1857
g69
(g70
g71
NtRp1858
(dp1859
g74
(dp1860
g82
I5
ssg83
g1854
sg76
(lp1861
S'user'
p1862
asbasbasbag69
(g85
g71
NtRp1863
(dp1864
g74
(dp1865
sg83
g79
sg76
(lp1866
g69
(g90
g71
NtRp1867
(dp1868
g74
(dp1869
g94
g95
ssg83
g1863
sg76
(lp1870
S'get_vars'
p1871
asbag69
(g90
g71
NtRp1872
(dp1873
g74
(dp1874
g101
g102
ssg83
g1863
sg76
(lp1875
S':'
asbag69
(g90
g71
NtRp1876
(dp1877
g74
(dp1878
sg83
g1863
sg76
(lp1879
g69
(g70
g71
NtRp1880
(dp1881
g74
(dp1882
g82
I5
ssg83
g1876
sg76
(lp1883
g69
(g78
g71
NtRp1884
(dp1885
g74
(dp1886
g82
I4
ssg83
Nsg76
(lp1887
sbasbasbasbag69
(g85
g71
NtRp1888
(dp1889
g74
(dp1890
sg83
g79
sg76
(lp1891
g69
(g90
g71
NtRp1892
(dp1893
g74
(dp1894
g94
g95
ssg83
g1888
sg76
(lp1895
S'global_settings'
p1896
asbag69
(g90
g71
NtRp1897
(dp1898
g74
(dp1899
g101
g102
ssg83
g1888
sg76
(lp1900
S':'
asbag69
(g90
g71
NtRp1901
(dp1902
g74
(dp1903
sg83
g1888
sg76
(lp1904
g69
(g70
g71
NtRp1905
(dp1906
g74
(dp1907
g82
I5
ssg83
g1901
sg76
(lp1908
g69
(g78
g71
NtRp1909
(dp1910
g74
(dp1911
g82
I4
ssg83
Nsg76
(lp1912
g69
(g85
g71
NtRp1913
(dp1914
g74
(dp1915
sg83
g1909
sg76
(lp1916
g69
(g90
g71
NtRp1917
(dp1918
g74
(dp1919
g94
g95
ssg83
g1913
sg76
(lp1920
g859
asbag69
(g90
g71
NtRp1921
(dp1922
g74
(dp1923
g101
g102
ssg83
g1913
sg76
(lp1924
S':'
asbag69
(g90
g71
NtRp1925
(dp1926
g74
(dp1927
sg83
g1913
sg76
(lp1928
g69
(g70
g71
NtRp1929
(dp1930
g74
(dp1931
g82
I4
ssg83
g1925
sg76
(lp1932
S"set(['/home/game_boy/web2py/applications/examples/', '/home/game_boy/web2py/applications/welcome/', '/home/game_boy/web2py/applications/IIITCourier/', '/home/game_boy/web2py/applications/admin/'])"
p1933
asbasbasbag69
(g85
g71
NtRp1934
(dp1935
g74
(dp1936
sg83
g1909
sg76
(lp1937
g69
(g90
g71
NtRp1938
(dp1939
g74
(dp1940
g94
g95
ssg83
g1934
sg76
(lp1941
g881
asbag69
(g90
g71
NtRp1942
(dp1943
g74
(dp1944
g101
g102
ssg83
g1934
sg76
(lp1945
S':'
asbag69
(g90
g71
NtRp1946
(dp1947
g74
(dp1948
sg83
g1934
sg76
(lp1949
g69
(g70
g71
NtRp1950
(dp1951
g74
(dp1952
g82
I4
ssg83
g1946
sg76
(lp1953
g894
asbasbasbag69
(g85
g71
NtRp1954
(dp1955
g74
(dp1956
sg83
g1909
sg76
(lp1957
g69
(g90
g71
NtRp1958
(dp1959
g74
(dp1960
g94
g95
ssg83
g1954
sg76
(lp1961
g903
asbag69
(g90
g71
NtRp1962
(dp1963
g74
(dp1964
g101
g102
ssg83
g1954
sg76
(lp1965
S':'
asbag69
(g90
g71
NtRp1966
(dp1967
g74
(dp1968
sg83
g1954
sg76
(lp1969
g69
(g70
g71
NtRp1970
(dp1971
g74
(dp1972
g82
I4
ssg83
g1966
sg76
(lp1973
g69
(g78
g71
NtRp1974
(dp1975
g74
(dp1976
g82
I3
ssg83
Nsg76
(lp1977
sbasbasbasbag69
(g85
g71
NtRp1978
(dp1979
g74
(dp1980
sg83
g1909
sg76
(lp1981
g69
(g90
g71
NtRp1982
(dp1983
g74
(dp1984
g94
g95
ssg83
g1978
sg76
(lp1985
g928
asbag69
(g90
g71
NtRp1986
(dp1987
g74
(dp1988
g101
g102
ssg83
g1978
sg76
(lp1989
S':'
asbag69
(g90
g71
NtRp1990
(dp1991
g74
(dp1992
sg83
g1978
sg76
(lp1993
g69
(g70
g71
NtRp1994
(dp1995
g74
(dp1996
g82
I4
ssg83
g1990
sg76
(lp1997
S"<Values at 0x7fa715cc8758: {'verbose': False, 'ip': '127.0.0.1', 'shutdown_timeout': 5, 'taskbar': False, 'nocron': False, 'pid_filename': 'httpserver.pid', 'maxthreads': None, 'softcron': False, 'server_name': 'gameBoy-VGN-SR53GF-B', 'bpython': False, 'nogui': False, 'port': 8000, 'extcron': False, 'debuglevel': 30, 'test': None, 'folder': '/home/game_boy/web2py', 'config': '', 'import_models': False, 'winservice': '', 'shell': None, 'run': '', 'log_filename': 'httpserver.log', 'args': [''], 'socket_timeout': 5, 'ssl_ca_certificate': None, 'scheduler': None, 'profiler_filename': None, 'ssl_private_key': '', 'password': '<ask>', 'request_queue_size': 5, 'ssl_certificate': '', 'cronjob': False, 'numthreads': None, 'quiet': False, 'interfaces': None, 'minthreads': None, 'timeout': 10, 'plain': False, 'nobanner': False}>"
p1998
asbasbasbag69
(g85
g71
NtRp1999
(dp2000
g74
(dp2001
sg83
g1909
sg76
(lp2002
g69
(g90
g71
NtRp2003
(dp2004
g74
(dp2005
g94
g95
ssg83
g1999
sg76
(lp2006
g950
asbag69
(g90
g71
NtRp2007
(dp2008
g74
(dp2009
g101
g102
ssg83
g1999
sg76
(lp2010
S':'
asbag69
(g90
g71
NtRp2011
(dp2012
g74
(dp2013
sg83
g1999
sg76
(lp2014
g69
(g70
g71
NtRp2015
(dp2016
g74
(dp2017
g82
I4
ssg83
g2011
sg76
(lp2018
S'set([])'
p2019
asbasbasbag69
(g85
g71
NtRp2020
(dp2021
g74
(dp2022
sg83
g1909
sg76
(lp2023
g69
(g90
g71
NtRp2024
(dp2025
g74
(dp2026
g94
g95
ssg83
g2020
sg76
(lp2027
g972
asbag69
(g90
g71
NtRp2028
(dp2029
g74
(dp2030
g101
g102
ssg83
g2020
sg76
(lp2031
S':'
asbag69
(g90
g71
NtRp2032
(dp2033
g74
(dp2034
sg83
g2020
sg76
(lp2035
g69
(g70
g71
NtRp2036
(dp2037
g74
(dp2038
g82
I4
ssg83
g2032
sg76
(lp2039
g112
asbasbasbag69
(g85
g71
NtRp2040
(dp2041
g74
(dp2042
sg83
g1909
sg76
(lp2043
g69
(g90
g71
NtRp2044
(dp2045
g74
(dp2046
g94
g95
ssg83
g2040
sg76
(lp2047
g993
asbag69
(g90
g71
NtRp2048
(dp2049
g74
(dp2050
g101
g102
ssg83
g2040
sg76
(lp2051
S':'
asbag69
(g90
g71
NtRp2052
(dp2053
g74
(dp2054
sg83
g2040
sg76
(lp2055
g69
(g70
g71
NtRp2056
(dp2057
g74
(dp2058
g82
I4
ssg83
g2052
sg76
(lp2059
g1006
asbasbasbag69
(g85
g71
NtRp2060
(dp2061
g74
(dp2062
sg83
g1909
sg76
(lp2063
g69
(g90
g71
NtRp2064
(dp2065
g74
(dp2066
g94
g95
ssg83
g2060
sg76
(lp2067
g1213
asbag69
(g90
g71
NtRp2068
(dp2069
g74
(dp2070
g101
g102
ssg83
g2060
sg76
(lp2071
S':'
asbag69
(g90
g71
NtRp2072
(dp2073
g74
(dp2074
sg83
g2060
sg76
(lp2075
g69
(g70
g71
NtRp2076
(dp2077
g74
(dp2078
g82
I4
ssg83
g2072
sg76
(lp2079
g112
asbasbasbag69
(g85
g71
NtRp2080
(dp2081
g74
(dp2082
sg83
g1909
sg76
(lp2083
g69
(g90
g71
NtRp2084
(dp2085
g74
(dp2086
g94
g95
ssg83
g2080
sg76
(lp2087
g1234
asbag69
(g90
g71
NtRp2088
(dp2089
g74
(dp2090
g101
g102
ssg83
g2080
sg76
(lp2091
S':'
asbag69
(g90
g71
NtRp2092
(dp2093
g74
(dp2094
sg83
g2080
sg76
(lp2095
g69
(g70
g71
NtRp2096
(dp2097
g74
(dp2098
g82
I4
ssg83
g2092
sg76
(lp2099
g112
asbasbasbag69
(g85
g71
NtRp2100
(dp2101
g74
(dp2102
sg83
g1909
sg76
(lp2103
g69
(g90
g71
NtRp2104
(dp2105
g74
(dp2106
g94
g95
ssg83
g2100
sg76
(lp2107
g1473
asbag69
(g90
g71
NtRp2108
(dp2109
g74
(dp2110
g101
g102
ssg83
g2100
sg76
(lp2111
S':'
asbag69
(g90
g71
NtRp2112
(dp2113
g74
(dp2114
sg83
g2100
sg76
(lp2115
g69
(g70
g71
NtRp2116
(dp2117
g74
(dp2118
g82
I4
ssg83
g2112
sg76
(lp2119
g1486
asbasbasbag69
(g85
g71
NtRp2120
(dp2121
g74
(dp2122
sg83
g1909
sg76
(lp2123
g69
(g90
g71
NtRp2124
(dp2125
g74
(dp2126
g94
g95
ssg83
g2120
sg76
(lp2127
g1516
asbag69
(g90
g71
NtRp2128
(dp2129
g74
(dp2130
g101
g102
ssg83
g2120
sg76
(lp2131
S':'
asbag69
(g90
g71
NtRp2132
(dp2133
g74
(dp2134
sg83
g2120
sg76
(lp2135
g69
(g70
g71
NtRp2136
(dp2137
g74
(dp2138
g82
I4
ssg83
g2132
sg76
(lp2139
g69
(g78
g71
NtRp2140
(dp2141
g74
(dp2142
g82
I3
ssg83
Nsg76
(lp2143
g69
(g85
g71
NtRp2144
(dp2145
g74
(dp2146
sg83
g2140
sg76
(lp2147
g69
(g90
g71
NtRp2148
(dp2149
g74
(dp2150
sg83
g2144
sg76
(lp2151
g69
(g70
g71
NtRp2152
(dp2153
g74
(dp2154
g82
I3
ssg83
g2148
sg76
(lp2155
S'1'
asbasbasbag69
(g85
g71
NtRp2156
(dp2157
g74
(dp2158
sg83
g2140
sg76
(lp2159
g69
(g90
g71
NtRp2160
(dp2161
g74
(dp2162
sg83
g2156
sg76
(lp2163
g69
(g70
g71
NtRp2164
(dp2165
g74
(dp2166
g82
I3
ssg83
g2160
sg76
(lp2167
S'99'
p2168
asbasbasbag69
(g85
g71
NtRp2169
(dp2170
g74
(dp2171
sg83
g2140
sg76
(lp2172
g69
(g90
g71
NtRp2173
(dp2174
g74
(dp2175
sg83
g2169
sg76
(lp2176
g69
(g70
g71
NtRp2177
(dp2178
g74
(dp2179
g82
I3
ssg83
g2173
sg76
(lp2180
S'7'
asbasbasbag69
(g85
g71
NtRp2181
(dp2182
g74
(dp2183
sg83
g2140
sg76
(lp2184
g69
(g90
g71
NtRp2185
(dp2186
g74
(dp2187
sg83
g2181
sg76
(lp2188
g69
(g70
g71
NtRp2189
(dp2190
g74
(dp2191
g82
I3
ssg83
g2185
sg76
(lp2192
S'datetime.datetime(2012, 3, 4, 22, 12, 8)'
p2193
asbasbasbag69
(g85
g71
NtRp2194
(dp2195
g74
(dp2196
sg83
g2140
sg76
(lp2197
g69
(g90
g71
NtRp2198
(dp2199
g74
(dp2200
sg83
g2194
sg76
(lp2201
g69
(g70
g71
NtRp2202
(dp2203
g74
(dp2204
g82
I3
ssg83
g2198
sg76
(lp2205
g1595
asbasbasbasbasbasbasbasbasbasbasbag69
(g85
g71
NtRp2206
(dp2207
g74
(dp2208
sg83
g79
sg76
(lp2209
g69
(g90
g71
NtRp2210
(dp2211
g74
(dp2212
g94
g95
ssg83
g2206
sg76
(lp2213
S'is_https'
p2214
asbag69
(g90
g71
NtRp2215
(dp2216
g74
(dp2217
g101
g102
ssg83
g2206
sg76
(lp2218
S':'
asbag69
(g90
g71
NtRp2219
(dp2220
g74
(dp2221
sg83
g2206
sg76
(lp2222
g69
(g70
g71
NtRp2223
(dp2224
g74
(dp2225
g82
I5
ssg83
g2219
sg76
(lp2226
g112
asbasbasbag69
(g85
g71
NtRp2227
(dp2228
g74
(dp2229
sg83
g79
sg76
(lp2230
g69
(g90
g71
NtRp2231
(dp2232
g74
(dp2233
g94
g95
ssg83
g2227
sg76
(lp2234
S'is_local'
p2235
asbag69
(g90
g71
NtRp2236
(dp2237
g74
(dp2238
g101
g102
ssg83
g2227
sg76
(lp2239
S':'
asbag69
(g90
g71
NtRp2240
(dp2241
g74
(dp2242
sg83
g2227
sg76
(lp2243
g69
(g70
g71
NtRp2244
(dp2245
g74
(dp2246
g82
I5
ssg83
g2240
sg76
(lp2247
g1704
asbasbasbag69
(g85
g71
NtRp2248
(dp2249
g74
(dp2250
sg83
g79
sg76
(lp2251
g69
(g90
g71
NtRp2252
(dp2253
g74
(dp2254
g94
g95
ssg83
g2248
sg76
(lp2255
S'is_restful'
p2256
asbag69
(g90
g71
NtRp2257
(dp2258
g74
(dp2259
g101
g102
ssg83
g2248
sg76
(lp2260
S':'
asbag69
(g90
g71
NtRp2261
(dp2262
g74
(dp2263
sg83
g2248
sg76
(lp2264
g69
(g70
g71
NtRp2265
(dp2266
g74
(dp2267
g82
I5
ssg83
g2261
sg76
(lp2268
g112
asbasbasbag69
(g85
g71
NtRp2269
(dp2270
g74
(dp2271
sg83
g79
sg76
(lp2272
g69
(g90
g71
NtRp2273
(dp2274
g74
(dp2275
g94
g95
ssg83
g2269
sg76
(lp2276
S'now'
p2277
asbag69
(g90
g71
NtRp2278
(dp2279
g74
(dp2280
g101
g102
ssg83
g2269
sg76
(lp2281
S':'
asbag69
(g90
g71
NtRp2282
(dp2283
g74
(dp2284
sg83
g2269
sg76
(lp2285
g69
(g70
g71
NtRp2286
(dp2287
g74
(dp2288
g82
I5
ssg83
g2282
sg76
(lp2289
S'datetime.datetime(2015, 11, 16, 2, 58, 57, 782992)'
p2290
asbasbasbag69
(g85
g71
NtRp2291
(dp2292
g74
(dp2293
sg83
g79
sg76
(lp2294
g69
(g90
g71
NtRp2295
(dp2296
g74
(dp2297
g94
g95
ssg83
g2291
sg76
(lp2298
S'post_vars'
p2299
asbag69
(g90
g71
NtRp2300
(dp2301
g74
(dp2302
g101
g102
ssg83
g2291
sg76
(lp2303
S':'
asbag69
(g90
g71
NtRp2304
(dp2305
g74
(dp2306
sg83
g2291
sg76
(lp2307
g69
(g70
g71
NtRp2308
(dp2309
g74
(dp2310
g82
I5
ssg83
g2304
sg76
(lp2311
g69
(g78
g71
NtRp2312
(dp2313
g74
(dp2314
g82
I4
ssg83
Nsg76
(lp2315
sbasbasbasbag69
(g85
g71
NtRp2316
(dp2317
g74
(dp2318
sg83
g79
sg76
(lp2319
g69
(g90
g71
NtRp2320
(dp2321
g74
(dp2322
g94
g95
ssg83
g2316
sg76
(lp2323
S'raw_args'
p2324
asbag69
(g90
g71
NtRp2325
(dp2326
g74
(dp2327
g101
g102
ssg83
g2316
sg76
(lp2328
S':'
asbag69
(g90
g71
NtRp2329
(dp2330
g74
(dp2331
sg83
g2316
sg76
(lp2332
g69
(g70
g71
NtRp2333
(dp2334
g74
(dp2335
g82
I5
ssg83
g2329
sg76
(lp2336
g171
asbasbasbag69
(g85
g71
NtRp2337
(dp2338
g74
(dp2339
sg83
g79
sg76
(lp2340
g69
(g90
g71
NtRp2341
(dp2342
g74
(dp2343
g94
g95
ssg83
g2337
sg76
(lp2344
S'url'
p2345
asbag69
(g90
g71
NtRp2346
(dp2347
g74
(dp2348
g101
g102
ssg83
g2337
sg76
(lp2349
S':'
asbag69
(g90
g71
NtRp2350
(dp2351
g74
(dp2352
sg83
g2337
sg76
(lp2353
g69
(g70
g71
NtRp2354
(dp2355
g74
(dp2356
g82
I5
ssg83
g2350
sg76
(lp2357
S'/IIITCourier/default/user/login'
p2358
asbasbasbag69
(g85
g71
NtRp2359
(dp2360
g74
(dp2361
sg83
g79
sg76
(lp2362
g69
(g90
g71
NtRp2363
(dp2364
g74
(dp2365
g94
g95
ssg83
g2359
sg76
(lp2366
S'utcnow'
p2367
asbag69
(g90
g71
NtRp2368
(dp2369
g74
(dp2370
g101
g102
ssg83
g2359
sg76
(lp2371
S':'
asbag69
(g90
g71
NtRp2372
(dp2373
g74
(dp2374
sg83
g2359
sg76
(lp2375
g69
(g70
g71
NtRp2376
(dp2377
g74
(dp2378
g82
I5
ssg83
g2372
sg76
(lp2379
S'datetime.datetime(2015, 11, 15, 21, 28, 57, 783028)'
p2380
asbasbasbag69
(g85
g71
NtRp2381
(dp2382
g74
(dp2383
sg83
g79
sg76
(lp2384
g69
(g90
g71
NtRp2385
(dp2386
g74
(dp2387
g94
g95
ssg83
g2381
sg76
(lp2388
S'uuid'
p2389
asbag69
(g90
g71
NtRp2390
(dp2391
g74
(dp2392
g101
g102
ssg83
g2381
sg76
(lp2393
S':'
asbag69
(g90
g71
NtRp2394
(dp2395
g74
(dp2396
sg83
g2381
sg76
(lp2397
g69
(g70
g71
NtRp2398
(dp2399
g74
(dp2400
g82
I5
ssg83
g2394
sg76
(lp2401
S'IIITCourier/127.0.0.1.2015-11-16.02-58-57.d8b2f1ec-1d8c-4f81-9715-df97c5304b4c'
p2402
asbasbasbag69
(g85
g71
NtRp2403
(dp2404
g74
(dp2405
sg83
g79
sg76
(lp2406
g69
(g90
g71
NtRp2407
(dp2408
g74
(dp2409
g94
g95
ssg83
g2403
sg76
(lp2410
S'vars'
p2411
asbag69
(g90
g71
NtRp2412
(dp2413
g74
(dp2414
g101
g102
ssg83
g2403
sg76
(lp2415
S':'
asbag69
(g90
g71
NtRp2416
(dp2417
g74
(dp2418
sg83
g2403
sg76
(lp2419
g69
(g70
g71
NtRp2420
(dp2421
g74
(dp2422
g82
I5
ssg83
g2416
sg76
(lp2423
g69
(g78
g71
NtRp2424
(dp2425
g74
(dp2426
g82
I4
ssg83
Nsg76
(lp2427
sbasbasbasbag69
(g85
g71
NtRp2428
(dp2429
g74
(dp2430
sg83
g79
sg76
(lp2431
g69
(g90
g71
NtRp2432
(dp2433
g74
(dp2434
g94
g95
ssg83
g2428
sg76
(lp2435
S'wsgi'
p2436
asbag69
(g90
g71
NtRp2437
(dp2438
g74
(dp2439
g101
g102
ssg83
g2428
sg76
(lp2440
S':'
asbag69
(g90
g71
NtRp2441
(dp2442
g74
(dp2443
sg83
g2428
sg76
(lp2444
g69
(g70
g71
NtRp2445
(dp2446
g74
(dp2447
g82
I5
ssg83
g2441
sg76
(lp2448
g69
(g78
g71
NtRp2449
(dp2450
g74
(dp2451
g82
I4
ssg83
Nsg76
(lp2452
g69
(g85
g71
NtRp2453
(dp2454
g74
(dp2455
sg83
g2449
sg76
(lp2456
g69
(g90
g71
NtRp2457
(dp2458
g74
(dp2459
g94
g95
ssg83
g2453
sg76
(lp2460
S'environ'
p2461
asbag69
(g90
g71
NtRp2462
(dp2463
g74
(dp2464
g101
g102
ssg83
g2453
sg76
(lp2465
S':'
asbag69
(g90
g71
NtRp2466
(dp2467
g74
(dp2468
sg83
g2453
sg76
(lp2469
g69
(g70
g71
NtRp2470
(dp2471
g74
(dp2472
g82
I4
ssg83
g2466
sg76
(lp2473
g69
(g78
g71
NtRp2474
(dp2475
g74
(dp2476
g82
I3
ssg83
Nsg76
(lp2477
g69
(g85
g71
NtRp2478
(dp2479
g74
(dp2480
sg83
g2474
sg76
(lp2481
g69
(g90
g71
NtRp2482
(dp2483
g74
(dp2484
g94
g95
ssg83
g2478
sg76
(lp2485
S'HTTP_ACCEPT'
p2486
asbag69
(g90
g71
NtRp2487
(dp2488
g74
(dp2489
g101
g102
ssg83
g2478
sg76
(lp2490
S':'
asbag69
(g90
g71
NtRp2491
(dp2492
g74
(dp2493
sg83
g2478
sg76
(lp2494
g69
(g70
g71
NtRp2495
(dp2496
g74
(dp2497
g82
I3
ssg83
g2491
sg76
(lp2498
g1028
asbasbasbag69
(g85
g71
NtRp2499
(dp2500
g74
(dp2501
sg83
g2474
sg76
(lp2502
g69
(g90
g71
NtRp2503
(dp2504
g74
(dp2505
g94
g95
ssg83
g2499
sg76
(lp2506
S'HTTP_ACCEPT_ENCODING'
p2507
asbag69
(g90
g71
NtRp2508
(dp2509
g74
(dp2510
g101
g102
ssg83
g2499
sg76
(lp2511
S':'
asbag69
(g90
g71
NtRp2512
(dp2513
g74
(dp2514
sg83
g2499
sg76
(lp2515
g69
(g70
g71
NtRp2516
(dp2517
g74
(dp2518
g82
I3
ssg83
g2512
sg76
(lp2519
g1050
asbasbasbag69
(g85
g71
NtRp2520
(dp2521
g74
(dp2522
sg83
g2474
sg76
(lp2523
g69
(g90
g71
NtRp2524
(dp2525
g74
(dp2526
g94
g95
ssg83
g2520
sg76
(lp2527
S'HTTP_ACCEPT_LANGUAGE'
p2528
asbag69
(g90
g71
NtRp2529
(dp2530
g74
(dp2531
g101
g102
ssg83
g2520
sg76
(lp2532
S':'
asbag69
(g90
g71
NtRp2533
(dp2534
g74
(dp2535
sg83
g2520
sg76
(lp2536
g69
(g70
g71
NtRp2537
(dp2538
g74
(dp2539
g82
I3
ssg83
g2533
sg76
(lp2540
g1072
asbasbasbag69
(g85
g71
NtRp2541
(dp2542
g74
(dp2543
sg83
g2474
sg76
(lp2544
g69
(g90
g71
NtRp2545
(dp2546
g74
(dp2547
g94
g95
ssg83
g2541
sg76
(lp2548
S'HTTP_CACHE_CONTROL'
p2549
asbag69
(g90
g71
NtRp2550
(dp2551
g74
(dp2552
g101
g102
ssg83
g2541
sg76
(lp2553
S':'
asbag69
(g90
g71
NtRp2554
(dp2555
g74
(dp2556
sg83
g2541
sg76
(lp2557
g69
(g70
g71
NtRp2558
(dp2559
g74
(dp2560
g82
I3
ssg83
g2554
sg76
(lp2561
g1094
asbasbasbag69
(g85
g71
NtRp2562
(dp2563
g74
(dp2564
sg83
g2474
sg76
(lp2565
g69
(g90
g71
NtRp2566
(dp2567
g74
(dp2568
g94
g95
ssg83
g2562
sg76
(lp2569
S'HTTP_CONNECTION'
p2570
asbag69
(g90
g71
NtRp2571
(dp2572
g74
(dp2573
g101
g102
ssg83
g2562
sg76
(lp2574
S':'
asbag69
(g90
g71
NtRp2575
(dp2576
g74
(dp2577
sg83
g2562
sg76
(lp2578
g69
(g70
g71
NtRp2579
(dp2580
g74
(dp2581
g82
I3
ssg83
g2575
sg76
(lp2582
g1116
asbasbasbag69
(g85
g71
NtRp2583
(dp2584
g74
(dp2585
sg83
g2474
sg76
(lp2586
g69
(g90
g71
NtRp2587
(dp2588
g74
(dp2589
g94
g95
ssg83
g2583
sg76
(lp2590
S'HTTP_COOKIE'
p2591
asbag69
(g90
g71
NtRp2592
(dp2593
g74
(dp2594
g101
g102
ssg83
g2583
sg76
(lp2595
S':'
asbag69
(g90
g71
NtRp2596
(dp2597
g74
(dp2598
sg83
g2583
sg76
(lp2599
g69
(g70
g71
NtRp2600
(dp2601
g74
(dp2602
g82
I3
ssg83
g2596
sg76
(lp2603
g1138
asbasbasbag69
(g85
g71
NtRp2604
(dp2605
g74
(dp2606
sg83
g2474
sg76
(lp2607
g69
(g90
g71
NtRp2608
(dp2609
g74
(dp2610
g94
g95
ssg83
g2604
sg76
(lp2611
S'HTTP_HOST'
p2612
asbag69
(g90
g71
NtRp2613
(dp2614
g74
(dp2615
g101
g102
ssg83
g2604
sg76
(lp2616
S':'
asbag69
(g90
g71
NtRp2617
(dp2618
g74
(dp2619
sg83
g2604
sg76
(lp2620
g69
(g70
g71
NtRp2621
(dp2622
g74
(dp2623
g82
I3
ssg83
g2617
sg76
(lp2624
g1160
asbasbasbag69
(g85
g71
NtRp2625
(dp2626
g74
(dp2627
sg83
g2474
sg76
(lp2628
g69
(g90
g71
NtRp2629
(dp2630
g74
(dp2631
g94
g95
ssg83
g2625
sg76
(lp2632
S'HTTP_REFERER'
p2633
asbag69
(g90
g71
NtRp2634
(dp2635
g74
(dp2636
g101
g102
ssg83
g2625
sg76
(lp2637
S':'
asbag69
(g90
g71
NtRp2638
(dp2639
g74
(dp2640
sg83
g2625
sg76
(lp2641
g69
(g70
g71
NtRp2642
(dp2643
g74
(dp2644
g82
I3
ssg83
g2638
sg76
(lp2645
g1182
asbasbasbag69
(g85
g71
NtRp2646
(dp2647
g74
(dp2648
sg83
g2474
sg76
(lp2649
g69
(g90
g71
NtRp2650
(dp2651
g74
(dp2652
g94
g95
ssg83
g2646
sg76
(lp2653
S'HTTP_USER_AGENT'
p2654
asbag69
(g90
g71
NtRp2655
(dp2656
g74
(dp2657
g101
g102
ssg83
g2646
sg76
(lp2658
S':'
asbag69
(g90
g71
NtRp2659
(dp2660
g74
(dp2661
sg83
g2646
sg76
(lp2662
g69
(g70
g71
NtRp2663
(dp2664
g74
(dp2665
g82
I3
ssg83
g2659
sg76
(lp2666
g1204
asbasbasbag69
(g85
g71
NtRp2667
(dp2668
g74
(dp2669
sg83
g2474
sg76
(lp2670
g69
(g90
g71
NtRp2671
(dp2672
g74
(dp2673
g94
g95
ssg83
g2667
sg76
(lp2674
S'PATH_INFO'
p2675
asbag69
(g90
g71
NtRp2676
(dp2677
g74
(dp2678
g101
g102
ssg83
g2667
sg76
(lp2679
S':'
asbag69
(g90
g71
NtRp2680
(dp2681
g74
(dp2682
sg83
g2667
sg76
(lp2683
g69
(g70
g71
NtRp2684
(dp2685
g74
(dp2686
g82
I3
ssg83
g2680
sg76
(lp2687
g1268
asbasbasbag69
(g85
g71
NtRp2688
(dp2689
g74
(dp2690
sg83
g2474
sg76
(lp2691
g69
(g90
g71
NtRp2692
(dp2693
g74
(dp2694
g94
g95
ssg83
g2688
sg76
(lp2695
S'QUERY_STRING'
p2696
asbag69
(g90
g71
NtRp2697
(dp2698
g74
(dp2699
g101
g102
ssg83
g2688
sg76
(lp2700
S':'
asbag69
(g90
g71
NtRp2701
(dp2702
g74
(dp2703
sg83
g2688
sg76
(lp2704
g69
(g70
g71
NtRp2705
(dp2706
g74
(dp2707
g82
I3
ssg83
g2701
sg76
(lp2708
g1290
asbasbasbag69
(g85
g71
NtRp2709
(dp2710
g74
(dp2711
sg83
g2474
sg76
(lp2712
g69
(g90
g71
NtRp2713
(dp2714
g74
(dp2715
g94
g95
ssg83
g2709
sg76
(lp2716
S'REMOTE_ADDR'
p2717
asbag69
(g90
g71
NtRp2718
(dp2719
g74
(dp2720
g101
g102
ssg83
g2709
sg76
(lp2721
S':'
asbag69
(g90
g71
NtRp2722
(dp2723
g74
(dp2724
sg83
g2709
sg76
(lp2725
g69
(g70
g71
NtRp2726
(dp2727
g74
(dp2728
g82
I3
ssg83
g2722
sg76
(lp2729
g215
asbasbasbag69
(g85
g71
NtRp2730
(dp2731
g74
(dp2732
sg83
g2474
sg76
(lp2733
g69
(g90
g71
NtRp2734
(dp2735
g74
(dp2736
g94
g95
ssg83
g2730
sg76
(lp2737
S'REMOTE_PORT'
p2738
asbag69
(g90
g71
NtRp2739
(dp2740
g74
(dp2741
g101
g102
ssg83
g2730
sg76
(lp2742
S':'
asbag69
(g90
g71
NtRp2743
(dp2744
g74
(dp2745
sg83
g2730
sg76
(lp2746
g69
(g70
g71
NtRp2747
(dp2748
g74
(dp2749
g82
I3
ssg83
g2743
sg76
(lp2750
g1333
asbasbasbag69
(g85
g71
NtRp2751
(dp2752
g74
(dp2753
sg83
g2474
sg76
(lp2754
g69
(g90
g71
NtRp2755
(dp2756
g74
(dp2757
g94
g95
ssg83
g2751
sg76
(lp2758
S'REQUEST_METHOD'
p2759
asbag69
(g90
g71
NtRp2760
(dp2761
g74
(dp2762
g101
g102
ssg83
g2751
sg76
(lp2763
S':'
asbag69
(g90
g71
NtRp2764
(dp2765
g74
(dp2766
sg83
g2751
sg76
(lp2767
g69
(g70
g71
NtRp2768
(dp2769
g74
(dp2770
g82
I3
ssg83
g2764
sg76
(lp2771
g1355
asbasbasbag69
(g85
g71
NtRp2772
(dp2773
g74
(dp2774
sg83
g2474
sg76
(lp2775
g69
(g90
g71
NtRp2776
(dp2777
g74
(dp2778
g94
g95
ssg83
g2772
sg76
(lp2779
S'SCRIPT_NAME'
p2780
asbag69
(g90
g71
NtRp2781
(dp2782
g74
(dp2783
g101
g102
ssg83
g2772
sg76
(lp2784
S':'
asbag69
(g90
g71
NtRp2785
(dp2786
g74
(dp2787
sg83
g2772
sg76
(lp2788
g69
(g70
g71
NtRp2789
(dp2790
g74
(dp2791
g82
I3
ssg83
g2785
sg76
(lp2792
S''
asbasbasbag69
(g85
g71
NtRp2793
(dp2794
g74
(dp2795
sg83
g2474
sg76
(lp2796
g69
(g90
g71
NtRp2797
(dp2798
g74
(dp2799
g94
g95
ssg83
g2793
sg76
(lp2800
S'SERVER_NAME'
p2801
asbag69
(g90
g71
NtRp2802
(dp2803
g74
(dp2804
g101
g102
ssg83
g2793
sg76
(lp2805
S':'
asbag69
(g90
g71
NtRp2806
(dp2807
g74
(dp2808
sg83
g2793
sg76
(lp2809
g69
(g70
g71
NtRp2810
(dp2811
g74
(dp2812
g82
I3
ssg83
g2806
sg76
(lp2813
g1398
asbasbasbag69
(g85
g71
NtRp2814
(dp2815
g74
(dp2816
sg83
g2474
sg76
(lp2817
g69
(g90
g71
NtRp2818
(dp2819
g74
(dp2820
g94
g95
ssg83
g2814
sg76
(lp2821
S'SERVER_PORT'
p2822
asbag69
(g90
g71
NtRp2823
(dp2824
g74
(dp2825
g101
g102
ssg83
g2814
sg76
(lp2826
S':'
asbag69
(g90
g71
NtRp2827
(dp2828
g74
(dp2829
sg83
g2814
sg76
(lp2830
g69
(g70
g71
NtRp2831
(dp2832
g74
(dp2833
g82
I3
ssg83
g2827
sg76
(lp2834
g1420
asbasbasbag69
(g85
g71
NtRp2835
(dp2836
g74
(dp2837
sg83
g2474
sg76
(lp2838
g69
(g90
g71
NtRp2839
(dp2840
g74
(dp2841
g94
g95
ssg83
g2835
sg76
(lp2842
S'SERVER_PROTOCOL'
p2843
asbag69
(g90
g71
NtRp2844
(dp2845
g74
(dp2846
g101
g102
ssg83
g2835
sg76
(lp2847
S':'
asbag69
(g90
g71
NtRp2848
(dp2849
g74
(dp2850
sg83
g2835
sg76
(lp2851
g69
(g70
g71
NtRp2852
(dp2853
g74
(dp2854
g82
I3
ssg83
g2848
sg76
(lp2855
g1442
asbasbasbag69
(g85
g71
NtRp2856
(dp2857
g74
(dp2858
sg83
g2474
sg76
(lp2859
g69
(g90
g71
NtRp2860
(dp2861
g74
(dp2862
g94
g95
ssg83
g2856
sg76
(lp2863
S'SERVER_SOFTWARE'
p2864
asbag69
(g90
g71
NtRp2865
(dp2866
g74
(dp2867
g101
g102
ssg83
g2856
sg76
(lp2868
S':'
asbag69
(g90
g71
NtRp2869
(dp2870
g74
(dp2871
sg83
g2856
sg76
(lp2872
g69
(g70
g71
NtRp2873
(dp2874
g74
(dp2875
g82
I3
ssg83
g2869
sg76
(lp2876
g1464
asbasbasbag69
(g85
g71
NtRp2877
(dp2878
g74
(dp2879
sg83
g2474
sg76
(lp2880
g69
(g90
g71
NtRp2881
(dp2882
g74
(dp2883
g94
g95
ssg83
g2877
sg76
(lp2884
S'wsgi.errors'
p2885
asbag69
(g90
g71
NtRp2886
(dp2887
g74
(dp2888
g101
g102
ssg83
g2877
sg76
(lp2889
S':'
asbag69
(g90
g71
NtRp2890
(dp2891
g74
(dp2892
sg83
g2877
sg76
(lp2893
g69
(g70
g71
NtRp2894
(dp2895
g74
(dp2896
g82
I3
ssg83
g2890
sg76
(lp2897
S"<open file '<stderr>', mode 'w' at 0x7fa71a3bc1e0>"
p2898
asbasbasbag69
(g85
g71
NtRp2899
(dp2900
g74
(dp2901
sg83
g2474
sg76
(lp2902
g69
(g90
g71
NtRp2903
(dp2904
g74
(dp2905
g94
g95
ssg83
g2899
sg76
(lp2906
S'wsgi.file_wrapper'
p2907
asbag69
(g90
g71
NtRp2908
(dp2909
g74
(dp2910
g101
g102
ssg83
g2899
sg76
(lp2911
S':'
asbag69
(g90
g71
NtRp2912
(dp2913
g74
(dp2914
sg83
g2899
sg76
(lp2915
g69
(g70
g71
NtRp2916
(dp2917
g74
(dp2918
g82
I3
ssg83
g2912
sg76
(lp2919
S'<class wsgiref.util.FileWrapper at 0x7fa715d59258>'
p2920
asbasbasbag69
(g85
g71
NtRp2921
(dp2922
g74
(dp2923
sg83
g2474
sg76
(lp2924
g69
(g90
g71
NtRp2925
(dp2926
g74
(dp2927
g94
g95
ssg83
g2921
sg76
(lp2928
S'wsgi.input'
p2929
asbag69
(g90
g71
NtRp2930
(dp2931
g74
(dp2932
g101
g102
ssg83
g2921
sg76
(lp2933
S':'
asbag69
(g90
g71
NtRp2934
(dp2935
g74
(dp2936
sg83
g2921
sg76
(lp2937
g69
(g70
g71
NtRp2938
(dp2939
g74
(dp2940
g82
I3
ssg83
g2934
sg76
(lp2941
S'<cStringIO.StringO object at 0x7fa6c74bb1b8>'
p2942
asbasbasbag69
(g85
g71
NtRp2943
(dp2944
g74
(dp2945
sg83
g2474
sg76
(lp2946
g69
(g90
g71
NtRp2947
(dp2948
g74
(dp2949
g94
g95
ssg83
g2943
sg76
(lp2950
S'wsgi.multiprocess'
p2951
asbag69
(g90
g71
NtRp2952
(dp2953
g74
(dp2954
g101
g102
ssg83
g2943
sg76
(lp2955
S':'
asbag69
(g90
g71
NtRp2956
(dp2957
g74
(dp2958
sg83
g2943
sg76
(lp2959
g69
(g70
g71
NtRp2960
(dp2961
g74
(dp2962
g82
I3
ssg83
g2956
sg76
(lp2963
g112
asbasbasbag69
(g85
g71
NtRp2964
(dp2965
g74
(dp2966
sg83
g2474
sg76
(lp2967
g69
(g90
g71
NtRp2968
(dp2969
g74
(dp2970
g94
g95
ssg83
g2964
sg76
(lp2971
S'wsgi.multithread'
p2972
asbag69
(g90
g71
NtRp2973
(dp2974
g74
(dp2975
g101
g102
ssg83
g2964
sg76
(lp2976
S':'
asbag69
(g90
g71
NtRp2977
(dp2978
g74
(dp2979
sg83
g2964
sg76
(lp2980
g69
(g70
g71
NtRp2981
(dp2982
g74
(dp2983
g82
I3
ssg83
g2977
sg76
(lp2984
g1704
asbasbasbag69
(g85
g71
NtRp2985
(dp2986
g74
(dp2987
sg83
g2474
sg76
(lp2988
g69
(g90
g71
NtRp2989
(dp2990
g74
(dp2991
g94
g95
ssg83
g2985
sg76
(lp2992
S'wsgi.run_once'
p2993
asbag69
(g90
g71
NtRp2994
(dp2995
g74
(dp2996
g101
g102
ssg83
g2985
sg76
(lp2997
S':'
asbag69
(g90
g71
NtRp2998
(dp2999
g74
(dp3000
sg83
g2985
sg76
(lp3001
g69
(g70
g71
NtRp3002
(dp3003
g74
(dp3004
g82
I3
ssg83
g2998
sg76
(lp3005
g112
asbasbasbag69
(g85
g71
NtRp3006
(dp3007
g74
(dp3008
sg83
g2474
sg76
(lp3009
g69
(g90
g71
NtRp3010
(dp3011
g74
(dp3012
g94
g95
ssg83
g3006
sg76
(lp3013
S'wsgi.url_scheme'
p3014
asbag69
(g90
g71
NtRp3015
(dp3016
g74
(dp3017
g101
g102
ssg83
g3006
sg76
(lp3018
S':'
asbag69
(g90
g71
NtRp3019
(dp3020
g74
(dp3021
sg83
g3006
sg76
(lp3022
g69
(g70
g71
NtRp3023
(dp3024
g74
(dp3025
g82
I3
ssg83
g3019
sg76
(lp3026
g1747
asbasbasbag69
(g85
g71
NtRp3027
(dp3028
g74
(dp3029
sg83
g2474
sg76
(lp3030
g69
(g90
g71
NtRp3031
(dp3032
g74
(dp3033
g94
g95
ssg83
g3027
sg76
(lp3034
S'wsgi.version'
p3035
asbag69
(g90
g71
NtRp3036
(dp3037
g74
(dp3038
g101
g102
ssg83
g3027
sg76
(lp3039
S':'
asbag69
(g90
g71
NtRp3040
(dp3041
g74
(dp3042
sg83
g3027
sg76
(lp3043
g69
(g70
g71
NtRp3044
(dp3045
g74
(dp3046
g82
I3
ssg83
g3040
sg76
(lp3047
S'1'
asbasbasbasbasbasbasbasbasbasbasbasbasbsS'frames'
p3048
(lp3049
(dp3050
S'file'
p3051
S'/usr/lib/pymodules/python2.7/gluon/restricted.py'
p3052
sS'dump'
p3053
(dp3054
S'code'
p3055
S'\'response.write(\\\'<!DOCTYPE html PUBLIC "-//W3C//D...p>\\\\n  </div>\\\\n </body>\\\\n</html>\\\\n\\\', escape=False)\''
p3056
sS'layer'
p3057
S"'/home/game_boy/web2py/applications/IIITCourier/views/default/user.html'"
p3058
sS'global compile2'
p3059
S'<function compile2>'
p3060
sS'ccode'
p3061
S'undefined'
p3062
ssS'lnum'
p3063
I204
sS'lines'
p3064
(dp3065
I199
S"    environment['__name__'] = '__restricted__'"
p3066
sI200
S'    try:'
p3067
sI201
S'        if type(code) == types.CodeType:'
p3068
sI202
S'            ccode = code'
p3069
sI203
S'        else:'
p3070
sI204
S'            ccode = compile2(code,layer)'
p3071
sI205
S'        exec ccode in environment'
p3072
sI206
S'    except HTTP:'
p3073
sI207
S'        raise'
p3074
sI208
S'    except RestrictedError:'
p3075
ssS'call'
p3076
S'(code=\'response.write(\\\'<!DOCTYPE html PUBLIC "-//W3C//D...p>\\\\n  </div>\\\\n </body>\\\\n</html>\\\\n\\\', escape=False)\', environment={\'A\': <class \'gluon.html.A\'>, \'Auth\': <class \'gluon.tools.Auth\'>, \'B\': <class \'gluon.html.B\'>, \'BEAUTIFY\': <class \'gluon.html.BEAUTIFY\'>, \'BODY\': <class \'gluon.html.BODY\'>, \'BR\': <class \'gluon.html.BR\'>, \'BUTTON\': <class \'gluon.html.BUTTON\'>, \'CAT\': <class \'gluon.html.CAT\'>, \'CENTER\': <class \'gluon.html.CENTER\'>, \'CLEANUP\': <class \'gluon.validators.CLEANUP\'>, ...}, layer=\'/home/game_boy/web2py/applications/IIITCourier/views/default/user.html\')'
p3077
sS'func'
p3078
S'restricted'
p3079
sa(dp3080
g3051
S'/usr/lib/pymodules/python2.7/gluon/restricted.py'
p3081
sg3053
(dp3082
S'builtincompile'
p3083
S'<built-in function compile>'
p3084
sS'code'
p3085
S'\'response.write(\\\'<!DOCTYPE html PUBLIC "-//W3C//D...p>\\\\n  </div>\\\\n </body>\\\\n</html>\\\\n\\\', escape=False)\''
p3086
sS'code.rstrip'
p3087
S'<built-in method rstrip of str object>'
p3088
sS').replace'
p3089
g3062
sS'layer'
p3090
S"'/home/game_boy/web2py/applications/IIITCourier/views/default/user.html'"
p3091
ssg3063
I189
sg3064
(dp3092
I192
S'    """'
p3093
sI193
S'    runs code in environment and returns the output. if an exception occurs'
p3094
sI184
S''
sI185
S'def compile2(code,layer):'
p3095
sI186
S'    """'
p3096
sI187
S"    The +'\\n' is necessary else compile fails when code ends in a comment."
p3097
sI188
S'    """'
p3098
sI189
S"    return compile(code.rstrip().replace('\\r\\n','\\n')+'\\n', layer, 'exec')"
p3099
sI190
S''
sI191
S"def restricted(code, environment=None, layer='Unknown'):"
p3100
ssg3076
S'(code=\'response.write(\\\'<!DOCTYPE html PUBLIC "-//W3C//D...p>\\\\n  </div>\\\\n </body>\\\\n</html>\\\\n\\\', escape=False)\', layer=\'/home/game_boy/web2py/applications/IIITCourier/views/default/user.html\')'
p3101
sg3078
S'compile2'
p3102
sasS'pyver'
p3103
S'Python 2.7.6: /usr/bin/python'
p3104
sS'session'
p3105
g69
(g70
g71
NtRp3106
(dp3107
g74
(dp3108
sg76
(lp3109
g69
(g78
g71
NtRp3110
(dp3111
g74
(dp3112
g82
I5
ssg83
Nsg76
(lp3113
g69
(g85
g71
NtRp3114
(dp3115
g74
(dp3116
sg83
g3110
sg76
(lp3117
g69
(g90
g71
NtRp3118
(dp3119
g74
(dp3120
g94
g95
ssg83
g3114
sg76
(lp3121
S'flash'
p3122
asbag69
(g90
g71
NtRp3123
(dp3124
g74
(dp3125
g101
g102
ssg83
g3114
sg76
(lp3126
S':'
asbag69
(g90
g71
NtRp3127
(dp3128
g74
(dp3129
sg83
g3114
sg76
(lp3130
g69
(g70
g71
NtRp3131
(dp3132
g74
(dp3133
g82
I5
ssg83
g3127
sg76
(lp3134
S''
asbasbasbag69
(g85
g71
NtRp3135
(dp3136
g74
(dp3137
sg83
g3110
sg76
(lp3138
g69
(g90
g71
NtRp3139
(dp3140
g74
(dp3141
g94
g95
ssg83
g3135
sg76
(lp3142
S'last_query'
p3143
asbag69
(g90
g71
NtRp3144
(dp3145
g74
(dp3146
g101
g102
ssg83
g3135
sg76
(lp3147
S':'
asbag69
(g90
g71
NtRp3148
(dp3149
g74
(dp3150
sg83
g3135
sg76
(lp3151
g69
(g70
g71
NtRp3152
(dp3153
g74
(dp3154
g82
I5
ssg83
g3148
sg76
(lp3155
S'db.auth_cas.id>0'
p3156
asbasbasbasbasbsS'etype'
p3157
S"<type 'exceptions.SyntaxError'>"
p3158
sS'date'
p3159
S'Mon Nov 16 02:58:57 2015'
p3160
sS'response'
p3161
g69
(g70
g71
NtRp3162
(dp3163
g74
(dp3164
sg76
(lp3165
g69
(g78
g71
NtRp3166
(dp3167
g74
(dp3168
g82
I5
ssg83
Nsg76
(lp3169
g69
(g85
g71
NtRp3170
(dp3171
g74
(dp3172
sg83
g3166
sg76
(lp3173
g69
(g90
g71
NtRp3174
(dp3175
g74
(dp3176
g94
g95
ssg83
g3170
sg76
(lp3177
g180
asbag69
(g90
g71
NtRp3178
(dp3179
g74
(dp3180
g101
g102
ssg83
g3170
sg76
(lp3181
S':'
asbag69
(g90
g71
NtRp3182
(dp3183
g74
(dp3184
sg83
g3170
sg76
(lp3185
g69
(g70
g71
NtRp3186
(dp3187
g74
(dp3188
g82
I5
ssg83
g3182
sg76
(lp3189
S'<cStringIO.StringO object at 0x7fa6c7addab0>'
p3190
asbasbasbag69
(g85
g71
NtRp3191
(dp3192
g74
(dp3193
sg83
g3166
sg76
(lp3194
g69
(g90
g71
NtRp3195
(dp3196
g74
(dp3197
g94
g95
ssg83
g3191
sg76
(lp3198
g246
asbag69
(g90
g71
NtRp3199
(dp3200
g74
(dp3201
g101
g102
ssg83
g3191
sg76
(lp3202
S':'
asbag69
(g90
g71
NtRp3203
(dp3204
g74
(dp3205
sg83
g3191
sg76
(lp3206
g69
(g70
g71
NtRp3207
(dp3208
g74
(dp3209
g82
I5
ssg83
g3203
sg76
(lp3210
g69
(g78
g71
NtRp3211
(dp3212
g74
(dp3213
g82
I4
ssg83
Nsg76
(lp3214
g69
(g85
g71
NtRp3215
(dp3216
g74
(dp3217
sg83
g3211
sg76
(lp3218
g69
(g90
g71
NtRp3219
(dp3220
g74
(dp3221
g94
g95
ssg83
g3215
sg76
(lp3222
S'session_id_iiitcourier'
p3223
asbag69
(g90
g71
NtRp3224
(dp3225
g74
(dp3226
g101
g102
ssg83
g3215
sg76
(lp3227
S':'
asbag69
(g90
g71
NtRp3228
(dp3229
g74
(dp3230
sg83
g3215
sg76
(lp3231
g69
(g70
g71
NtRp3232
(dp3233
g74
(dp3234
g82
I4
ssg83
g3228
sg76
(lp3235
g69
(g78
g71
NtRp3236
(dp3237
g74
(dp3238
g82
I3
ssg83
Nsg76
(lp3239
g69
(g85
g71
NtRp3240
(dp3241
g74
(dp3242
sg83
g3236
sg76
(lp3243
g69
(g90
g71
NtRp3244
(dp3245
g74
(dp3246
g94
g95
ssg83
g3240
sg76
(lp3247
g296
asbag69
(g90
g71
NtRp3248
(dp3249
g74
(dp3250
g101
g102
ssg83
g3240
sg76
(lp3251
S':'
asbag69
(g90
g71
NtRp3252
(dp3253
g74
(dp3254
sg83
g3240
sg76
(lp3255
g69
(g70
g71
NtRp3256
(dp3257
g74
(dp3258
g82
I3
ssg83
g3252
sg76
(lp3259
S''
asbasbasbag69
(g85
g71
NtRp3260
(dp3261
g74
(dp3262
sg83
g3236
sg76
(lp3263
g69
(g90
g71
NtRp3264
(dp3265
g74
(dp3266
g94
g95
ssg83
g3260
sg76
(lp3267
g317
asbag69
(g90
g71
NtRp3268
(dp3269
g74
(dp3270
g101
g102
ssg83
g3260
sg76
(lp3271
S':'
asbag69
(g90
g71
NtRp3272
(dp3273
g74
(dp3274
sg83
g3260
sg76
(lp3275
g69
(g70
g71
NtRp3276
(dp3277
g74
(dp3278
g82
I3
ssg83
g3272
sg76
(lp3279
S''
asbasbasbag69
(g85
g71
NtRp3280
(dp3281
g74
(dp3282
sg83
g3236
sg76
(lp3283
g69
(g90
g71
NtRp3284
(dp3285
g74
(dp3286
g94
g95
ssg83
g3280
sg76
(lp3287
g338
asbag69
(g90
g71
NtRp3288
(dp3289
g74
(dp3290
g101
g102
ssg83
g3280
sg76
(lp3291
S':'
asbag69
(g90
g71
NtRp3292
(dp3293
g74
(dp3294
sg83
g3280
sg76
(lp3295
g69
(g70
g71
NtRp3296
(dp3297
g74
(dp3298
g82
I3
ssg83
g3292
sg76
(lp3299
S''
asbasbasbag69
(g85
g71
NtRp3300
(dp3301
g74
(dp3302
sg83
g3236
sg76
(lp3303
g69
(g90
g71
NtRp3304
(dp3305
g74
(dp3306
g94
g95
ssg83
g3300
sg76
(lp3307
g359
asbag69
(g90
g71
NtRp3308
(dp3309
g74
(dp3310
g101
g102
ssg83
g3300
sg76
(lp3311
S':'
asbag69
(g90
g71
NtRp3312
(dp3313
g74
(dp3314
sg83
g3300
sg76
(lp3315
g69
(g70
g71
NtRp3316
(dp3317
g74
(dp3318
g82
I3
ssg83
g3312
sg76
(lp3319
S''
asbasbasbag69
(g85
g71
NtRp3320
(dp3321
g74
(dp3322
sg83
g3236
sg76
(lp3323
g69
(g90
g71
NtRp3324
(dp3325
g74
(dp3326
g94
g95
ssg83
g3320
sg76
(lp3327
g380
asbag69
(g90
g71
NtRp3328
(dp3329
g74
(dp3330
g101
g102
ssg83
g3320
sg76
(lp3331
S':'
asbag69
(g90
g71
NtRp3332
(dp3333
g74
(dp3334
sg83
g3320
sg76
(lp3335
g69
(g70
g71
NtRp3336
(dp3337
g74
(dp3338
g82
I3
ssg83
g3332
sg76
(lp3339
S''
asbasbasbag69
(g85
g71
NtRp3340
(dp3341
g74
(dp3342
sg83
g3236
sg76
(lp3343
g69
(g90
g71
NtRp3344
(dp3345
g74
(dp3346
g94
g95
ssg83
g3340
sg76
(lp3347
g401
asbag69
(g90
g71
NtRp3348
(dp3349
g74
(dp3350
g101
g102
ssg83
g3340
sg76
(lp3351
S':'
asbag69
(g90
g71
NtRp3352
(dp3353
g74
(dp3354
sg83
g3340
sg76
(lp3355
g69
(g70
g71
NtRp3356
(dp3357
g74
(dp3358
g82
I3
ssg83
g3352
sg76
(lp3359
S'/'
asbasbasbag69
(g85
g71
NtRp3360
(dp3361
g74
(dp3362
sg83
g3236
sg76
(lp3363
g69
(g90
g71
NtRp3364
(dp3365
g74
(dp3366
g94
g95
ssg83
g3360
sg76
(lp3367
g422
asbag69
(g90
g71
NtRp3368
(dp3369
g74
(dp3370
g101
g102
ssg83
g3360
sg76
(lp3371
S':'
asbag69
(g90
g71
NtRp3372
(dp3373
g74
(dp3374
sg83
g3360
sg76
(lp3375
g69
(g70
g71
NtRp3376
(dp3377
g74
(dp3378
g82
I3
ssg83
g3372
sg76
(lp3379
S''
asbasbasbag69
(g85
g71
NtRp3380
(dp3381
g74
(dp3382
sg83
g3236
sg76
(lp3383
g69
(g90
g71
NtRp3384
(dp3385
g74
(dp3386
g94
g95
ssg83
g3380
sg76
(lp3387
g443
asbag69
(g90
g71
NtRp3388
(dp3389
g74
(dp3390
g101
g102
ssg83
g3380
sg76
(lp3391
S':'
asbag69
(g90
g71
NtRp3392
(dp3393
g74
(dp3394
sg83
g3380
sg76
(lp3395
g69
(g70
g71
NtRp3396
(dp3397
g74
(dp3398
g82
I3
ssg83
g3392
sg76
(lp3399
S''
asbasbasbasbasbasbasbasbasbasbasbag69
(g85
g71
NtRp3400
(dp3401
g74
(dp3402
sg83
g3166
sg76
(lp3403
g69
(g90
g71
NtRp3404
(dp3405
g74
(dp3406
g94
g95
ssg83
g3400
sg76
(lp3407
S'delimiters'
p3408
asbag69
(g90
g71
NtRp3409
(dp3410
g74
(dp3411
g101
g102
ssg83
g3400
sg76
(lp3412
S':'
asbag69
(g90
g71
NtRp3413
(dp3414
g74
(dp3415
sg83
g3400
sg76
(lp3416
g69
(g70
g71
NtRp3417
(dp3418
g74
(dp3419
g82
I5
ssg83
g3413
sg76
(lp3420
g69
(g78
g71
NtRp3421
(dp3422
g74
(dp3423
g82
I4
ssg83
Nsg76
(lp3424
g69
(g85
g71
NtRp3425
(dp3426
g74
(dp3427
sg83
g3421
sg76
(lp3428
g69
(g90
g71
NtRp3429
(dp3430
g74
(dp3431
sg83
g3425
sg76
(lp3432
g69
(g70
g71
NtRp3433
(dp3434
g74
(dp3435
g82
I4
ssg83
g3429
sg76
(lp3436
S'{{'
p3437
asbasbasbag69
(g85
g71
NtRp3438
(dp3439
g74
(dp3440
sg83
g3421
sg76
(lp3441
g69
(g90
g71
NtRp3442
(dp3443
g74
(dp3444
sg83
g3438
sg76
(lp3445
g69
(g70
g71
NtRp3446
(dp3447
g74
(dp3448
g82
I4
ssg83
g3442
sg76
(lp3449
S'}}'
p3450
asbasbasbasbasbasbasbag69
(g85
g71
NtRp3451
(dp3452
g74
(dp3453
sg83
g3166
sg76
(lp3454
g69
(g90
g71
NtRp3455
(dp3456
g74
(dp3457
g94
g95
ssg83
g3451
sg76
(lp3458
S'files'
p3459
asbag69
(g90
g71
NtRp3460
(dp3461
g74
(dp3462
g101
g102
ssg83
g3451
sg76
(lp3463
S':'
asbag69
(g90
g71
NtRp3464
(dp3465
g74
(dp3466
sg83
g3451
sg76
(lp3467
g69
(g70
g71
NtRp3468
(dp3469
g74
(dp3470
g82
I5
ssg83
g3464
sg76
(lp3471
g69
(g78
g71
NtRp3472
(dp3473
g74
(dp3474
g82
I4
ssg83
Nsg76
(lp3475
sbasbasbasbag69
(g85
g71
NtRp3476
(dp3477
g74
(dp3478
sg83
g3166
sg76
(lp3479
g69
(g90
g71
NtRp3480
(dp3481
g74
(dp3482
g94
g95
ssg83
g3476
sg76
(lp3483
S'flash'
p3484
asbag69
(g90
g71
NtRp3485
(dp3486
g74
(dp3487
g101
g102
ssg83
g3476
sg76
(lp3488
S':'
asbag69
(g90
g71
NtRp3489
(dp3490
g74
(dp3491
sg83
g3476
sg76
(lp3492
g69
(g70
g71
NtRp3493
(dp3494
g74
(dp3495
g82
I5
ssg83
g3489
sg76
(lp3496
S''
asbasbasbag69
(g85
g71
NtRp3497
(dp3498
g74
(dp3499
sg83
g3166
sg76
(lp3500
g69
(g90
g71
NtRp3501
(dp3502
g74
(dp3503
g94
g95
ssg83
g3497
sg76
(lp3504
S'generic_patterns'
p3505
asbag69
(g90
g71
NtRp3506
(dp3507
g74
(dp3508
g101
g102
ssg83
g3497
sg76
(lp3509
S':'
asbag69
(g90
g71
NtRp3510
(dp3511
g74
(dp3512
sg83
g3497
sg76
(lp3513
g69
(g70
g71
NtRp3514
(dp3515
g74
(dp3516
g82
I5
ssg83
g3510
sg76
(lp3517
g69
(g78
g71
NtRp3518
(dp3519
g74
(dp3520
g82
I4
ssg83
Nsg76
(lp3521
g69
(g85
g71
NtRp3522
(dp3523
g74
(dp3524
sg83
g3518
sg76
(lp3525
g69
(g90
g71
NtRp3526
(dp3527
g74
(dp3528
sg83
g3522
sg76
(lp3529
g69
(g70
g71
NtRp3530
(dp3531
g74
(dp3532
g82
I4
ssg83
g3526
sg76
(lp3533
S'*'
asbasbasbasbasbasbasbag69
(g85
g71
NtRp3534
(dp3535
g74
(dp3536
sg83
g3166
sg76
(lp3537
g69
(g90
g71
NtRp3538
(dp3539
g74
(dp3540
g94
g95
ssg83
g3534
sg76
(lp3541
S'headers'
p3542
asbag69
(g90
g71
NtRp3543
(dp3544
g74
(dp3545
g101
g102
ssg83
g3534
sg76
(lp3546
S':'
asbag69
(g90
g71
NtRp3547
(dp3548
g74
(dp3549
sg83
g3534
sg76
(lp3550
g69
(g70
g71
NtRp3551
(dp3552
g74
(dp3553
g82
I5
ssg83
g3547
sg76
(lp3554
g69
(g78
g71
NtRp3555
(dp3556
g74
(dp3557
g82
I4
ssg83
Nsg76
(lp3558
g69
(g85
g71
NtRp3559
(dp3560
g74
(dp3561
sg83
g3555
sg76
(lp3562
g69
(g90
g71
NtRp3563
(dp3564
g74
(dp3565
g94
g95
ssg83
g3559
sg76
(lp3566
S'Cache-Control'
p3567
asbag69
(g90
g71
NtRp3568
(dp3569
g74
(dp3570
g101
g102
ssg83
g3559
sg76
(lp3571
S':'
asbag69
(g90
g71
NtRp3572
(dp3573
g74
(dp3574
sg83
g3559
sg76
(lp3575
g69
(g70
g71
NtRp3576
(dp3577
g74
(dp3578
g82
I4
ssg83
g3572
sg76
(lp3579
S'no-store, no-cache, must-revalidate, post-check=0, pre-check=0'
p3580
asbasbasbag69
(g85
g71
NtRp3581
(dp3582
g74
(dp3583
sg83
g3555
sg76
(lp3584
g69
(g90
g71
NtRp3585
(dp3586
g74
(dp3587
g94
g95
ssg83
g3581
sg76
(lp3588
S'Content-Type'
p3589
asbag69
(g90
g71
NtRp3590
(dp3591
g74
(dp3592
g101
g102
ssg83
g3581
sg76
(lp3593
S':'
asbag69
(g90
g71
NtRp3594
(dp3595
g74
(dp3596
sg83
g3581
sg76
(lp3597
g69
(g70
g71
NtRp3598
(dp3599
g74
(dp3600
g82
I4
ssg83
g3594
sg76
(lp3601
S'text/html; charset=utf-8'
p3602
asbasbasbag69
(g85
g71
NtRp3603
(dp3604
g74
(dp3605
sg83
g3555
sg76
(lp3606
g69
(g90
g71
NtRp3607
(dp3608
g74
(dp3609
g94
g95
ssg83
g3603
sg76
(lp3610
S'Expires'
p3611
asbag69
(g90
g71
NtRp3612
(dp3613
g74
(dp3614
g101
g102
ssg83
g3603
sg76
(lp3615
S':'
asbag69
(g90
g71
NtRp3616
(dp3617
g74
(dp3618
sg83
g3603
sg76
(lp3619
g69
(g70
g71
NtRp3620
(dp3621
g74
(dp3622
g82
I4
ssg83
g3616
sg76
(lp3623
S'Sun, 15 Nov 2015 21:28:57 GMT'
p3624
asbasbasbag69
(g85
g71
NtRp3625
(dp3626
g74
(dp3627
sg83
g3555
sg76
(lp3628
g69
(g90
g71
NtRp3629
(dp3630
g74
(dp3631
g94
g95
ssg83
g3625
sg76
(lp3632
S'Pragma'
p3633
asbag69
(g90
g71
NtRp3634
(dp3635
g74
(dp3636
g101
g102
ssg83
g3625
sg76
(lp3637
S':'
asbag69
(g90
g71
NtRp3638
(dp3639
g74
(dp3640
sg83
g3625
sg76
(lp3641
g69
(g70
g71
NtRp3642
(dp3643
g74
(dp3644
g82
I4
ssg83
g3638
sg76
(lp3645
S'no-cache'
p3646
asbasbasbag69
(g85
g71
NtRp3647
(dp3648
g74
(dp3649
sg83
g3555
sg76
(lp3650
g69
(g90
g71
NtRp3651
(dp3652
g74
(dp3653
g94
g95
ssg83
g3647
sg76
(lp3654
S'X-Powered-By'
p3655
asbag69
(g90
g71
NtRp3656
(dp3657
g74
(dp3658
g101
g102
ssg83
g3647
sg76
(lp3659
S':'
asbag69
(g90
g71
NtRp3660
(dp3661
g74
(dp3662
sg83
g3647
sg76
(lp3663
g69
(g70
g71
NtRp3664
(dp3665
g74
(dp3666
g82
I4
ssg83
g3660
sg76
(lp3667
S'web2py'
p3668
asbasbasbasbasbasbasbag69
(g85
g71
NtRp3669
(dp3670
g74
(dp3671
sg83
g3166
sg76
(lp3672
g69
(g90
g71
NtRp3673
(dp3674
g74
(dp3675
g94
g95
ssg83
g3669
sg76
(lp3676
S'menu'
p3677
asbag69
(g90
g71
NtRp3678
(dp3679
g74
(dp3680
g101
g102
ssg83
g3669
sg76
(lp3681
S':'
asbag69
(g90
g71
NtRp3682
(dp3683
g74
(dp3684
sg83
g3669
sg76
(lp3685
g69
(g70
g71
NtRp3686
(dp3687
g74
(dp3688
g82
I5
ssg83
g3682
sg76
(lp3689
g69
(g78
g71
NtRp3690
(dp3691
g74
(dp3692
g82
I4
ssg83
Nsg76
(lp3693
g69
(g85
g71
NtRp3694
(dp3695
g74
(dp3696
sg83
g3690
sg76
(lp3697
g69
(g90
g71
NtRp3698
(dp3699
g74
(dp3700
sg83
g3694
sg76
(lp3701
g69
(g70
g71
NtRp3702
(dp3703
g74
(dp3704
g82
I4
ssg83
g3698
sg76
(lp3705
g69
(g78
g71
NtRp3706
(dp3707
g74
(dp3708
g82
I3
ssg83
Nsg76
(lp3709
g69
(g85
g71
NtRp3710
(dp3711
g74
(dp3712
sg83
g3706
sg76
(lp3713
g69
(g90
g71
NtRp3714
(dp3715
g74
(dp3716
sg83
g3710
sg76
(lp3717
g69
(g70
g71
NtRp3718
(dp3719
g74
(dp3720
g82
I3
ssg83
g3714
sg76
(lp3721
cgluon.languages
lazyT_unpickle
p3722
(S't\x04\x00\x00\x00Home'
tRp3723
asbasbasbag69
(g85
g71
NtRp3724
(dp3725
g74
(dp3726
sg83
g3706
sg76
(lp3727
g69
(g90
g71
NtRp3728
(dp3729
g74
(dp3730
sg83
g3724
sg76
(lp3731
g69
(g70
g71
NtRp3732
(dp3733
g74
(dp3734
g82
I3
ssg83
g3728
sg76
(lp3735
g112
asbasbasbag69
(g85
g71
NtRp3736
(dp3737
g74
(dp3738
sg83
g3706
sg76
(lp3739
g69
(g90
g71
NtRp3740
(dp3741
g74
(dp3742
sg83
g3736
sg76
(lp3743
g69
(g70
g71
NtRp3744
(dp3745
g74
(dp3746
g82
I3
ssg83
g3740
sg76
(lp3747
S'/IIITCourier/default/index'
p3748
asbasbasbag69
(g85
g71
NtRp3749
(dp3750
g74
(dp3751
sg83
g3706
sg76
(lp3752
g69
(g90
g71
NtRp3753
(dp3754
g74
(dp3755
sg83
g3749
sg76
(lp3756
g69
(g70
g71
NtRp3757
(dp3758
g74
(dp3759
g82
I3
ssg83
g3753
sg76
(lp3760
g69
(g78
g71
NtRp3761
(dp3762
g74
(dp3763
g82
I2
ssg83
Nsg76
(lp3764
sbasbasbasbasbasbasbasbasbasbasbasbag69
(g85
g71
NtRp3765
(dp3766
g74
(dp3767
sg83
g3166
sg76
(lp3768
g69
(g90
g71
NtRp3769
(dp3770
g74
(dp3771
g94
g95
ssg83
g3765
sg76
(lp3772
S'meta'
p3773
asbag69
(g90
g71
NtRp3774
(dp3775
g74
(dp3776
g101
g102
ssg83
g3765
sg76
(lp3777
S':'
asbag69
(g90
g71
NtRp3778
(dp3779
g74
(dp3780
sg83
g3765
sg76
(lp3781
g69
(g70
g71
NtRp3782
(dp3783
g74
(dp3784
g82
I5
ssg83
g3778
sg76
(lp3785
g69
(g78
g71
NtRp3786
(dp3787
g74
(dp3788
g82
I4
ssg83
Nsg76
(lp3789
g69
(g85
g71
NtRp3790
(dp3791
g74
(dp3792
sg83
g3786
sg76
(lp3793
g69
(g90
g71
NtRp3794
(dp3795
g74
(dp3796
g94
g95
ssg83
g3790
sg76
(lp3797
S'author'
p3798
asbag69
(g90
g71
NtRp3799
(dp3800
g74
(dp3801
g101
g102
ssg83
g3790
sg76
(lp3802
S':'
asbag69
(g90
g71
NtRp3803
(dp3804
g74
(dp3805
sg83
g3790
sg76
(lp3806
g69
(g70
g71
NtRp3807
(dp3808
g74
(dp3809
g82
I4
ssg83
g3803
sg76
(lp3810
S'Your Name <you@example.com>'
p3811
asbasbasbag69
(g85
g71
NtRp3812
(dp3813
g74
(dp3814
sg83
g3786
sg76
(lp3815
g69
(g90
g71
NtRp3816
(dp3817
g74
(dp3818
g94
g95
ssg83
g3812
sg76
(lp3819
S'copyright'
p3820
asbag69
(g90
g71
NtRp3821
(dp3822
g74
(dp3823
g101
g102
ssg83
g3812
sg76
(lp3824
S':'
asbag69
(g90
g71
NtRp3825
(dp3826
g74
(dp3827
sg83
g3812
sg76
(lp3828
g69
(g70
g71
NtRp3829
(dp3830
g74
(dp3831
g82
I4
ssg83
g3825
sg76
(lp3832
S'Copyright 2015'
p3833
asbasbasbag69
(g85
g71
NtRp3834
(dp3835
g74
(dp3836
sg83
g3786
sg76
(lp3837
g69
(g90
g71
NtRp3838
(dp3839
g74
(dp3840
g94
g95
ssg83
g3834
sg76
(lp3841
S'description'
p3842
asbag69
(g90
g71
NtRp3843
(dp3844
g74
(dp3845
g101
g102
ssg83
g3834
sg76
(lp3846
S':'
asbag69
(g90
g71
NtRp3847
(dp3848
g74
(dp3849
sg83
g3834
sg76
(lp3850
g69
(g70
g71
NtRp3851
(dp3852
g74
(dp3853
g82
I4
ssg83
g3847
sg76
(lp3854
S'a cool new app'
p3855
asbasbasbag69
(g85
g71
NtRp3856
(dp3857
g74
(dp3858
sg83
g3786
sg76
(lp3859
g69
(g90
g71
NtRp3860
(dp3861
g74
(dp3862
g94
g95
ssg83
g3856
sg76
(lp3863
S'generator'
p3864
asbag69
(g90
g71
NtRp3865
(dp3866
g74
(dp3867
g101
g102
ssg83
g3856
sg76
(lp3868
S':'
asbag69
(g90
g71
NtRp3869
(dp3870
g74
(dp3871
sg83
g3856
sg76
(lp3872
g69
(g70
g71
NtRp3873
(dp3874
g74
(dp3875
g82
I4
ssg83
g3869
sg76
(lp3876
S'Web2py Web Framework'
p3877
asbasbasbag69
(g85
g71
NtRp3878
(dp3879
g74
(dp3880
sg83
g3786
sg76
(lp3881
g69
(g90
g71
NtRp3882
(dp3883
g74
(dp3884
g94
g95
ssg83
g3878
sg76
(lp3885
S'keywords'
p3886
asbag69
(g90
g71
NtRp3887
(dp3888
g74
(dp3889
g101
g102
ssg83
g3878
sg76
(lp3890
S':'
asbag69
(g90
g71
NtRp3891
(dp3892
g74
(dp3893
sg83
g3878
sg76
(lp3894
g69
(g70
g71
NtRp3895
(dp3896
g74
(dp3897
g82
I4
ssg83
g3891
sg76
(lp3898
S'web2py, python, framework'
p3899
asbasbasbasbasbasbasbag69
(g85
g71
NtRp3900
(dp3901
g74
(dp3902
sg83
g3166
sg76
(lp3903
g69
(g90
g71
NtRp3904
(dp3905
g74
(dp3906
g94
g95
ssg83
g3900
sg76
(lp3907
S'postprocessing'
p3908
asbag69
(g90
g71
NtRp3909
(dp3910
g74
(dp3911
g101
g102
ssg83
g3900
sg76
(lp3912
S':'
asbag69
(g90
g71
NtRp3913
(dp3914
g74
(dp3915
sg83
g3900
sg76
(lp3916
g69
(g70
g71
NtRp3917
(dp3918
g74
(dp3919
g82
I5
ssg83
g3913
sg76
(lp3920
g69
(g78
g71
NtRp3921
(dp3922
g74
(dp3923
g82
I4
ssg83
Nsg76
(lp3924
sbasbasbasbag69
(g85
g71
NtRp3925
(dp3926
g74
(dp3927
sg83
g3166
sg76
(lp3928
g69
(g90
g71
NtRp3929
(dp3930
g74
(dp3931
g94
g95
ssg83
g3925
sg76
(lp3932
S'session_file'
p3933
asbag69
(g90
g71
NtRp3934
(dp3935
g74
(dp3936
g101
g102
ssg83
g3925
sg76
(lp3937
S':'
asbag69
(g90
g71
NtRp3938
(dp3939
g74
(dp3940
sg83
g3925
sg76
(lp3941
g69
(g70
g71
NtRp3942
(dp3943
g74
(dp3944
g82
I5
ssg83
g3938
sg76
(lp3945
S"<open file '/home/game_boy/web2py/applications/IIITCourier/sessions/127.0.0.1-d80de6ec-cf5d-4cf3-8d7c-fad6af1bba5b', mode 'rb+' at 0x7fa6c7b9e780>"
p3946
asbasbasbag69
(g85
g71
NtRp3947
(dp3948
g74
(dp3949
sg83
g3166
sg76
(lp3950
g69
(g90
g71
NtRp3951
(dp3952
g74
(dp3953
g94
g95
ssg83
g3947
sg76
(lp3954
S'session_filename'
p3955
asbag69
(g90
g71
NtRp3956
(dp3957
g74
(dp3958
g101
g102
ssg83
g3947
sg76
(lp3959
S':'
asbag69
(g90
g71
NtRp3960
(dp3961
g74
(dp3962
sg83
g3947
sg76
(lp3963
g69
(g70
g71
NtRp3964
(dp3965
g74
(dp3966
g82
I5
ssg83
g3960
sg76
(lp3967
S'/home/game_boy/web2py/applications/IIITCourier/sessions/127.0.0.1-d80de6ec-cf5d-4cf3-8d7c-fad6af1bba5b'
p3968
asbasbasbag69
(g85
g71
NtRp3969
(dp3970
g74
(dp3971
sg83
g3166
sg76
(lp3972
g69
(g90
g71
NtRp3973
(dp3974
g74
(dp3975
g94
g95
ssg83
g3969
sg76
(lp3976
S'session_id'
p3977
asbag69
(g90
g71
NtRp3978
(dp3979
g74
(dp3980
g101
g102
ssg83
g3969
sg76
(lp3981
S':'
asbag69
(g90
g71
NtRp3982
(dp3983
g74
(dp3984
sg83
g3969
sg76
(lp3985
g69
(g70
g71
NtRp3986
(dp3987
g74
(dp3988
g82
I5
ssg83
g3982
sg76
(lp3989
S'127.0.0.1-d80de6ec-cf5d-4cf3-8d7c-fad6af1bba5b'
p3990
asbasbasbag69
(g85
g71
NtRp3991
(dp3992
g74
(dp3993
sg83
g3166
sg76
(lp3994
g69
(g90
g71
NtRp3995
(dp3996
g74
(dp3997
g94
g95
ssg83
g3991
sg76
(lp3998
S'session_id_name'
p3999
asbag69
(g90
g71
NtRp4000
(dp4001
g74
(dp4002
g101
g102
ssg83
g3991
sg76
(lp4003
S':'
asbag69
(g90
g71
NtRp4004
(dp4005
g74
(dp4006
sg83
g3991
sg76
(lp4007
g69
(g70
g71
NtRp4008
(dp4009
g74
(dp4010
g82
I5
ssg83
g4004
sg76
(lp4011
g3223
asbasbasbag69
(g85
g71
NtRp4012
(dp4013
g74
(dp4014
sg83
g3166
sg76
(lp4015
g69
(g90
g71
NtRp4016
(dp4017
g74
(dp4018
g94
g95
ssg83
g4012
sg76
(lp4019
S'session_locked'
p4020
asbag69
(g90
g71
NtRp4021
(dp4022
g74
(dp4023
g101
g102
ssg83
g4012
sg76
(lp4024
S':'
asbag69
(g90
g71
NtRp4025
(dp4026
g74
(dp4027
sg83
g4012
sg76
(lp4028
g69
(g70
g71
NtRp4029
(dp4030
g74
(dp4031
g82
I5
ssg83
g4025
sg76
(lp4032
g1704
asbasbasbag69
(g85
g71
NtRp4033
(dp4034
g74
(dp4035
sg83
g3166
sg76
(lp4036
g69
(g90
g71
NtRp4037
(dp4038
g74
(dp4039
g94
g95
ssg83
g4033
sg76
(lp4040
S'session_new'
p4041
asbag69
(g90
g71
NtRp4042
(dp4043
g74
(dp4044
g101
g102
ssg83
g4033
sg76
(lp4045
S':'
asbag69
(g90
g71
NtRp4046
(dp4047
g74
(dp4048
sg83
g4033
sg76
(lp4049
g69
(g70
g71
NtRp4050
(dp4051
g74
(dp4052
g82
I5
ssg83
g4046
sg76
(lp4053
g112
asbasbasbag69
(g85
g71
NtRp4054
(dp4055
g74
(dp4056
sg83
g3166
sg76
(lp4057
g69
(g90
g71
NtRp4058
(dp4059
g74
(dp4060
g94
g95
ssg83
g4054
sg76
(lp4061
S'status'
p4062
asbag69
(g90
g71
NtRp4063
(dp4064
g74
(dp4065
g101
g102
ssg83
g4054
sg76
(lp4066
S':'
asbag69
(g90
g71
NtRp4067
(dp4068
g74
(dp4069
sg83
g4054
sg76
(lp4070
g69
(g70
g71
NtRp4071
(dp4072
g74
(dp4073
g82
I5
ssg83
g4067
sg76
(lp4074
S'200'
p4075
asbasbasbag69
(g85
g71
NtRp4076
(dp4077
g74
(dp4078
sg83
g3166
sg76
(lp4079
g69
(g90
g71
NtRp4080
(dp4081
g74
(dp4082
g94
g95
ssg83
g4076
sg76
(lp4083
S'subtitle'
p4084
asbag69
(g90
g71
NtRp4085
(dp4086
g74
(dp4087
g101
g102
ssg83
g4076
sg76
(lp4088
S':'
asbag69
(g90
g71
NtRp4089
(dp4090
g74
(dp4091
sg83
g4076
sg76
(lp4092
g69
(g70
g71
NtRp4093
(dp4094
g74
(dp4095
g82
I5
ssg83
g4089
sg76
(lp4096
g3722
(S's\r\x00\x00\x00customize me!'
tRp4097
asbasbasbag69
(g85
g71
NtRp4098
(dp4099
g74
(dp4100
sg83
g3166
sg76
(lp4101
g69
(g90
g71
NtRp4102
(dp4103
g74
(dp4104
g94
g95
ssg83
g4098
sg76
(lp4105
S'title'
p4106
asbag69
(g90
g71
NtRp4107
(dp4108
g74
(dp4109
g101
g102
ssg83
g4098
sg76
(lp4110
S':'
asbag69
(g90
g71
NtRp4111
(dp4112
g74
(dp4113
sg83
g4098
sg76
(lp4114
g69
(g70
g71
NtRp4115
(dp4116
g74
(dp4117
g82
I5
ssg83
g4111
sg76
(lp4118
S'Iiitcourier'
p4119
asbasbasbag69
(g85
g71
NtRp4120
(dp4121
g74
(dp4122
sg83
g3166
sg76
(lp4123
g69
(g90
g71
NtRp4124
(dp4125
g74
(dp4126
g94
g95
ssg83
g4120
sg76
(lp4127
g2389
asbag69
(g90
g71
NtRp4128
(dp4129
g74
(dp4130
g101
g102
ssg83
g4120
sg76
(lp4131
S':'
asbag69
(g90
g71
NtRp4132
(dp4133
g74
(dp4134
sg83
g4120
sg76
(lp4135
g69
(g70
g71
NtRp4136
(dp4137
g74
(dp4138
g82
I5
ssg83
g4132
sg76
(lp4139
g2402
asbasbasbag69
(g85
g71
NtRp4140
(dp4141
g74
(dp4142
sg83
g3166
sg76
(lp4143
g69
(g90
g71
NtRp4144
(dp4145
g74
(dp4146
g94
g95
ssg83
g4140
sg76
(lp4147
S'view'
p4148
asbag69
(g90
g71
NtRp4149
(dp4150
g74
(dp4151
g101
g102
ssg83
g4140
sg76
(lp4152
S':'
asbag69
(g90
g71
NtRp4153
(dp4154
g74
(dp4155
sg83
g4140
sg76
(lp4156
g69
(g70
g71
NtRp4157
(dp4158
g74
(dp4159
g82
I5
ssg83
g4153
sg76
(lp4160
S'default/user.html'
p4161
asbasbasbasbasbsS'locals'
p4162
(dp4163
g4
S"'/home/game_boy/web2py/applications/IIITCourier/views/default/user.html'"
p4164
sg6
S'\'response.write(\\\'<!DOCTYPE html PUBLIC "-//W3C//D...p>\\\\n  </div>\\\\n </body>\\\\n</html>\\\\n\\\', escape=False)\''
p4165
sssS'traceback'
p4166
S'Traceback (most recent call last):\n  File "/usr/lib/pymodules/python2.7/gluon/restricted.py", line 204, in restricted\n    ccode = compile2(code,layer)\n  File "/usr/lib/pymodules/python2.7/gluon/restricted.py", line 189, in compile2\n    return compile(code.rstrip().replace(\'\\r\\n\',\'\\n\')+\'\\n\', layer, \'exec\')\n  File "/home/game_boy/web2py/applications/IIITCourier/views/default/user.html", line 24\n    \nSyntaxError: non-keyword arg after keyword arg\n'
p4167
s.