(dp1
S'output'
p2
S"<type 'exceptions.RuntimeError'> Cannot compare courierDetails.Date_received >= None"
p3
sS'layer'
p4
S'/home/game_boy/web2py/applications/IIITCourier/controllers/default.py'
p5
sS'code'
p6
S'# -*- coding: utf-8 -*-\n# this file is released under public domain and you can use without limitations\n\n#########################################################################\n## This is a samples controller\n## - index is the default action of any application\n## - user is required for authentication and authorization\n## - download is for downloading files uploaded in the db (does streaming)\n## - call exposes all registered services (none by default)\n#########################################################################\nfrom gluon.tools import Crud\ncrud = Crud(db)\n\ndef index():\n    redirect(URL(\'login\'))\n\n@auth.requires_login()    \ndef login():\n    if auth.has_membership(group_id=\'security\'):\n        redirect(URL(\'securityHome\'))\n    else:\n        redirect(URL(\'studentHome\'))\n        \n@auth.requires_membership(\'security\')\ndef securityHome():\n    form1 = SQLFORM.factory(Field(\'Student_Name\', \'string\'),\n                            Field(\'Contact_No\', \'integer\'),\n                            Field(\'From\',\'datetime\'),\n                            Field(\'To\',\'datetime\'),\n                            Field(\'Received\', requires=IS_IN_SET([\'YES\', \'NO\']),default=\'NO\')).process()\n    form = crud.create(db.courierDetails).process()    #SQLFORM(db.courierDetails).process()\n    if form1.accepted:\n         redirect(URL(\'searchPage\', \n             vars={\'name\':form1.vars.Student_Name, \n             \'contact\':form1.vars.Contact_No, \n             \'from\':form1.vars.From, \n             \'to\':form1.vars.To, \n             \'received\':form1.vars.Received}))\n    return locals()\n\ndef searchPage():\n    name = request.vars[\'name\']\n    contact = request.vars[\'contact\']\n    From = request.vars[\'from\']\n    To = request.vars[\'to\']\n    received = request.vars[\'received\']\n    queries = []\n    if name != \'\':\n        queries.append(db.courierDetails.Name == name)\n    if contact != None and contact != \'None\':\n        queries.append(db.courierDetails.Contact_No == int(contact))\n    if From != \'None\':\n        queries.append(db.courierDetails.Date_received >=From)\n    if To != \'None\':\n        queries.append(db.courierDetails.Date_received <= To)\n    if received != \'None\':\n        queries.append(db.courierDetails.Received == received)\n    query = reduce(lambda a,b:(a&b),queries)    \n       \n    rows=SQLFORM.grid(query = query);\n    return {\'rows\':rows}\n    \n@auth.requires_membership(\'student\')\ndef studentHome():\n    query = (db.courierDetails.Email == auth.user.email) & (db.courierDetails.Received == \'NO\')\n    rows=SQLFORM.grid(query = query);\n    return {\'rows\':rows}\n\ndef getEmailFromHostelDB():\n    import cgi\n    s = cgi.escape(str(request.vars))\n    query = (db.studentHostelDetails.Hostel_Name == request.vars[\'Hostel_Name\']) & (db.studentHostelDetails.Name == request.vars[\'Name\']) & (db.studentHostelDetails.Room_No == request.vars[\'Room_No\'])\n    rows = db(query).select()\n    emailId = \'\'\n    for row in rows:\n        emailId = row.Email\n    t = \'mohit\'\n    return "jQuery(\'#courierDetails_Email\').val(%s);" % repr(str(emailId))\n\ndef user():\n    """\n    exposes:\n    http://..../[app]/default/user/login\n    http://..../[app]/default/user/logout\n    http://..../[app]/default/user/register\n    http://..../[app]/default/user/profile\n    http://..../[app]/default/user/retrieve_password\n    http://..../[app]/default/user/change_password\n    use @auth.requires_login()\n        @auth.requires_membership(\'group name\')\n        @auth.requires_permission(\'read\',\'table name\',record_id)\n    to decorate functions that need access control\n    """\n    return dict(form=auth())\n\n\ndef download():\n    """\n    allows downloading of uploaded files\n    http://..../[app]/default/download/[filename]\n    """\n    return response.download(request,db)\n\n\ndef call():\n    """\n    exposes services. for example:\n    http://..../[app]/default/call/jsonrpc\n    decorate with @services.jsonrpc the functions to expose\n    supports xml, json, xmlrpc, jsonrpc, amfrpc, rss, csv\n    """\n    return service()\n\n\n@auth.requires_signature()\ndef data():\n    """\n    http://..../[app]/default/data/tables\n    http://..../[app]/default/data/create/[table]\n    http://..../[app]/default/data/read/[table]/[id]\n    http://..../[app]/default/data/update/[table]/[id]\n    http://..../[app]/default/data/delete/[table]/[id]\n    http://..../[app]/default/data/select/[table]\n    http://..../[app]/default/data/search/[table]\n    but URLs must be signed, i.e. linked with\n      A(\'table\',_href=URL(\'data/tables\',user_signature=True))\n    or with the signed load operator\n      LOAD(\'default\',\'data.load\',args=\'tables\',ajax=True,user_signature=True)\n    """\n    return dict(form=crud())\n\nresponse._vars=response._caller(searchPage)\n'
p7
sS'snapshot'
p8
(dp9
S'exception'
p10
(dp11
S'__hash__'
p12
S"<method-wrapper '__hash__' of exceptions.RuntimeError object>"
p13
sS'__setattr__'
p14
S"<method-wrapper '__setattr__' of exceptions.RuntimeError object>"
p15
sS'__reduce_ex__'
p16
S'<built-in method __reduce_ex__ of exceptions.RuntimeError object>'
p17
sS'__getslice__'
p18
S"<method-wrapper '__getslice__' of exceptions.RuntimeError object>"
p19
sS'__getitem__'
p20
S"<method-wrapper '__getitem__' of exceptions.RuntimeError object>"
p21
sS'__setstate__'
p22
S'<built-in method __setstate__ of exceptions.RuntimeError object>'
p23
sS'args'
p24
S"('Cannot compare courierDetails.Date_received >= None',)"
p25
sS'__reduce__'
p26
S'<built-in method __reduce__ of exceptions.RuntimeError object>'
p27
sS'__str__'
p28
S"<method-wrapper '__str__' of exceptions.RuntimeError object>"
p29
sS'__format__'
p30
S'<built-in method __format__ of exceptions.RuntimeError object>'
p31
sS'__getattribute__'
p32
S"<method-wrapper '__getattribute__' of exceptions.RuntimeError object>"
p33
sS'__class__'
p34
S"<type 'exceptions.RuntimeError'>"
p35
sS'__unicode__'
p36
S'<built-in method __unicode__ of exceptions.RuntimeError object>'
p37
sS'__delattr__'
p38
S"<method-wrapper '__delattr__' of exceptions.RuntimeError object>"
p39
sS'__subclasshook__'
p40
S'<built-in method __subclasshook__ of type object>'
p41
sS'__repr__'
p42
S"<method-wrapper '__repr__' of exceptions.RuntimeError object>"
p43
sS'__dict__'
p44
S'{}'
p45
sS'__sizeof__'
p46
S'<built-in method __sizeof__ of exceptions.RuntimeError object>'
p47
sS'__doc__'
p48
S"'Unspecified run-time error.'"
p49
sS'__init__'
p50
S"<method-wrapper '__init__' of exceptions.RuntimeError object>"
p51
sS'__new__'
p52
S'<built-in method __new__ of type object>'
p53
ssS'evalue'
p54
S'Cannot compare courierDetails.Date_received >= None'
p55
sS'request'
p56
ccopy_reg
_reconstructor
p57
(cgluon.html
BEAUTIFY
p58
c__builtin__
object
p59
NtRp60
(dp61
S'attributes'
p62
(dp63
sS'components'
p64
(lp65
g57
(cgluon.html
TABLE
p66
g59
NtRp67
(dp68
g62
(dp69
S'level'
p70
I5
ssS'parent'
p71
Nsg64
(lp72
g57
(cgluon.html
TR
p73
g59
NtRp74
(dp75
g62
(dp76
sg71
g67
sg64
(lp77
g57
(cgluon.html
TD
p78
g59
NtRp79
(dp80
g62
(dp81
S'_style'
p82
S'font-weight:bold;vertical-align:top'
p83
ssg71
g74
sg64
(lp84
S'ajax'
p85
asbag57
(g78
g59
NtRp86
(dp87
g62
(dp88
S'_valign'
p89
S'top'
p90
ssg71
g74
sg64
(lp91
S':'
asbag57
(g78
g59
NtRp92
(dp93
g62
(dp94
sg71
g74
sg64
(lp95
g57
(g58
g59
NtRp96
(dp97
g62
(dp98
g70
I5
ssg71
g92
sg64
(lp99
S'False'
p100
asbasbasbag57
(g73
g59
NtRp101
(dp102
g62
(dp103
sg71
g67
sg64
(lp104
g57
(g78
g59
NtRp105
(dp106
g62
(dp107
g82
g83
ssg71
g101
sg64
(lp108
S'application'
p109
asbag57
(g78
g59
NtRp110
(dp111
g62
(dp112
g89
g90
ssg71
g101
sg64
(lp113
S':'
asbag57
(g78
g59
NtRp114
(dp115
g62
(dp116
sg71
g101
sg64
(lp117
g57
(g58
g59
NtRp118
(dp119
g62
(dp120
g70
I5
ssg71
g114
sg64
(lp121
S'IIITCourier'
p122
asbasbasbag57
(g73
g59
NtRp123
(dp124
g62
(dp125
sg71
g67
sg64
(lp126
g57
(g78
g59
NtRp127
(dp128
g62
(dp129
g82
g83
ssg71
g123
sg64
(lp130
g24
asbag57
(g78
g59
NtRp131
(dp132
g62
(dp133
g89
g90
ssg71
g123
sg64
(lp134
S':'
asbag57
(g78
g59
NtRp135
(dp136
g62
(dp137
sg71
g123
sg64
(lp138
g57
(g58
g59
NtRp139
(dp140
g62
(dp141
g70
I5
ssg71
g135
sg64
(lp142
g57
(g66
g59
NtRp143
(dp144
g62
(dp145
g70
I4
ssg71
Nsg64
(lp146
sbasbasbasbag57
(g73
g59
NtRp147
(dp148
g62
(dp149
sg71
g67
sg64
(lp150
g57
(g78
g59
NtRp151
(dp152
g62
(dp153
g82
g83
ssg71
g147
sg64
(lp154
S'body'
p155
asbag57
(g78
g59
NtRp156
(dp157
g62
(dp158
g89
g90
ssg71
g147
sg64
(lp159
S':'
asbag57
(g78
g59
NtRp160
(dp161
g62
(dp162
sg71
g147
sg64
(lp163
g57
(g58
g59
NtRp164
(dp165
g62
(dp166
g70
I5
ssg71
g160
sg64
(lp167
S'<cStringIO.StringO object at 0x7fa6c7f41ed8>'
p168
asbasbasbag57
(g73
g59
NtRp169
(dp170
g62
(dp171
sg71
g67
sg64
(lp172
g57
(g78
g59
NtRp173
(dp174
g62
(dp175
g82
g83
ssg71
g169
sg64
(lp176
S'client'
p177
asbag57
(g78
g59
NtRp178
(dp179
g62
(dp180
g89
g90
ssg71
g169
sg64
(lp181
S':'
asbag57
(g78
g59
NtRp182
(dp183
g62
(dp184
sg71
g169
sg64
(lp185
g57
(g58
g59
NtRp186
(dp187
g62
(dp188
g70
I5
ssg71
g182
sg64
(lp189
S'127.0.0.1'
p190
asbasbasbag57
(g73
g59
NtRp191
(dp192
g62
(dp193
sg71
g67
sg64
(lp194
g57
(g78
g59
NtRp195
(dp196
g62
(dp197
g82
g83
ssg71
g191
sg64
(lp198
S'controller'
p199
asbag57
(g78
g59
NtRp200
(dp201
g62
(dp202
g89
g90
ssg71
g191
sg64
(lp203
S':'
asbag57
(g78
g59
NtRp204
(dp205
g62
(dp206
sg71
g191
sg64
(lp207
g57
(g58
g59
NtRp208
(dp209
g62
(dp210
g70
I5
ssg71
g204
sg64
(lp211
S'default'
p212
asbasbasbag57
(g73
g59
NtRp213
(dp214
g62
(dp215
sg71
g67
sg64
(lp216
g57
(g78
g59
NtRp217
(dp218
g62
(dp219
g82
g83
ssg71
g213
sg64
(lp220
S'cookies'
p221
asbag57
(g78
g59
NtRp222
(dp223
g62
(dp224
g89
g90
ssg71
g213
sg64
(lp225
S':'
asbag57
(g78
g59
NtRp226
(dp227
g62
(dp228
sg71
g213
sg64
(lp229
g57
(g58
g59
NtRp230
(dp231
g62
(dp232
g70
I5
ssg71
g226
sg64
(lp233
g57
(g66
g59
NtRp234
(dp235
g62
(dp236
g70
I4
ssg71
Nsg64
(lp237
g57
(g73
g59
NtRp238
(dp239
g62
(dp240
sg71
g234
sg64
(lp241
g57
(g78
g59
NtRp242
(dp243
g62
(dp244
g82
g83
ssg71
g238
sg64
(lp245
S'session_id_admin'
p246
asbag57
(g78
g59
NtRp247
(dp248
g62
(dp249
g89
g90
ssg71
g238
sg64
(lp250
S':'
asbag57
(g78
g59
NtRp251
(dp252
g62
(dp253
sg71
g238
sg64
(lp254
g57
(g58
g59
NtRp255
(dp256
g62
(dp257
g70
I4
ssg71
g251
sg64
(lp258
g57
(g66
g59
NtRp259
(dp260
g62
(dp261
g70
I3
ssg71
Nsg64
(lp262
g57
(g73
g59
NtRp263
(dp264
g62
(dp265
sg71
g259
sg64
(lp266
g57
(g78
g59
NtRp267
(dp268
g62
(dp269
g82
g83
ssg71
g263
sg64
(lp270
S'comment'
p271
asbag57
(g78
g59
NtRp272
(dp273
g62
(dp274
g89
g90
ssg71
g263
sg64
(lp275
S':'
asbag57
(g78
g59
NtRp276
(dp277
g62
(dp278
sg71
g263
sg64
(lp279
g57
(g58
g59
NtRp280
(dp281
g62
(dp282
g70
I3
ssg71
g276
sg64
(lp283
S''
asbasbasbag57
(g73
g59
NtRp284
(dp285
g62
(dp286
sg71
g259
sg64
(lp287
g57
(g78
g59
NtRp288
(dp289
g62
(dp290
g82
g83
ssg71
g284
sg64
(lp291
S'domain'
p292
asbag57
(g78
g59
NtRp293
(dp294
g62
(dp295
g89
g90
ssg71
g284
sg64
(lp296
S':'
asbag57
(g78
g59
NtRp297
(dp298
g62
(dp299
sg71
g284
sg64
(lp300
g57
(g58
g59
NtRp301
(dp302
g62
(dp303
g70
I3
ssg71
g297
sg64
(lp304
S''
asbasbasbag57
(g73
g59
NtRp305
(dp306
g62
(dp307
sg71
g259
sg64
(lp308
g57
(g78
g59
NtRp309
(dp310
g62
(dp311
g82
g83
ssg71
g305
sg64
(lp312
S'expires'
p313
asbag57
(g78
g59
NtRp314
(dp315
g62
(dp316
g89
g90
ssg71
g305
sg64
(lp317
S':'
asbag57
(g78
g59
NtRp318
(dp319
g62
(dp320
sg71
g305
sg64
(lp321
g57
(g58
g59
NtRp322
(dp323
g62
(dp324
g70
I3
ssg71
g318
sg64
(lp325
S''
asbasbasbag57
(g73
g59
NtRp326
(dp327
g62
(dp328
sg71
g259
sg64
(lp329
g57
(g78
g59
NtRp330
(dp331
g62
(dp332
g82
g83
ssg71
g326
sg64
(lp333
S'httponly'
p334
asbag57
(g78
g59
NtRp335
(dp336
g62
(dp337
g89
g90
ssg71
g326
sg64
(lp338
S':'
asbag57
(g78
g59
NtRp339
(dp340
g62
(dp341
sg71
g326
sg64
(lp342
g57
(g58
g59
NtRp343
(dp344
g62
(dp345
g70
I3
ssg71
g339
sg64
(lp346
S''
asbasbasbag57
(g73
g59
NtRp347
(dp348
g62
(dp349
sg71
g259
sg64
(lp350
g57
(g78
g59
NtRp351
(dp352
g62
(dp353
g82
g83
ssg71
g347
sg64
(lp354
S'max-age'
p355
asbag57
(g78
g59
NtRp356
(dp357
g62
(dp358
g89
g90
ssg71
g347
sg64
(lp359
S':'
asbag57
(g78
g59
NtRp360
(dp361
g62
(dp362
sg71
g347
sg64
(lp363
g57
(g58
g59
NtRp364
(dp365
g62
(dp366
g70
I3
ssg71
g360
sg64
(lp367
S''
asbasbasbag57
(g73
g59
NtRp368
(dp369
g62
(dp370
sg71
g259
sg64
(lp371
g57
(g78
g59
NtRp372
(dp373
g62
(dp374
g82
g83
ssg71
g368
sg64
(lp375
S'path'
p376
asbag57
(g78
g59
NtRp377
(dp378
g62
(dp379
g89
g90
ssg71
g368
sg64
(lp380
S':'
asbag57
(g78
g59
NtRp381
(dp382
g62
(dp383
sg71
g368
sg64
(lp384
g57
(g58
g59
NtRp385
(dp386
g62
(dp387
g70
I3
ssg71
g381
sg64
(lp388
S''
asbasbasbag57
(g73
g59
NtRp389
(dp390
g62
(dp391
sg71
g259
sg64
(lp392
g57
(g78
g59
NtRp393
(dp394
g62
(dp395
g82
g83
ssg71
g389
sg64
(lp396
S'secure'
p397
asbag57
(g78
g59
NtRp398
(dp399
g62
(dp400
g89
g90
ssg71
g389
sg64
(lp401
S':'
asbag57
(g78
g59
NtRp402
(dp403
g62
(dp404
sg71
g389
sg64
(lp405
g57
(g58
g59
NtRp406
(dp407
g62
(dp408
g70
I3
ssg71
g402
sg64
(lp409
S''
asbasbasbag57
(g73
g59
NtRp410
(dp411
g62
(dp412
sg71
g259
sg64
(lp413
g57
(g78
g59
NtRp414
(dp415
g62
(dp416
g82
g83
ssg71
g410
sg64
(lp417
S'version'
p418
asbag57
(g78
g59
NtRp419
(dp420
g62
(dp421
g89
g90
ssg71
g410
sg64
(lp422
S':'
asbag57
(g78
g59
NtRp423
(dp424
g62
(dp425
sg71
g410
sg64
(lp426
g57
(g58
g59
NtRp427
(dp428
g62
(dp429
g70
I3
ssg71
g423
sg64
(lp430
S''
asbasbasbasbasbasbasbag57
(g73
g59
NtRp431
(dp432
g62
(dp433
sg71
g234
sg64
(lp434
g57
(g78
g59
NtRp435
(dp436
g62
(dp437
g82
g83
ssg71
g431
sg64
(lp438
S'session_id_iiitcourier'
p439
asbag57
(g78
g59
NtRp440
(dp441
g62
(dp442
g89
g90
ssg71
g431
sg64
(lp443
S':'
asbag57
(g78
g59
NtRp444
(dp445
g62
(dp446
sg71
g431
sg64
(lp447
g57
(g58
g59
NtRp448
(dp449
g62
(dp450
g70
I4
ssg71
g444
sg64
(lp451
g57
(g66
g59
NtRp452
(dp453
g62
(dp454
g70
I3
ssg71
Nsg64
(lp455
g57
(g73
g59
NtRp456
(dp457
g62
(dp458
sg71
g452
sg64
(lp459
g57
(g78
g59
NtRp460
(dp461
g62
(dp462
g82
g83
ssg71
g456
sg64
(lp463
g271
asbag57
(g78
g59
NtRp464
(dp465
g62
(dp466
g89
g90
ssg71
g456
sg64
(lp467
S':'
asbag57
(g78
g59
NtRp468
(dp469
g62
(dp470
sg71
g456
sg64
(lp471
g57
(g58
g59
NtRp472
(dp473
g62
(dp474
g70
I3
ssg71
g468
sg64
(lp475
S''
asbasbasbag57
(g73
g59
NtRp476
(dp477
g62
(dp478
sg71
g452
sg64
(lp479
g57
(g78
g59
NtRp480
(dp481
g62
(dp482
g82
g83
ssg71
g476
sg64
(lp483
g292
asbag57
(g78
g59
NtRp484
(dp485
g62
(dp486
g89
g90
ssg71
g476
sg64
(lp487
S':'
asbag57
(g78
g59
NtRp488
(dp489
g62
(dp490
sg71
g476
sg64
(lp491
g57
(g58
g59
NtRp492
(dp493
g62
(dp494
g70
I3
ssg71
g488
sg64
(lp495
S''
asbasbasbag57
(g73
g59
NtRp496
(dp497
g62
(dp498
sg71
g452
sg64
(lp499
g57
(g78
g59
NtRp500
(dp501
g62
(dp502
g82
g83
ssg71
g496
sg64
(lp503
g313
asbag57
(g78
g59
NtRp504
(dp505
g62
(dp506
g89
g90
ssg71
g496
sg64
(lp507
S':'
asbag57
(g78
g59
NtRp508
(dp509
g62
(dp510
sg71
g496
sg64
(lp511
g57
(g58
g59
NtRp512
(dp513
g62
(dp514
g70
I3
ssg71
g508
sg64
(lp515
S''
asbasbasbag57
(g73
g59
NtRp516
(dp517
g62
(dp518
sg71
g452
sg64
(lp519
g57
(g78
g59
NtRp520
(dp521
g62
(dp522
g82
g83
ssg71
g516
sg64
(lp523
g334
asbag57
(g78
g59
NtRp524
(dp525
g62
(dp526
g89
g90
ssg71
g516
sg64
(lp527
S':'
asbag57
(g78
g59
NtRp528
(dp529
g62
(dp530
sg71
g516
sg64
(lp531
g57
(g58
g59
NtRp532
(dp533
g62
(dp534
g70
I3
ssg71
g528
sg64
(lp535
S''
asbasbasbag57
(g73
g59
NtRp536
(dp537
g62
(dp538
sg71
g452
sg64
(lp539
g57
(g78
g59
NtRp540
(dp541
g62
(dp542
g82
g83
ssg71
g536
sg64
(lp543
g355
asbag57
(g78
g59
NtRp544
(dp545
g62
(dp546
g89
g90
ssg71
g536
sg64
(lp547
S':'
asbag57
(g78
g59
NtRp548
(dp549
g62
(dp550
sg71
g536
sg64
(lp551
g57
(g58
g59
NtRp552
(dp553
g62
(dp554
g70
I3
ssg71
g548
sg64
(lp555
S''
asbasbasbag57
(g73
g59
NtRp556
(dp557
g62
(dp558
sg71
g452
sg64
(lp559
g57
(g78
g59
NtRp560
(dp561
g62
(dp562
g82
g83
ssg71
g556
sg64
(lp563
g376
asbag57
(g78
g59
NtRp564
(dp565
g62
(dp566
g89
g90
ssg71
g556
sg64
(lp567
S':'
asbag57
(g78
g59
NtRp568
(dp569
g62
(dp570
sg71
g556
sg64
(lp571
g57
(g58
g59
NtRp572
(dp573
g62
(dp574
g70
I3
ssg71
g568
sg64
(lp575
S''
asbasbasbag57
(g73
g59
NtRp576
(dp577
g62
(dp578
sg71
g452
sg64
(lp579
g57
(g78
g59
NtRp580
(dp581
g62
(dp582
g82
g83
ssg71
g576
sg64
(lp583
g397
asbag57
(g78
g59
NtRp584
(dp585
g62
(dp586
g89
g90
ssg71
g576
sg64
(lp587
S':'
asbag57
(g78
g59
NtRp588
(dp589
g62
(dp590
sg71
g576
sg64
(lp591
g57
(g58
g59
NtRp592
(dp593
g62
(dp594
g70
I3
ssg71
g588
sg64
(lp595
S''
asbasbasbag57
(g73
g59
NtRp596
(dp597
g62
(dp598
sg71
g452
sg64
(lp599
g57
(g78
g59
NtRp600
(dp601
g62
(dp602
g82
g83
ssg71
g596
sg64
(lp603
g418
asbag57
(g78
g59
NtRp604
(dp605
g62
(dp606
g89
g90
ssg71
g596
sg64
(lp607
S':'
asbag57
(g78
g59
NtRp608
(dp609
g62
(dp610
sg71
g596
sg64
(lp611
g57
(g58
g59
NtRp612
(dp613
g62
(dp614
g70
I3
ssg71
g608
sg64
(lp615
S''
asbasbasbasbasbasbasbag57
(g73
g59
NtRp616
(dp617
g62
(dp618
sg71
g234
sg64
(lp619
g57
(g78
g59
NtRp620
(dp621
g62
(dp622
g82
g83
ssg71
g616
sg64
(lp623
S'session_id_welcome'
p624
asbag57
(g78
g59
NtRp625
(dp626
g62
(dp627
g89
g90
ssg71
g616
sg64
(lp628
S':'
asbag57
(g78
g59
NtRp629
(dp630
g62
(dp631
sg71
g616
sg64
(lp632
g57
(g58
g59
NtRp633
(dp634
g62
(dp635
g70
I4
ssg71
g629
sg64
(lp636
g57
(g66
g59
NtRp637
(dp638
g62
(dp639
g70
I3
ssg71
Nsg64
(lp640
g57
(g73
g59
NtRp641
(dp642
g62
(dp643
sg71
g637
sg64
(lp644
g57
(g78
g59
NtRp645
(dp646
g62
(dp647
g82
g83
ssg71
g641
sg64
(lp648
g271
asbag57
(g78
g59
NtRp649
(dp650
g62
(dp651
g89
g90
ssg71
g641
sg64
(lp652
S':'
asbag57
(g78
g59
NtRp653
(dp654
g62
(dp655
sg71
g641
sg64
(lp656
g57
(g58
g59
NtRp657
(dp658
g62
(dp659
g70
I3
ssg71
g653
sg64
(lp660
S''
asbasbasbag57
(g73
g59
NtRp661
(dp662
g62
(dp663
sg71
g637
sg64
(lp664
g57
(g78
g59
NtRp665
(dp666
g62
(dp667
g82
g83
ssg71
g661
sg64
(lp668
g292
asbag57
(g78
g59
NtRp669
(dp670
g62
(dp671
g89
g90
ssg71
g661
sg64
(lp672
S':'
asbag57
(g78
g59
NtRp673
(dp674
g62
(dp675
sg71
g661
sg64
(lp676
g57
(g58
g59
NtRp677
(dp678
g62
(dp679
g70
I3
ssg71
g673
sg64
(lp680
S''
asbasbasbag57
(g73
g59
NtRp681
(dp682
g62
(dp683
sg71
g637
sg64
(lp684
g57
(g78
g59
NtRp685
(dp686
g62
(dp687
g82
g83
ssg71
g681
sg64
(lp688
g313
asbag57
(g78
g59
NtRp689
(dp690
g62
(dp691
g89
g90
ssg71
g681
sg64
(lp692
S':'
asbag57
(g78
g59
NtRp693
(dp694
g62
(dp695
sg71
g681
sg64
(lp696
g57
(g58
g59
NtRp697
(dp698
g62
(dp699
g70
I3
ssg71
g693
sg64
(lp700
S''
asbasbasbag57
(g73
g59
NtRp701
(dp702
g62
(dp703
sg71
g637
sg64
(lp704
g57
(g78
g59
NtRp705
(dp706
g62
(dp707
g82
g83
ssg71
g701
sg64
(lp708
g334
asbag57
(g78
g59
NtRp709
(dp710
g62
(dp711
g89
g90
ssg71
g701
sg64
(lp712
S':'
asbag57
(g78
g59
NtRp713
(dp714
g62
(dp715
sg71
g701
sg64
(lp716
g57
(g58
g59
NtRp717
(dp718
g62
(dp719
g70
I3
ssg71
g713
sg64
(lp720
S''
asbasbasbag57
(g73
g59
NtRp721
(dp722
g62
(dp723
sg71
g637
sg64
(lp724
g57
(g78
g59
NtRp725
(dp726
g62
(dp727
g82
g83
ssg71
g721
sg64
(lp728
g355
asbag57
(g78
g59
NtRp729
(dp730
g62
(dp731
g89
g90
ssg71
g721
sg64
(lp732
S':'
asbag57
(g78
g59
NtRp733
(dp734
g62
(dp735
sg71
g721
sg64
(lp736
g57
(g58
g59
NtRp737
(dp738
g62
(dp739
g70
I3
ssg71
g733
sg64
(lp740
S''
asbasbasbag57
(g73
g59
NtRp741
(dp742
g62
(dp743
sg71
g637
sg64
(lp744
g57
(g78
g59
NtRp745
(dp746
g62
(dp747
g82
g83
ssg71
g741
sg64
(lp748
g376
asbag57
(g78
g59
NtRp749
(dp750
g62
(dp751
g89
g90
ssg71
g741
sg64
(lp752
S':'
asbag57
(g78
g59
NtRp753
(dp754
g62
(dp755
sg71
g741
sg64
(lp756
g57
(g58
g59
NtRp757
(dp758
g62
(dp759
g70
I3
ssg71
g753
sg64
(lp760
S''
asbasbasbag57
(g73
g59
NtRp761
(dp762
g62
(dp763
sg71
g637
sg64
(lp764
g57
(g78
g59
NtRp765
(dp766
g62
(dp767
g82
g83
ssg71
g761
sg64
(lp768
g397
asbag57
(g78
g59
NtRp769
(dp770
g62
(dp771
g89
g90
ssg71
g761
sg64
(lp772
S':'
asbag57
(g78
g59
NtRp773
(dp774
g62
(dp775
sg71
g761
sg64
(lp776
g57
(g58
g59
NtRp777
(dp778
g62
(dp779
g70
I3
ssg71
g773
sg64
(lp780
S''
asbasbasbag57
(g73
g59
NtRp781
(dp782
g62
(dp783
sg71
g637
sg64
(lp784
g57
(g78
g59
NtRp785
(dp786
g62
(dp787
g82
g83
ssg71
g781
sg64
(lp788
g418
asbag57
(g78
g59
NtRp789
(dp790
g62
(dp791
g89
g90
ssg71
g781
sg64
(lp792
S':'
asbag57
(g78
g59
NtRp793
(dp794
g62
(dp795
sg71
g781
sg64
(lp796
g57
(g58
g59
NtRp797
(dp798
g62
(dp799
g70
I3
ssg71
g793
sg64
(lp800
S''
asbasbasbasbasbasbasbasbasbasbasbag57
(g73
g59
NtRp801
(dp802
g62
(dp803
sg71
g67
sg64
(lp804
g57
(g78
g59
NtRp805
(dp806
g62
(dp807
g82
g83
ssg71
g801
sg64
(lp808
S'env'
p809
asbag57
(g78
g59
NtRp810
(dp811
g62
(dp812
g89
g90
ssg71
g801
sg64
(lp813
S':'
asbag57
(g78
g59
NtRp814
(dp815
g62
(dp816
sg71
g801
sg64
(lp817
g57
(g58
g59
NtRp818
(dp819
g62
(dp820
g70
I5
ssg71
g814
sg64
(lp821
g57
(g66
g59
NtRp822
(dp823
g62
(dp824
g70
I4
ssg71
Nsg64
(lp825
g57
(g73
g59
NtRp826
(dp827
g62
(dp828
sg71
g822
sg64
(lp829
g57
(g78
g59
NtRp830
(dp831
g62
(dp832
g82
g83
ssg71
g826
sg64
(lp833
S'app_folders'
p834
asbag57
(g78
g59
NtRp835
(dp836
g62
(dp837
g89
g90
ssg71
g826
sg64
(lp838
S':'
asbag57
(g78
g59
NtRp839
(dp840
g62
(dp841
sg71
g826
sg64
(lp842
g57
(g58
g59
NtRp843
(dp844
g62
(dp845
g70
I4
ssg71
g839
sg64
(lp846
S"set(['/home/game_boy/web2py/applications/examples/', '/home/game_boy/web2py/applications/welcome/', '/home/game_boy/web2py/applications/IIITCourier/', '/home/game_boy/web2py/applications/admin/'])"
p847
asbasbasbag57
(g73
g59
NtRp848
(dp849
g62
(dp850
sg71
g822
sg64
(lp851
g57
(g78
g59
NtRp852
(dp853
g62
(dp854
g82
g83
ssg71
g848
sg64
(lp855
S'applications_parent'
p856
asbag57
(g78
g59
NtRp857
(dp858
g62
(dp859
g89
g90
ssg71
g848
sg64
(lp860
S':'
asbag57
(g78
g59
NtRp861
(dp862
g62
(dp863
sg71
g848
sg64
(lp864
g57
(g58
g59
NtRp865
(dp866
g62
(dp867
g70
I4
ssg71
g861
sg64
(lp868
S'/home/game_boy/web2py'
p869
asbasbasbag57
(g73
g59
NtRp870
(dp871
g62
(dp872
sg71
g822
sg64
(lp873
g57
(g78
g59
NtRp874
(dp875
g62
(dp876
g82
g83
ssg71
g870
sg64
(lp877
S'cmd_args'
p878
asbag57
(g78
g59
NtRp879
(dp880
g62
(dp881
g89
g90
ssg71
g870
sg64
(lp882
S':'
asbag57
(g78
g59
NtRp883
(dp884
g62
(dp885
sg71
g870
sg64
(lp886
g57
(g58
g59
NtRp887
(dp888
g62
(dp889
g70
I4
ssg71
g883
sg64
(lp890
g57
(g66
g59
NtRp891
(dp892
g62
(dp893
g70
I3
ssg71
Nsg64
(lp894
sbasbasbasbag57
(g73
g59
NtRp895
(dp896
g62
(dp897
sg71
g822
sg64
(lp898
g57
(g78
g59
NtRp899
(dp900
g62
(dp901
g82
g83
ssg71
g895
sg64
(lp902
S'cmd_options'
p903
asbag57
(g78
g59
NtRp904
(dp905
g62
(dp906
g89
g90
ssg71
g895
sg64
(lp907
S':'
asbag57
(g78
g59
NtRp908
(dp909
g62
(dp910
sg71
g895
sg64
(lp911
g57
(g58
g59
NtRp912
(dp913
g62
(dp914
g70
I4
ssg71
g908
sg64
(lp915
S"<Values at 0x7fa715cc8758: {'verbose': False, 'ip': '127.0.0.1', 'shutdown_timeout': 5, 'taskbar': False, 'nocron': False, 'pid_filename': 'httpserver.pid', 'maxthreads': None, 'softcron': False, 'server_name': 'gameBoy-VGN-SR53GF-B', 'bpython': False, 'nogui': False, 'port': 8000, 'extcron': False, 'debuglevel': 30, 'test': None, 'folder': '/home/game_boy/web2py', 'config': '', 'import_models': False, 'winservice': '', 'shell': None, 'run': '', 'log_filename': 'httpserver.log', 'args': [''], 'socket_timeout': 5, 'ssl_ca_certificate': None, 'scheduler': None, 'profiler_filename': None, 'ssl_private_key': '', 'password': '<ask>', 'request_queue_size': 5, 'ssl_certificate': '', 'cronjob': False, 'numthreads': None, 'quiet': False, 'interfaces': None, 'minthreads': None, 'timeout': 10, 'plain': False, 'nobanner': False}>"
p916
asbasbasbag57
(g73
g59
NtRp917
(dp918
g62
(dp919
sg71
g822
sg64
(lp920
g57
(g78
g59
NtRp921
(dp922
g62
(dp923
g82
g83
ssg71
g917
sg64
(lp924
S'db_sessions'
p925
asbag57
(g78
g59
NtRp926
(dp927
g62
(dp928
g89
g90
ssg71
g917
sg64
(lp929
S':'
asbag57
(g78
g59
NtRp930
(dp931
g62
(dp932
sg71
g917
sg64
(lp933
g57
(g58
g59
NtRp934
(dp935
g62
(dp936
g70
I4
ssg71
g930
sg64
(lp937
S'set([])'
p938
asbasbasbag57
(g73
g59
NtRp939
(dp940
g62
(dp941
sg71
g822
sg64
(lp942
g57
(g78
g59
NtRp943
(dp944
g62
(dp945
g82
g83
ssg71
g939
sg64
(lp946
S'debugging'
p947
asbag57
(g78
g59
NtRp948
(dp949
g62
(dp950
g89
g90
ssg71
g939
sg64
(lp951
S':'
asbag57
(g78
g59
NtRp952
(dp953
g62
(dp954
sg71
g939
sg64
(lp955
g57
(g58
g59
NtRp956
(dp957
g62
(dp958
g70
I4
ssg71
g952
sg64
(lp959
g100
asbasbasbag57
(g73
g59
NtRp960
(dp961
g62
(dp962
sg71
g822
sg64
(lp963
g57
(g78
g59
NtRp964
(dp965
g62
(dp966
g82
g83
ssg71
g960
sg64
(lp967
S'gluon_parent'
p968
asbag57
(g78
g59
NtRp969
(dp970
g62
(dp971
g89
g90
ssg71
g960
sg64
(lp972
S':'
asbag57
(g78
g59
NtRp973
(dp974
g62
(dp975
sg71
g960
sg64
(lp976
g57
(g58
g59
NtRp977
(dp978
g62
(dp979
g70
I4
ssg71
g973
sg64
(lp980
S'/usr/share/web2py'
p981
asbasbasbag57
(g73
g59
NtRp982
(dp983
g62
(dp984
sg71
g822
sg64
(lp985
g57
(g78
g59
NtRp986
(dp987
g62
(dp988
g82
g83
ssg71
g982
sg64
(lp989
S'http_accept'
p990
asbag57
(g78
g59
NtRp991
(dp992
g62
(dp993
g89
g90
ssg71
g982
sg64
(lp994
S':'
asbag57
(g78
g59
NtRp995
(dp996
g62
(dp997
sg71
g982
sg64
(lp998
g57
(g58
g59
NtRp999
(dp1000
g62
(dp1001
g70
I4
ssg71
g995
sg64
(lp1002
S'text/html,application/xhtml+xml,application/xml;q=0.9,*/*;q=0.8'
p1003
asbasbasbag57
(g73
g59
NtRp1004
(dp1005
g62
(dp1006
sg71
g822
sg64
(lp1007
g57
(g78
g59
NtRp1008
(dp1009
g62
(dp1010
g82
g83
ssg71
g1004
sg64
(lp1011
S'http_accept_encoding'
p1012
asbag57
(g78
g59
NtRp1013
(dp1014
g62
(dp1015
g89
g90
ssg71
g1004
sg64
(lp1016
S':'
asbag57
(g78
g59
NtRp1017
(dp1018
g62
(dp1019
sg71
g1004
sg64
(lp1020
g57
(g58
g59
NtRp1021
(dp1022
g62
(dp1023
g70
I4
ssg71
g1017
sg64
(lp1024
S'gzip, deflate'
p1025
asbasbasbag57
(g73
g59
NtRp1026
(dp1027
g62
(dp1028
sg71
g822
sg64
(lp1029
g57
(g78
g59
NtRp1030
(dp1031
g62
(dp1032
g82
g83
ssg71
g1026
sg64
(lp1033
S'http_accept_language'
p1034
asbag57
(g78
g59
NtRp1035
(dp1036
g62
(dp1037
g89
g90
ssg71
g1026
sg64
(lp1038
S':'
asbag57
(g78
g59
NtRp1039
(dp1040
g62
(dp1041
sg71
g1026
sg64
(lp1042
g57
(g58
g59
NtRp1043
(dp1044
g62
(dp1045
g70
I4
ssg71
g1039
sg64
(lp1046
S'en-US,en;q=0.5'
p1047
asbasbasbag57
(g73
g59
NtRp1048
(dp1049
g62
(dp1050
sg71
g822
sg64
(lp1051
g57
(g78
g59
NtRp1052
(dp1053
g62
(dp1054
g82
g83
ssg71
g1048
sg64
(lp1055
S'http_connection'
p1056
asbag57
(g78
g59
NtRp1057
(dp1058
g62
(dp1059
g89
g90
ssg71
g1048
sg64
(lp1060
S':'
asbag57
(g78
g59
NtRp1061
(dp1062
g62
(dp1063
sg71
g1048
sg64
(lp1064
g57
(g58
g59
NtRp1065
(dp1066
g62
(dp1067
g70
I4
ssg71
g1061
sg64
(lp1068
S'keep-alive'
p1069
asbasbasbag57
(g73
g59
NtRp1070
(dp1071
g62
(dp1072
sg71
g822
sg64
(lp1073
g57
(g78
g59
NtRp1074
(dp1075
g62
(dp1076
g82
g83
ssg71
g1070
sg64
(lp1077
S'http_cookie'
p1078
asbag57
(g78
g59
NtRp1079
(dp1080
g62
(dp1081
g89
g90
ssg71
g1070
sg64
(lp1082
S':'
asbag57
(g78
g59
NtRp1083
(dp1084
g62
(dp1085
sg71
g1070
sg64
(lp1086
g57
(g58
g59
NtRp1087
(dp1088
g62
(dp1089
g70
I4
ssg71
g1083
sg64
(lp1090
S'session_id_welcome=127.0.0.1-24a75461-14f1-4d3a-9fa8-78b9b48c05ba; session_id_admin=127.0.0.1-1fa45aea-be5e-40d9-a0ee-c4308d2071b8; session_id_iiitcourier=127.0.0.1-d80de6ec-cf5d-4cf3-8d7c-fad6af1bba5b'
p1091
asbasbasbag57
(g73
g59
NtRp1092
(dp1093
g62
(dp1094
sg71
g822
sg64
(lp1095
g57
(g78
g59
NtRp1096
(dp1097
g62
(dp1098
g82
g83
ssg71
g1092
sg64
(lp1099
S'http_host'
p1100
asbag57
(g78
g59
NtRp1101
(dp1102
g62
(dp1103
g89
g90
ssg71
g1092
sg64
(lp1104
S':'
asbag57
(g78
g59
NtRp1105
(dp1106
g62
(dp1107
sg71
g1092
sg64
(lp1108
g57
(g58
g59
NtRp1109
(dp1110
g62
(dp1111
g70
I4
ssg71
g1105
sg64
(lp1112
S'127.0.0.1:8000'
p1113
asbasbasbag57
(g73
g59
NtRp1114
(dp1115
g62
(dp1116
sg71
g822
sg64
(lp1117
g57
(g78
g59
NtRp1118
(dp1119
g62
(dp1120
g82
g83
ssg71
g1114
sg64
(lp1121
S'http_referer'
p1122
asbag57
(g78
g59
NtRp1123
(dp1124
g62
(dp1125
g89
g90
ssg71
g1114
sg64
(lp1126
S':'
asbag57
(g78
g59
NtRp1127
(dp1128
g62
(dp1129
sg71
g1114
sg64
(lp1130
g57
(g58
g59
NtRp1131
(dp1132
g62
(dp1133
g70
I4
ssg71
g1127
sg64
(lp1134
S'http://127.0.0.1:8000/admin/default/edit/IIITCourier/controllers/default.py'
p1135
asbasbasbag57
(g73
g59
NtRp1136
(dp1137
g62
(dp1138
sg71
g822
sg64
(lp1139
g57
(g78
g59
NtRp1140
(dp1141
g62
(dp1142
g82
g83
ssg71
g1136
sg64
(lp1143
S'http_user_agent'
p1144
asbag57
(g78
g59
NtRp1145
(dp1146
g62
(dp1147
g89
g90
ssg71
g1136
sg64
(lp1148
S':'
asbag57
(g78
g59
NtRp1149
(dp1150
g62
(dp1151
sg71
g1136
sg64
(lp1152
g57
(g58
g59
NtRp1153
(dp1154
g62
(dp1155
g70
I4
ssg71
g1149
sg64
(lp1156
S'Mozilla/5.0 (X11; Ubuntu; Linux x86_64; rv:42.0) Gecko/20100101 Firefox/42.0'
p1157
asbasbasbag57
(g73
g59
NtRp1158
(dp1159
g62
(dp1160
sg71
g822
sg64
(lp1161
g57
(g78
g59
NtRp1162
(dp1163
g62
(dp1164
g82
g83
ssg71
g1158
sg64
(lp1165
S'is_jython'
p1166
asbag57
(g78
g59
NtRp1167
(dp1168
g62
(dp1169
g89
g90
ssg71
g1158
sg64
(lp1170
S':'
asbag57
(g78
g59
NtRp1171
(dp1172
g62
(dp1173
sg71
g1158
sg64
(lp1174
g57
(g58
g59
NtRp1175
(dp1176
g62
(dp1177
g70
I4
ssg71
g1171
sg64
(lp1178
g100
asbasbasbag57
(g73
g59
NtRp1179
(dp1180
g62
(dp1181
sg71
g822
sg64
(lp1182
g57
(g78
g59
NtRp1183
(dp1184
g62
(dp1185
g82
g83
ssg71
g1179
sg64
(lp1186
S'is_pypy'
p1187
asbag57
(g78
g59
NtRp1188
(dp1189
g62
(dp1190
g89
g90
ssg71
g1179
sg64
(lp1191
S':'
asbag57
(g78
g59
NtRp1192
(dp1193
g62
(dp1194
sg71
g1179
sg64
(lp1195
g57
(g58
g59
NtRp1196
(dp1197
g62
(dp1198
g70
I4
ssg71
g1192
sg64
(lp1199
g100
asbasbasbag57
(g73
g59
NtRp1200
(dp1201
g62
(dp1202
sg71
g822
sg64
(lp1203
g57
(g78
g59
NtRp1204
(dp1205
g62
(dp1206
g82
g83
ssg71
g1200
sg64
(lp1207
S'path_info'
p1208
asbag57
(g78
g59
NtRp1209
(dp1210
g62
(dp1211
g89
g90
ssg71
g1200
sg64
(lp1212
S':'
asbag57
(g78
g59
NtRp1213
(dp1214
g62
(dp1215
sg71
g1200
sg64
(lp1216
g57
(g58
g59
NtRp1217
(dp1218
g62
(dp1219
g70
I4
ssg71
g1213
sg64
(lp1220
S'/IIITCourier/default/searchPage'
p1221
asbasbasbag57
(g73
g59
NtRp1222
(dp1223
g62
(dp1224
sg71
g822
sg64
(lp1225
g57
(g78
g59
NtRp1226
(dp1227
g62
(dp1228
g82
g83
ssg71
g1222
sg64
(lp1229
S'query_string'
p1230
asbag57
(g78
g59
NtRp1231
(dp1232
g62
(dp1233
g89
g90
ssg71
g1222
sg64
(lp1234
S':'
asbag57
(g78
g59
NtRp1235
(dp1236
g62
(dp1237
sg71
g1222
sg64
(lp1238
g57
(g58
g59
NtRp1239
(dp1240
g62
(dp1241
g70
I4
ssg71
g1235
sg64
(lp1242
S''
asbasbasbag57
(g73
g59
NtRp1243
(dp1244
g62
(dp1245
sg71
g822
sg64
(lp1246
g57
(g78
g59
NtRp1247
(dp1248
g62
(dp1249
g82
g83
ssg71
g1243
sg64
(lp1250
S'remote_addr'
p1251
asbag57
(g78
g59
NtRp1252
(dp1253
g62
(dp1254
g89
g90
ssg71
g1243
sg64
(lp1255
S':'
asbag57
(g78
g59
NtRp1256
(dp1257
g62
(dp1258
sg71
g1243
sg64
(lp1259
g57
(g58
g59
NtRp1260
(dp1261
g62
(dp1262
g70
I4
ssg71
g1256
sg64
(lp1263
g190
asbasbasbag57
(g73
g59
NtRp1264
(dp1265
g62
(dp1266
sg71
g822
sg64
(lp1267
g57
(g78
g59
NtRp1268
(dp1269
g62
(dp1270
g82
g83
ssg71
g1264
sg64
(lp1271
S'remote_port'
p1272
asbag57
(g78
g59
NtRp1273
(dp1274
g62
(dp1275
g89
g90
ssg71
g1264
sg64
(lp1276
S':'
asbag57
(g78
g59
NtRp1277
(dp1278
g62
(dp1279
sg71
g1264
sg64
(lp1280
g57
(g58
g59
NtRp1281
(dp1282
g62
(dp1283
g70
I4
ssg71
g1277
sg64
(lp1284
S'57144'
p1285
asbasbasbag57
(g73
g59
NtRp1286
(dp1287
g62
(dp1288
sg71
g822
sg64
(lp1289
g57
(g78
g59
NtRp1290
(dp1291
g62
(dp1292
g82
g83
ssg71
g1286
sg64
(lp1293
S'request_method'
p1294
asbag57
(g78
g59
NtRp1295
(dp1296
g62
(dp1297
g89
g90
ssg71
g1286
sg64
(lp1298
S':'
asbag57
(g78
g59
NtRp1299
(dp1300
g62
(dp1301
sg71
g1286
sg64
(lp1302
g57
(g58
g59
NtRp1303
(dp1304
g62
(dp1305
g70
I4
ssg71
g1299
sg64
(lp1306
S'GET'
p1307
asbasbasbag57
(g73
g59
NtRp1308
(dp1309
g62
(dp1310
sg71
g822
sg64
(lp1311
g57
(g78
g59
NtRp1312
(dp1313
g62
(dp1314
g82
g83
ssg71
g1308
sg64
(lp1315
S'script_name'
p1316
asbag57
(g78
g59
NtRp1317
(dp1318
g62
(dp1319
g89
g90
ssg71
g1308
sg64
(lp1320
S':'
asbag57
(g78
g59
NtRp1321
(dp1322
g62
(dp1323
sg71
g1308
sg64
(lp1324
g57
(g58
g59
NtRp1325
(dp1326
g62
(dp1327
g70
I4
ssg71
g1321
sg64
(lp1328
S''
asbasbasbag57
(g73
g59
NtRp1329
(dp1330
g62
(dp1331
sg71
g822
sg64
(lp1332
g57
(g78
g59
NtRp1333
(dp1334
g62
(dp1335
g82
g83
ssg71
g1329
sg64
(lp1336
S'server_name'
p1337
asbag57
(g78
g59
NtRp1338
(dp1339
g62
(dp1340
g89
g90
ssg71
g1329
sg64
(lp1341
S':'
asbag57
(g78
g59
NtRp1342
(dp1343
g62
(dp1344
sg71
g1329
sg64
(lp1345
g57
(g58
g59
NtRp1346
(dp1347
g62
(dp1348
g70
I4
ssg71
g1342
sg64
(lp1349
S'gameBoy-VGN-SR53GF-B'
p1350
asbasbasbag57
(g73
g59
NtRp1351
(dp1352
g62
(dp1353
sg71
g822
sg64
(lp1354
g57
(g78
g59
NtRp1355
(dp1356
g62
(dp1357
g82
g83
ssg71
g1351
sg64
(lp1358
S'server_port'
p1359
asbag57
(g78
g59
NtRp1360
(dp1361
g62
(dp1362
g89
g90
ssg71
g1351
sg64
(lp1363
S':'
asbag57
(g78
g59
NtRp1364
(dp1365
g62
(dp1366
sg71
g1351
sg64
(lp1367
g57
(g58
g59
NtRp1368
(dp1369
g62
(dp1370
g70
I4
ssg71
g1364
sg64
(lp1371
S'8000'
p1372
asbasbasbag57
(g73
g59
NtRp1373
(dp1374
g62
(dp1375
sg71
g822
sg64
(lp1376
g57
(g78
g59
NtRp1377
(dp1378
g62
(dp1379
g82
g83
ssg71
g1373
sg64
(lp1380
S'server_protocol'
p1381
asbag57
(g78
g59
NtRp1382
(dp1383
g62
(dp1384
g89
g90
ssg71
g1373
sg64
(lp1385
S':'
asbag57
(g78
g59
NtRp1386
(dp1387
g62
(dp1388
sg71
g1373
sg64
(lp1389
g57
(g58
g59
NtRp1390
(dp1391
g62
(dp1392
g70
I4
ssg71
g1386
sg64
(lp1393
S'HTTP/1.1'
p1394
asbasbasbag57
(g73
g59
NtRp1395
(dp1396
g62
(dp1397
sg71
g822
sg64
(lp1398
g57
(g78
g59
NtRp1399
(dp1400
g62
(dp1401
g82
g83
ssg71
g1395
sg64
(lp1402
S'server_software'
p1403
asbag57
(g78
g59
NtRp1404
(dp1405
g62
(dp1406
g89
g90
ssg71
g1395
sg64
(lp1407
S':'
asbag57
(g78
g59
NtRp1408
(dp1409
g62
(dp1410
sg71
g1395
sg64
(lp1411
g57
(g58
g59
NtRp1412
(dp1413
g62
(dp1414
g70
I4
ssg71
g1408
sg64
(lp1415
S'Rocket 1.2.4'
p1416
asbasbasbag57
(g73
g59
NtRp1417
(dp1418
g62
(dp1419
sg71
g822
sg64
(lp1420
g57
(g78
g59
NtRp1421
(dp1422
g62
(dp1423
g82
g83
ssg71
g1417
sg64
(lp1424
S'web2py_crontype'
p1425
asbag57
(g78
g59
NtRp1426
(dp1427
g62
(dp1428
g89
g90
ssg71
g1417
sg64
(lp1429
S':'
asbag57
(g78
g59
NtRp1430
(dp1431
g62
(dp1432
sg71
g1417
sg64
(lp1433
g57
(g58
g59
NtRp1434
(dp1435
g62
(dp1436
g70
I4
ssg71
g1430
sg64
(lp1437
S'hard'
p1438
asbasbasbag57
(g73
g59
NtRp1439
(dp1440
g62
(dp1441
sg71
g822
sg64
(lp1442
g57
(g78
g59
NtRp1443
(dp1444
g62
(dp1445
g82
g83
ssg71
g1439
sg64
(lp1446
S'web2py_path'
p1447
asbag57
(g78
g59
NtRp1448
(dp1449
g62
(dp1450
g89
g90
ssg71
g1439
sg64
(lp1451
S':'
asbag57
(g78
g59
NtRp1452
(dp1453
g62
(dp1454
sg71
g1439
sg64
(lp1455
g57
(g58
g59
NtRp1456
(dp1457
g62
(dp1458
g70
I4
ssg71
g1452
sg64
(lp1459
g869
asbasbasbag57
(g73
g59
NtRp1460
(dp1461
g62
(dp1462
sg71
g822
sg64
(lp1463
g57
(g78
g59
NtRp1464
(dp1465
g62
(dp1466
g82
g83
ssg71
g1460
sg64
(lp1467
S'web2py_version'
p1468
asbag57
(g78
g59
NtRp1469
(dp1470
g62
(dp1471
g89
g90
ssg71
g1460
sg64
(lp1472
S':'
asbag57
(g78
g59
NtRp1473
(dp1474
g62
(dp1475
sg71
g1460
sg64
(lp1476
g57
(g58
g59
NtRp1477
(dp1478
g62
(dp1479
g70
I4
ssg71
g1473
sg64
(lp1480
g57
(g66
g59
NtRp1481
(dp1482
g62
(dp1483
g70
I3
ssg71
Nsg64
(lp1484
g57
(g73
g59
NtRp1485
(dp1486
g62
(dp1487
sg71
g1481
sg64
(lp1488
g57
(g78
g59
NtRp1489
(dp1490
g62
(dp1491
sg71
g1485
sg64
(lp1492
g57
(g58
g59
NtRp1493
(dp1494
g62
(dp1495
g70
I3
ssg71
g1489
sg64
(lp1496
S'1'
asbasbasbag57
(g73
g59
NtRp1497
(dp1498
g62
(dp1499
sg71
g1481
sg64
(lp1500
g57
(g78
g59
NtRp1501
(dp1502
g62
(dp1503
sg71
g1497
sg64
(lp1504
g57
(g58
g59
NtRp1505
(dp1506
g62
(dp1507
g70
I3
ssg71
g1501
sg64
(lp1508
S'99'
p1509
asbasbasbag57
(g73
g59
NtRp1510
(dp1511
g62
(dp1512
sg71
g1481
sg64
(lp1513
g57
(g78
g59
NtRp1514
(dp1515
g62
(dp1516
sg71
g1510
sg64
(lp1517
g57
(g58
g59
NtRp1518
(dp1519
g62
(dp1520
g70
I3
ssg71
g1514
sg64
(lp1521
S'7'
asbasbasbag57
(g73
g59
NtRp1522
(dp1523
g62
(dp1524
sg71
g1481
sg64
(lp1525
g57
(g78
g59
NtRp1526
(dp1527
g62
(dp1528
sg71
g1522
sg64
(lp1529
g57
(g58
g59
NtRp1530
(dp1531
g62
(dp1532
g70
I3
ssg71
g1526
sg64
(lp1533
S'datetime.datetime(2012, 3, 4, 22, 12, 8)'
p1534
asbasbasbag57
(g73
g59
NtRp1535
(dp1536
g62
(dp1537
sg71
g1481
sg64
(lp1538
g57
(g78
g59
NtRp1539
(dp1540
g62
(dp1541
sg71
g1535
sg64
(lp1542
g57
(g58
g59
NtRp1543
(dp1544
g62
(dp1545
g70
I3
ssg71
g1539
sg64
(lp1546
S'stable'
p1547
asbasbasbasbasbasbasbag57
(g73
g59
NtRp1548
(dp1549
g62
(dp1550
sg71
g822
sg64
(lp1551
g57
(g78
g59
NtRp1552
(dp1553
g62
(dp1554
g82
g83
ssg71
g1548
sg64
(lp1555
S'wsgi_errors'
p1556
asbag57
(g78
g59
NtRp1557
(dp1558
g62
(dp1559
g89
g90
ssg71
g1548
sg64
(lp1560
S':'
asbag57
(g78
g59
NtRp1561
(dp1562
g62
(dp1563
sg71
g1548
sg64
(lp1564
g57
(g58
g59
NtRp1565
(dp1566
g62
(dp1567
g70
I4
ssg71
g1561
sg64
(lp1568
S"<open file '<stderr>', mode 'w' at 0x7fa71a3bc1e0>"
p1569
asbasbasbag57
(g73
g59
NtRp1570
(dp1571
g62
(dp1572
sg71
g822
sg64
(lp1573
g57
(g78
g59
NtRp1574
(dp1575
g62
(dp1576
g82
g83
ssg71
g1570
sg64
(lp1577
S'wsgi_file_wrapper'
p1578
asbag57
(g78
g59
NtRp1579
(dp1580
g62
(dp1581
g89
g90
ssg71
g1570
sg64
(lp1582
S':'
asbag57
(g78
g59
NtRp1583
(dp1584
g62
(dp1585
sg71
g1570
sg64
(lp1586
g57
(g58
g59
NtRp1587
(dp1588
g62
(dp1589
g70
I4
ssg71
g1583
sg64
(lp1590
S'<class wsgiref.util.FileWrapper at 0x7fa715d59258>'
p1591
asbasbasbag57
(g73
g59
NtRp1592
(dp1593
g62
(dp1594
sg71
g822
sg64
(lp1595
g57
(g78
g59
NtRp1596
(dp1597
g62
(dp1598
g82
g83
ssg71
g1592
sg64
(lp1599
S'wsgi_input'
p1600
asbag57
(g78
g59
NtRp1601
(dp1602
g62
(dp1603
g89
g90
ssg71
g1592
sg64
(lp1604
S':'
asbag57
(g78
g59
NtRp1605
(dp1606
g62
(dp1607
sg71
g1592
sg64
(lp1608
g57
(g58
g59
NtRp1609
(dp1610
g62
(dp1611
g70
I4
ssg71
g1605
sg64
(lp1612
S'<socket._fileobject object at 0x7fa6c7aff250>'
p1613
asbasbasbag57
(g73
g59
NtRp1614
(dp1615
g62
(dp1616
sg71
g822
sg64
(lp1617
g57
(g78
g59
NtRp1618
(dp1619
g62
(dp1620
g82
g83
ssg71
g1614
sg64
(lp1621
S'wsgi_multiprocess'
p1622
asbag57
(g78
g59
NtRp1623
(dp1624
g62
(dp1625
g89
g90
ssg71
g1614
sg64
(lp1626
S':'
asbag57
(g78
g59
NtRp1627
(dp1628
g62
(dp1629
sg71
g1614
sg64
(lp1630
g57
(g58
g59
NtRp1631
(dp1632
g62
(dp1633
g70
I4
ssg71
g1627
sg64
(lp1634
g100
asbasbasbag57
(g73
g59
NtRp1635
(dp1636
g62
(dp1637
sg71
g822
sg64
(lp1638
g57
(g78
g59
NtRp1639
(dp1640
g62
(dp1641
g82
g83
ssg71
g1635
sg64
(lp1642
S'wsgi_multithread'
p1643
asbag57
(g78
g59
NtRp1644
(dp1645
g62
(dp1646
g89
g90
ssg71
g1635
sg64
(lp1647
S':'
asbag57
(g78
g59
NtRp1648
(dp1649
g62
(dp1650
sg71
g1635
sg64
(lp1651
g57
(g58
g59
NtRp1652
(dp1653
g62
(dp1654
g70
I4
ssg71
g1648
sg64
(lp1655
S'True'
p1656
asbasbasbag57
(g73
g59
NtRp1657
(dp1658
g62
(dp1659
sg71
g822
sg64
(lp1660
g57
(g78
g59
NtRp1661
(dp1662
g62
(dp1663
g82
g83
ssg71
g1657
sg64
(lp1664
S'wsgi_run_once'
p1665
asbag57
(g78
g59
NtRp1666
(dp1667
g62
(dp1668
g89
g90
ssg71
g1657
sg64
(lp1669
S':'
asbag57
(g78
g59
NtRp1670
(dp1671
g62
(dp1672
sg71
g1657
sg64
(lp1673
g57
(g58
g59
NtRp1674
(dp1675
g62
(dp1676
g70
I4
ssg71
g1670
sg64
(lp1677
g100
asbasbasbag57
(g73
g59
NtRp1678
(dp1679
g62
(dp1680
sg71
g822
sg64
(lp1681
g57
(g78
g59
NtRp1682
(dp1683
g62
(dp1684
g82
g83
ssg71
g1678
sg64
(lp1685
S'wsgi_url_scheme'
p1686
asbag57
(g78
g59
NtRp1687
(dp1688
g62
(dp1689
g89
g90
ssg71
g1678
sg64
(lp1690
S':'
asbag57
(g78
g59
NtRp1691
(dp1692
g62
(dp1693
sg71
g1678
sg64
(lp1694
g57
(g58
g59
NtRp1695
(dp1696
g62
(dp1697
g70
I4
ssg71
g1691
sg64
(lp1698
S'http'
p1699
asbasbasbag57
(g73
g59
NtRp1700
(dp1701
g62
(dp1702
sg71
g822
sg64
(lp1703
g57
(g78
g59
NtRp1704
(dp1705
g62
(dp1706
g82
g83
ssg71
g1700
sg64
(lp1707
S'wsgi_version'
p1708
asbag57
(g78
g59
NtRp1709
(dp1710
g62
(dp1711
g89
g90
ssg71
g1700
sg64
(lp1712
S':'
asbag57
(g78
g59
NtRp1713
(dp1714
g62
(dp1715
sg71
g1700
sg64
(lp1716
g57
(g58
g59
NtRp1717
(dp1718
g62
(dp1719
g70
I4
ssg71
g1713
sg64
(lp1720
g57
(g66
g59
NtRp1721
(dp1722
g62
(dp1723
g70
I3
ssg71
Nsg64
(lp1724
g57
(g73
g59
NtRp1725
(dp1726
g62
(dp1727
sg71
g1721
sg64
(lp1728
g57
(g78
g59
NtRp1729
(dp1730
g62
(dp1731
sg71
g1725
sg64
(lp1732
g57
(g58
g59
NtRp1733
(dp1734
g62
(dp1735
g70
I3
ssg71
g1729
sg64
(lp1736
S'1'
asbasbasbag57
(g73
g59
NtRp1737
(dp1738
g62
(dp1739
sg71
g1721
sg64
(lp1740
g57
(g78
g59
NtRp1741
(dp1742
g62
(dp1743
sg71
g1737
sg64
(lp1744
g57
(g58
g59
NtRp1745
(dp1746
g62
(dp1747
g70
I3
ssg71
g1741
sg64
(lp1748
S'0'
asbasbasbasbasbasbasbasbasbasbasbag57
(g73
g59
NtRp1749
(dp1750
g62
(dp1751
sg71
g67
sg64
(lp1752
g57
(g78
g59
NtRp1753
(dp1754
g62
(dp1755
g82
g83
ssg71
g1749
sg64
(lp1756
S'extension'
p1757
asbag57
(g78
g59
NtRp1758
(dp1759
g62
(dp1760
g89
g90
ssg71
g1749
sg64
(lp1761
S':'
asbag57
(g78
g59
NtRp1762
(dp1763
g62
(dp1764
sg71
g1749
sg64
(lp1765
g57
(g58
g59
NtRp1766
(dp1767
g62
(dp1768
g70
I5
ssg71
g1762
sg64
(lp1769
S'html'
p1770
asbasbasbag57
(g73
g59
NtRp1771
(dp1772
g62
(dp1773
sg71
g67
sg64
(lp1774
g57
(g78
g59
NtRp1775
(dp1776
g62
(dp1777
g82
g83
ssg71
g1771
sg64
(lp1778
S'folder'
p1779
asbag57
(g78
g59
NtRp1780
(dp1781
g62
(dp1782
g89
g90
ssg71
g1771
sg64
(lp1783
S':'
asbag57
(g78
g59
NtRp1784
(dp1785
g62
(dp1786
sg71
g1771
sg64
(lp1787
g57
(g58
g59
NtRp1788
(dp1789
g62
(dp1790
g70
I5
ssg71
g1784
sg64
(lp1791
S'/home/game_boy/web2py/applications/IIITCourier/'
p1792
asbasbasbag57
(g73
g59
NtRp1793
(dp1794
g62
(dp1795
sg71
g67
sg64
(lp1796
g57
(g78
g59
NtRp1797
(dp1798
g62
(dp1799
g82
g83
ssg71
g1793
sg64
(lp1800
S'function'
p1801
asbag57
(g78
g59
NtRp1802
(dp1803
g62
(dp1804
g89
g90
ssg71
g1793
sg64
(lp1805
S':'
asbag57
(g78
g59
NtRp1806
(dp1807
g62
(dp1808
sg71
g1793
sg64
(lp1809
g57
(g58
g59
NtRp1810
(dp1811
g62
(dp1812
g70
I5
ssg71
g1806
sg64
(lp1813
S'searchPage'
p1814
asbasbasbag57
(g73
g59
NtRp1815
(dp1816
g62
(dp1817
sg71
g67
sg64
(lp1818
g57
(g78
g59
NtRp1819
(dp1820
g62
(dp1821
g82
g83
ssg71
g1815
sg64
(lp1822
S'get_vars'
p1823
asbag57
(g78
g59
NtRp1824
(dp1825
g62
(dp1826
g89
g90
ssg71
g1815
sg64
(lp1827
S':'
asbag57
(g78
g59
NtRp1828
(dp1829
g62
(dp1830
sg71
g1815
sg64
(lp1831
g57
(g58
g59
NtRp1832
(dp1833
g62
(dp1834
g70
I5
ssg71
g1828
sg64
(lp1835
g57
(g66
g59
NtRp1836
(dp1837
g62
(dp1838
g70
I4
ssg71
Nsg64
(lp1839
sbasbasbasbag57
(g73
g59
NtRp1840
(dp1841
g62
(dp1842
sg71
g67
sg64
(lp1843
g57
(g78
g59
NtRp1844
(dp1845
g62
(dp1846
g82
g83
ssg71
g1840
sg64
(lp1847
S'global_settings'
p1848
asbag57
(g78
g59
NtRp1849
(dp1850
g62
(dp1851
g89
g90
ssg71
g1840
sg64
(lp1852
S':'
asbag57
(g78
g59
NtRp1853
(dp1854
g62
(dp1855
sg71
g1840
sg64
(lp1856
g57
(g58
g59
NtRp1857
(dp1858
g62
(dp1859
g70
I5
ssg71
g1853
sg64
(lp1860
g57
(g66
g59
NtRp1861
(dp1862
g62
(dp1863
g70
I4
ssg71
Nsg64
(lp1864
g57
(g73
g59
NtRp1865
(dp1866
g62
(dp1867
sg71
g1861
sg64
(lp1868
g57
(g78
g59
NtRp1869
(dp1870
g62
(dp1871
g82
g83
ssg71
g1865
sg64
(lp1872
g834
asbag57
(g78
g59
NtRp1873
(dp1874
g62
(dp1875
g89
g90
ssg71
g1865
sg64
(lp1876
S':'
asbag57
(g78
g59
NtRp1877
(dp1878
g62
(dp1879
sg71
g1865
sg64
(lp1880
g57
(g58
g59
NtRp1881
(dp1882
g62
(dp1883
g70
I4
ssg71
g1877
sg64
(lp1884
S"set(['/home/game_boy/web2py/applications/examples/', '/home/game_boy/web2py/applications/welcome/', '/home/game_boy/web2py/applications/IIITCourier/', '/home/game_boy/web2py/applications/admin/'])"
p1885
asbasbasbag57
(g73
g59
NtRp1886
(dp1887
g62
(dp1888
sg71
g1861
sg64
(lp1889
g57
(g78
g59
NtRp1890
(dp1891
g62
(dp1892
g82
g83
ssg71
g1886
sg64
(lp1893
g856
asbag57
(g78
g59
NtRp1894
(dp1895
g62
(dp1896
g89
g90
ssg71
g1886
sg64
(lp1897
S':'
asbag57
(g78
g59
NtRp1898
(dp1899
g62
(dp1900
sg71
g1886
sg64
(lp1901
g57
(g58
g59
NtRp1902
(dp1903
g62
(dp1904
g70
I4
ssg71
g1898
sg64
(lp1905
g869
asbasbasbag57
(g73
g59
NtRp1906
(dp1907
g62
(dp1908
sg71
g1861
sg64
(lp1909
g57
(g78
g59
NtRp1910
(dp1911
g62
(dp1912
g82
g83
ssg71
g1906
sg64
(lp1913
g878
asbag57
(g78
g59
NtRp1914
(dp1915
g62
(dp1916
g89
g90
ssg71
g1906
sg64
(lp1917
S':'
asbag57
(g78
g59
NtRp1918
(dp1919
g62
(dp1920
sg71
g1906
sg64
(lp1921
g57
(g58
g59
NtRp1922
(dp1923
g62
(dp1924
g70
I4
ssg71
g1918
sg64
(lp1925
g57
(g66
g59
NtRp1926
(dp1927
g62
(dp1928
g70
I3
ssg71
Nsg64
(lp1929
sbasbasbasbag57
(g73
g59
NtRp1930
(dp1931
g62
(dp1932
sg71
g1861
sg64
(lp1933
g57
(g78
g59
NtRp1934
(dp1935
g62
(dp1936
g82
g83
ssg71
g1930
sg64
(lp1937
g903
asbag57
(g78
g59
NtRp1938
(dp1939
g62
(dp1940
g89
g90
ssg71
g1930
sg64
(lp1941
S':'
asbag57
(g78
g59
NtRp1942
(dp1943
g62
(dp1944
sg71
g1930
sg64
(lp1945
g57
(g58
g59
NtRp1946
(dp1947
g62
(dp1948
g70
I4
ssg71
g1942
sg64
(lp1949
S"<Values at 0x7fa715cc8758: {'verbose': False, 'ip': '127.0.0.1', 'shutdown_timeout': 5, 'taskbar': False, 'nocron': False, 'pid_filename': 'httpserver.pid', 'maxthreads': None, 'softcron': False, 'server_name': 'gameBoy-VGN-SR53GF-B', 'bpython': False, 'nogui': False, 'port': 8000, 'extcron': False, 'debuglevel': 30, 'test': None, 'folder': '/home/game_boy/web2py', 'config': '', 'import_models': False, 'winservice': '', 'shell': None, 'run': '', 'log_filename': 'httpserver.log', 'args': [''], 'socket_timeout': 5, 'ssl_ca_certificate': None, 'scheduler': None, 'profiler_filename': None, 'ssl_private_key': '', 'password': '<ask>', 'request_queue_size': 5, 'ssl_certificate': '', 'cronjob': False, 'numthreads': None, 'quiet': False, 'interfaces': None, 'minthreads': None, 'timeout': 10, 'plain': False, 'nobanner': False}>"
p1950
asbasbasbag57
(g73
g59
NtRp1951
(dp1952
g62
(dp1953
sg71
g1861
sg64
(lp1954
g57
(g78
g59
NtRp1955
(dp1956
g62
(dp1957
g82
g83
ssg71
g1951
sg64
(lp1958
g925
asbag57
(g78
g59
NtRp1959
(dp1960
g62
(dp1961
g89
g90
ssg71
g1951
sg64
(lp1962
S':'
asbag57
(g78
g59
NtRp1963
(dp1964
g62
(dp1965
sg71
g1951
sg64
(lp1966
g57
(g58
g59
NtRp1967
(dp1968
g62
(dp1969
g70
I4
ssg71
g1963
sg64
(lp1970
S'set([])'
p1971
asbasbasbag57
(g73
g59
NtRp1972
(dp1973
g62
(dp1974
sg71
g1861
sg64
(lp1975
g57
(g78
g59
NtRp1976
(dp1977
g62
(dp1978
g82
g83
ssg71
g1972
sg64
(lp1979
g947
asbag57
(g78
g59
NtRp1980
(dp1981
g62
(dp1982
g89
g90
ssg71
g1972
sg64
(lp1983
S':'
asbag57
(g78
g59
NtRp1984
(dp1985
g62
(dp1986
sg71
g1972
sg64
(lp1987
g57
(g58
g59
NtRp1988
(dp1989
g62
(dp1990
g70
I4
ssg71
g1984
sg64
(lp1991
g100
asbasbasbag57
(g73
g59
NtRp1992
(dp1993
g62
(dp1994
sg71
g1861
sg64
(lp1995
g57
(g78
g59
NtRp1996
(dp1997
g62
(dp1998
g82
g83
ssg71
g1992
sg64
(lp1999
g968
asbag57
(g78
g59
NtRp2000
(dp2001
g62
(dp2002
g89
g90
ssg71
g1992
sg64
(lp2003
S':'
asbag57
(g78
g59
NtRp2004
(dp2005
g62
(dp2006
sg71
g1992
sg64
(lp2007
g57
(g58
g59
NtRp2008
(dp2009
g62
(dp2010
g70
I4
ssg71
g2004
sg64
(lp2011
g981
asbasbasbag57
(g73
g59
NtRp2012
(dp2013
g62
(dp2014
sg71
g1861
sg64
(lp2015
g57
(g78
g59
NtRp2016
(dp2017
g62
(dp2018
g82
g83
ssg71
g2012
sg64
(lp2019
g1166
asbag57
(g78
g59
NtRp2020
(dp2021
g62
(dp2022
g89
g90
ssg71
g2012
sg64
(lp2023
S':'
asbag57
(g78
g59
NtRp2024
(dp2025
g62
(dp2026
sg71
g2012
sg64
(lp2027
g57
(g58
g59
NtRp2028
(dp2029
g62
(dp2030
g70
I4
ssg71
g2024
sg64
(lp2031
g100
asbasbasbag57
(g73
g59
NtRp2032
(dp2033
g62
(dp2034
sg71
g1861
sg64
(lp2035
g57
(g78
g59
NtRp2036
(dp2037
g62
(dp2038
g82
g83
ssg71
g2032
sg64
(lp2039
g1187
asbag57
(g78
g59
NtRp2040
(dp2041
g62
(dp2042
g89
g90
ssg71
g2032
sg64
(lp2043
S':'
asbag57
(g78
g59
NtRp2044
(dp2045
g62
(dp2046
sg71
g2032
sg64
(lp2047
g57
(g58
g59
NtRp2048
(dp2049
g62
(dp2050
g70
I4
ssg71
g2044
sg64
(lp2051
g100
asbasbasbag57
(g73
g59
NtRp2052
(dp2053
g62
(dp2054
sg71
g1861
sg64
(lp2055
g57
(g78
g59
NtRp2056
(dp2057
g62
(dp2058
g82
g83
ssg71
g2052
sg64
(lp2059
g1425
asbag57
(g78
g59
NtRp2060
(dp2061
g62
(dp2062
g89
g90
ssg71
g2052
sg64
(lp2063
S':'
asbag57
(g78
g59
NtRp2064
(dp2065
g62
(dp2066
sg71
g2052
sg64
(lp2067
g57
(g58
g59
NtRp2068
(dp2069
g62
(dp2070
g70
I4
ssg71
g2064
sg64
(lp2071
g1438
asbasbasbag57
(g73
g59
NtRp2072
(dp2073
g62
(dp2074
sg71
g1861
sg64
(lp2075
g57
(g78
g59
NtRp2076
(dp2077
g62
(dp2078
g82
g83
ssg71
g2072
sg64
(lp2079
g1468
asbag57
(g78
g59
NtRp2080
(dp2081
g62
(dp2082
g89
g90
ssg71
g2072
sg64
(lp2083
S':'
asbag57
(g78
g59
NtRp2084
(dp2085
g62
(dp2086
sg71
g2072
sg64
(lp2087
g57
(g58
g59
NtRp2088
(dp2089
g62
(dp2090
g70
I4
ssg71
g2084
sg64
(lp2091
g57
(g66
g59
NtRp2092
(dp2093
g62
(dp2094
g70
I3
ssg71
Nsg64
(lp2095
g57
(g73
g59
NtRp2096
(dp2097
g62
(dp2098
sg71
g2092
sg64
(lp2099
g57
(g78
g59
NtRp2100
(dp2101
g62
(dp2102
sg71
g2096
sg64
(lp2103
g57
(g58
g59
NtRp2104
(dp2105
g62
(dp2106
g70
I3
ssg71
g2100
sg64
(lp2107
S'1'
asbasbasbag57
(g73
g59
NtRp2108
(dp2109
g62
(dp2110
sg71
g2092
sg64
(lp2111
g57
(g78
g59
NtRp2112
(dp2113
g62
(dp2114
sg71
g2108
sg64
(lp2115
g57
(g58
g59
NtRp2116
(dp2117
g62
(dp2118
g70
I3
ssg71
g2112
sg64
(lp2119
S'99'
p2120
asbasbasbag57
(g73
g59
NtRp2121
(dp2122
g62
(dp2123
sg71
g2092
sg64
(lp2124
g57
(g78
g59
NtRp2125
(dp2126
g62
(dp2127
sg71
g2121
sg64
(lp2128
g57
(g58
g59
NtRp2129
(dp2130
g62
(dp2131
g70
I3
ssg71
g2125
sg64
(lp2132
S'7'
asbasbasbag57
(g73
g59
NtRp2133
(dp2134
g62
(dp2135
sg71
g2092
sg64
(lp2136
g57
(g78
g59
NtRp2137
(dp2138
g62
(dp2139
sg71
g2133
sg64
(lp2140
g57
(g58
g59
NtRp2141
(dp2142
g62
(dp2143
g70
I3
ssg71
g2137
sg64
(lp2144
S'datetime.datetime(2012, 3, 4, 22, 12, 8)'
p2145
asbasbasbag57
(g73
g59
NtRp2146
(dp2147
g62
(dp2148
sg71
g2092
sg64
(lp2149
g57
(g78
g59
NtRp2150
(dp2151
g62
(dp2152
sg71
g2146
sg64
(lp2153
g57
(g58
g59
NtRp2154
(dp2155
g62
(dp2156
g70
I3
ssg71
g2150
sg64
(lp2157
g1547
asbasbasbasbasbasbasbasbasbasbasbag57
(g73
g59
NtRp2158
(dp2159
g62
(dp2160
sg71
g67
sg64
(lp2161
g57
(g78
g59
NtRp2162
(dp2163
g62
(dp2164
g82
g83
ssg71
g2158
sg64
(lp2165
S'is_https'
p2166
asbag57
(g78
g59
NtRp2167
(dp2168
g62
(dp2169
g89
g90
ssg71
g2158
sg64
(lp2170
S':'
asbag57
(g78
g59
NtRp2171
(dp2172
g62
(dp2173
sg71
g2158
sg64
(lp2174
g57
(g58
g59
NtRp2175
(dp2176
g62
(dp2177
g70
I5
ssg71
g2171
sg64
(lp2178
g100
asbasbasbag57
(g73
g59
NtRp2179
(dp2180
g62
(dp2181
sg71
g67
sg64
(lp2182
g57
(g78
g59
NtRp2183
(dp2184
g62
(dp2185
g82
g83
ssg71
g2179
sg64
(lp2186
S'is_local'
p2187
asbag57
(g78
g59
NtRp2188
(dp2189
g62
(dp2190
g89
g90
ssg71
g2179
sg64
(lp2191
S':'
asbag57
(g78
g59
NtRp2192
(dp2193
g62
(dp2194
sg71
g2179
sg64
(lp2195
g57
(g58
g59
NtRp2196
(dp2197
g62
(dp2198
g70
I5
ssg71
g2192
sg64
(lp2199
g1656
asbasbasbag57
(g73
g59
NtRp2200
(dp2201
g62
(dp2202
sg71
g67
sg64
(lp2203
g57
(g78
g59
NtRp2204
(dp2205
g62
(dp2206
g82
g83
ssg71
g2200
sg64
(lp2207
S'is_restful'
p2208
asbag57
(g78
g59
NtRp2209
(dp2210
g62
(dp2211
g89
g90
ssg71
g2200
sg64
(lp2212
S':'
asbag57
(g78
g59
NtRp2213
(dp2214
g62
(dp2215
sg71
g2200
sg64
(lp2216
g57
(g58
g59
NtRp2217
(dp2218
g62
(dp2219
g70
I5
ssg71
g2213
sg64
(lp2220
g100
asbasbasbag57
(g73
g59
NtRp2221
(dp2222
g62
(dp2223
sg71
g67
sg64
(lp2224
g57
(g78
g59
NtRp2225
(dp2226
g62
(dp2227
g82
g83
ssg71
g2221
sg64
(lp2228
S'now'
p2229
asbag57
(g78
g59
NtRp2230
(dp2231
g62
(dp2232
g89
g90
ssg71
g2221
sg64
(lp2233
S':'
asbag57
(g78
g59
NtRp2234
(dp2235
g62
(dp2236
sg71
g2221
sg64
(lp2237
g57
(g58
g59
NtRp2238
(dp2239
g62
(dp2240
g70
I5
ssg71
g2234
sg64
(lp2241
S'datetime.datetime(2015, 11, 16, 3, 2, 18, 744717)'
p2242
asbasbasbag57
(g73
g59
NtRp2243
(dp2244
g62
(dp2245
sg71
g67
sg64
(lp2246
g57
(g78
g59
NtRp2247
(dp2248
g62
(dp2249
g82
g83
ssg71
g2243
sg64
(lp2250
S'post_vars'
p2251
asbag57
(g78
g59
NtRp2252
(dp2253
g62
(dp2254
g89
g90
ssg71
g2243
sg64
(lp2255
S':'
asbag57
(g78
g59
NtRp2256
(dp2257
g62
(dp2258
sg71
g2243
sg64
(lp2259
g57
(g58
g59
NtRp2260
(dp2261
g62
(dp2262
g70
I5
ssg71
g2256
sg64
(lp2263
g57
(g66
g59
NtRp2264
(dp2265
g62
(dp2266
g70
I4
ssg71
Nsg64
(lp2267
sbasbasbasbag57
(g73
g59
NtRp2268
(dp2269
g62
(dp2270
sg71
g67
sg64
(lp2271
g57
(g78
g59
NtRp2272
(dp2273
g62
(dp2274
g82
g83
ssg71
g2268
sg64
(lp2275
S'url'
p2276
asbag57
(g78
g59
NtRp2277
(dp2278
g62
(dp2279
g89
g90
ssg71
g2268
sg64
(lp2280
S':'
asbag57
(g78
g59
NtRp2281
(dp2282
g62
(dp2283
sg71
g2268
sg64
(lp2284
g57
(g58
g59
NtRp2285
(dp2286
g62
(dp2287
g70
I5
ssg71
g2281
sg64
(lp2288
S'/IIITCourier/default/searchPage'
p2289
asbasbasbag57
(g73
g59
NtRp2290
(dp2291
g62
(dp2292
sg71
g67
sg64
(lp2293
g57
(g78
g59
NtRp2294
(dp2295
g62
(dp2296
g82
g83
ssg71
g2290
sg64
(lp2297
S'utcnow'
p2298
asbag57
(g78
g59
NtRp2299
(dp2300
g62
(dp2301
g89
g90
ssg71
g2290
sg64
(lp2302
S':'
asbag57
(g78
g59
NtRp2303
(dp2304
g62
(dp2305
sg71
g2290
sg64
(lp2306
g57
(g58
g59
NtRp2307
(dp2308
g62
(dp2309
g70
I5
ssg71
g2303
sg64
(lp2310
S'datetime.datetime(2015, 11, 15, 21, 32, 18, 744754)'
p2311
asbasbasbag57
(g73
g59
NtRp2312
(dp2313
g62
(dp2314
sg71
g67
sg64
(lp2315
g57
(g78
g59
NtRp2316
(dp2317
g62
(dp2318
g82
g83
ssg71
g2312
sg64
(lp2319
S'uuid'
p2320
asbag57
(g78
g59
NtRp2321
(dp2322
g62
(dp2323
g89
g90
ssg71
g2312
sg64
(lp2324
S':'
asbag57
(g78
g59
NtRp2325
(dp2326
g62
(dp2327
sg71
g2312
sg64
(lp2328
g57
(g58
g59
NtRp2329
(dp2330
g62
(dp2331
g70
I5
ssg71
g2325
sg64
(lp2332
S'IIITCourier/127.0.0.1.2015-11-16.03-02-18.c45ca44b-376e-4ce1-8156-8095e670082f'
p2333
asbasbasbag57
(g73
g59
NtRp2334
(dp2335
g62
(dp2336
sg71
g67
sg64
(lp2337
g57
(g78
g59
NtRp2338
(dp2339
g62
(dp2340
g82
g83
ssg71
g2334
sg64
(lp2341
S'vars'
p2342
asbag57
(g78
g59
NtRp2343
(dp2344
g62
(dp2345
g89
g90
ssg71
g2334
sg64
(lp2346
S':'
asbag57
(g78
g59
NtRp2347
(dp2348
g62
(dp2349
sg71
g2334
sg64
(lp2350
g57
(g58
g59
NtRp2351
(dp2352
g62
(dp2353
g70
I5
ssg71
g2347
sg64
(lp2354
g57
(g66
g59
NtRp2355
(dp2356
g62
(dp2357
g70
I4
ssg71
Nsg64
(lp2358
g57
(g73
g59
NtRp2359
(dp2360
g62
(dp2361
sg71
g2355
sg64
(lp2362
g57
(g78
g59
NtRp2363
(dp2364
g62
(dp2365
g82
g83
ssg71
g2359
sg64
(lp2366
S'records'
p2367
asbag57
(g78
g59
NtRp2368
(dp2369
g62
(dp2370
g89
g90
ssg71
g2359
sg64
(lp2371
S':'
asbag57
(g78
g59
NtRp2372
(dp2373
g62
(dp2374
sg71
g2359
sg64
(lp2375
g57
(g58
g59
NtRp2376
(dp2377
g62
(dp2378
g70
I4
ssg71
g2372
sg64
(lp2379
g57
(g66
g59
NtRp2380
(dp2381
g62
(dp2382
g70
I3
ssg71
Nsg64
(lp2383
sbasbasbasbasbasbasbasbag57
(g73
g59
NtRp2384
(dp2385
g62
(dp2386
sg71
g67
sg64
(lp2387
g57
(g78
g59
NtRp2388
(dp2389
g62
(dp2390
g82
g83
ssg71
g2384
sg64
(lp2391
S'wsgi'
p2392
asbag57
(g78
g59
NtRp2393
(dp2394
g62
(dp2395
g89
g90
ssg71
g2384
sg64
(lp2396
S':'
asbag57
(g78
g59
NtRp2397
(dp2398
g62
(dp2399
sg71
g2384
sg64
(lp2400
g57
(g58
g59
NtRp2401
(dp2402
g62
(dp2403
g70
I5
ssg71
g2397
sg64
(lp2404
g57
(g66
g59
NtRp2405
(dp2406
g62
(dp2407
g70
I4
ssg71
Nsg64
(lp2408
g57
(g73
g59
NtRp2409
(dp2410
g62
(dp2411
sg71
g2405
sg64
(lp2412
g57
(g78
g59
NtRp2413
(dp2414
g62
(dp2415
g82
g83
ssg71
g2409
sg64
(lp2416
S'environ'
p2417
asbag57
(g78
g59
NtRp2418
(dp2419
g62
(dp2420
g89
g90
ssg71
g2409
sg64
(lp2421
S':'
asbag57
(g78
g59
NtRp2422
(dp2423
g62
(dp2424
sg71
g2409
sg64
(lp2425
g57
(g58
g59
NtRp2426
(dp2427
g62
(dp2428
g70
I4
ssg71
g2422
sg64
(lp2429
g57
(g66
g59
NtRp2430
(dp2431
g62
(dp2432
g70
I3
ssg71
Nsg64
(lp2433
g57
(g73
g59
NtRp2434
(dp2435
g62
(dp2436
sg71
g2430
sg64
(lp2437
g57
(g78
g59
NtRp2438
(dp2439
g62
(dp2440
g82
g83
ssg71
g2434
sg64
(lp2441
S'HTTP_ACCEPT'
p2442
asbag57
(g78
g59
NtRp2443
(dp2444
g62
(dp2445
g89
g90
ssg71
g2434
sg64
(lp2446
S':'
asbag57
(g78
g59
NtRp2447
(dp2448
g62
(dp2449
sg71
g2434
sg64
(lp2450
g57
(g58
g59
NtRp2451
(dp2452
g62
(dp2453
g70
I3
ssg71
g2447
sg64
(lp2454
g1003
asbasbasbag57
(g73
g59
NtRp2455
(dp2456
g62
(dp2457
sg71
g2430
sg64
(lp2458
g57
(g78
g59
NtRp2459
(dp2460
g62
(dp2461
g82
g83
ssg71
g2455
sg64
(lp2462
S'HTTP_ACCEPT_ENCODING'
p2463
asbag57
(g78
g59
NtRp2464
(dp2465
g62
(dp2466
g89
g90
ssg71
g2455
sg64
(lp2467
S':'
asbag57
(g78
g59
NtRp2468
(dp2469
g62
(dp2470
sg71
g2455
sg64
(lp2471
g57
(g58
g59
NtRp2472
(dp2473
g62
(dp2474
g70
I3
ssg71
g2468
sg64
(lp2475
g1025
asbasbasbag57
(g73
g59
NtRp2476
(dp2477
g62
(dp2478
sg71
g2430
sg64
(lp2479
g57
(g78
g59
NtRp2480
(dp2481
g62
(dp2482
g82
g83
ssg71
g2476
sg64
(lp2483
S'HTTP_ACCEPT_LANGUAGE'
p2484
asbag57
(g78
g59
NtRp2485
(dp2486
g62
(dp2487
g89
g90
ssg71
g2476
sg64
(lp2488
S':'
asbag57
(g78
g59
NtRp2489
(dp2490
g62
(dp2491
sg71
g2476
sg64
(lp2492
g57
(g58
g59
NtRp2493
(dp2494
g62
(dp2495
g70
I3
ssg71
g2489
sg64
(lp2496
g1047
asbasbasbag57
(g73
g59
NtRp2497
(dp2498
g62
(dp2499
sg71
g2430
sg64
(lp2500
g57
(g78
g59
NtRp2501
(dp2502
g62
(dp2503
g82
g83
ssg71
g2497
sg64
(lp2504
S'HTTP_CONNECTION'
p2505
asbag57
(g78
g59
NtRp2506
(dp2507
g62
(dp2508
g89
g90
ssg71
g2497
sg64
(lp2509
S':'
asbag57
(g78
g59
NtRp2510
(dp2511
g62
(dp2512
sg71
g2497
sg64
(lp2513
g57
(g58
g59
NtRp2514
(dp2515
g62
(dp2516
g70
I3
ssg71
g2510
sg64
(lp2517
g1069
asbasbasbag57
(g73
g59
NtRp2518
(dp2519
g62
(dp2520
sg71
g2430
sg64
(lp2521
g57
(g78
g59
NtRp2522
(dp2523
g62
(dp2524
g82
g83
ssg71
g2518
sg64
(lp2525
S'HTTP_COOKIE'
p2526
asbag57
(g78
g59
NtRp2527
(dp2528
g62
(dp2529
g89
g90
ssg71
g2518
sg64
(lp2530
S':'
asbag57
(g78
g59
NtRp2531
(dp2532
g62
(dp2533
sg71
g2518
sg64
(lp2534
g57
(g58
g59
NtRp2535
(dp2536
g62
(dp2537
g70
I3
ssg71
g2531
sg64
(lp2538
g1091
asbasbasbag57
(g73
g59
NtRp2539
(dp2540
g62
(dp2541
sg71
g2430
sg64
(lp2542
g57
(g78
g59
NtRp2543
(dp2544
g62
(dp2545
g82
g83
ssg71
g2539
sg64
(lp2546
S'HTTP_HOST'
p2547
asbag57
(g78
g59
NtRp2548
(dp2549
g62
(dp2550
g89
g90
ssg71
g2539
sg64
(lp2551
S':'
asbag57
(g78
g59
NtRp2552
(dp2553
g62
(dp2554
sg71
g2539
sg64
(lp2555
g57
(g58
g59
NtRp2556
(dp2557
g62
(dp2558
g70
I3
ssg71
g2552
sg64
(lp2559
g1113
asbasbasbag57
(g73
g59
NtRp2560
(dp2561
g62
(dp2562
sg71
g2430
sg64
(lp2563
g57
(g78
g59
NtRp2564
(dp2565
g62
(dp2566
g82
g83
ssg71
g2560
sg64
(lp2567
S'HTTP_REFERER'
p2568
asbag57
(g78
g59
NtRp2569
(dp2570
g62
(dp2571
g89
g90
ssg71
g2560
sg64
(lp2572
S':'
asbag57
(g78
g59
NtRp2573
(dp2574
g62
(dp2575
sg71
g2560
sg64
(lp2576
g57
(g58
g59
NtRp2577
(dp2578
g62
(dp2579
g70
I3
ssg71
g2573
sg64
(lp2580
g1135
asbasbasbag57
(g73
g59
NtRp2581
(dp2582
g62
(dp2583
sg71
g2430
sg64
(lp2584
g57
(g78
g59
NtRp2585
(dp2586
g62
(dp2587
g82
g83
ssg71
g2581
sg64
(lp2588
S'HTTP_USER_AGENT'
p2589
asbag57
(g78
g59
NtRp2590
(dp2591
g62
(dp2592
g89
g90
ssg71
g2581
sg64
(lp2593
S':'
asbag57
(g78
g59
NtRp2594
(dp2595
g62
(dp2596
sg71
g2581
sg64
(lp2597
g57
(g58
g59
NtRp2598
(dp2599
g62
(dp2600
g70
I3
ssg71
g2594
sg64
(lp2601
g1157
asbasbasbag57
(g73
g59
NtRp2602
(dp2603
g62
(dp2604
sg71
g2430
sg64
(lp2605
g57
(g78
g59
NtRp2606
(dp2607
g62
(dp2608
g82
g83
ssg71
g2602
sg64
(lp2609
S'PATH_INFO'
p2610
asbag57
(g78
g59
NtRp2611
(dp2612
g62
(dp2613
g89
g90
ssg71
g2602
sg64
(lp2614
S':'
asbag57
(g78
g59
NtRp2615
(dp2616
g62
(dp2617
sg71
g2602
sg64
(lp2618
g57
(g58
g59
NtRp2619
(dp2620
g62
(dp2621
g70
I3
ssg71
g2615
sg64
(lp2622
g1221
asbasbasbag57
(g73
g59
NtRp2623
(dp2624
g62
(dp2625
sg71
g2430
sg64
(lp2626
g57
(g78
g59
NtRp2627
(dp2628
g62
(dp2629
g82
g83
ssg71
g2623
sg64
(lp2630
S'QUERY_STRING'
p2631
asbag57
(g78
g59
NtRp2632
(dp2633
g62
(dp2634
g89
g90
ssg71
g2623
sg64
(lp2635
S':'
asbag57
(g78
g59
NtRp2636
(dp2637
g62
(dp2638
sg71
g2623
sg64
(lp2639
g57
(g58
g59
NtRp2640
(dp2641
g62
(dp2642
g70
I3
ssg71
g2636
sg64
(lp2643
S''
asbasbasbag57
(g73
g59
NtRp2644
(dp2645
g62
(dp2646
sg71
g2430
sg64
(lp2647
g57
(g78
g59
NtRp2648
(dp2649
g62
(dp2650
g82
g83
ssg71
g2644
sg64
(lp2651
S'REMOTE_ADDR'
p2652
asbag57
(g78
g59
NtRp2653
(dp2654
g62
(dp2655
g89
g90
ssg71
g2644
sg64
(lp2656
S':'
asbag57
(g78
g59
NtRp2657
(dp2658
g62
(dp2659
sg71
g2644
sg64
(lp2660
g57
(g58
g59
NtRp2661
(dp2662
g62
(dp2663
g70
I3
ssg71
g2657
sg64
(lp2664
g190
asbasbasbag57
(g73
g59
NtRp2665
(dp2666
g62
(dp2667
sg71
g2430
sg64
(lp2668
g57
(g78
g59
NtRp2669
(dp2670
g62
(dp2671
g82
g83
ssg71
g2665
sg64
(lp2672
S'REMOTE_PORT'
p2673
asbag57
(g78
g59
NtRp2674
(dp2675
g62
(dp2676
g89
g90
ssg71
g2665
sg64
(lp2677
S':'
asbag57
(g78
g59
NtRp2678
(dp2679
g62
(dp2680
sg71
g2665
sg64
(lp2681
g57
(g58
g59
NtRp2682
(dp2683
g62
(dp2684
g70
I3
ssg71
g2678
sg64
(lp2685
g1285
asbasbasbag57
(g73
g59
NtRp2686
(dp2687
g62
(dp2688
sg71
g2430
sg64
(lp2689
g57
(g78
g59
NtRp2690
(dp2691
g62
(dp2692
g82
g83
ssg71
g2686
sg64
(lp2693
S'REQUEST_METHOD'
p2694
asbag57
(g78
g59
NtRp2695
(dp2696
g62
(dp2697
g89
g90
ssg71
g2686
sg64
(lp2698
S':'
asbag57
(g78
g59
NtRp2699
(dp2700
g62
(dp2701
sg71
g2686
sg64
(lp2702
g57
(g58
g59
NtRp2703
(dp2704
g62
(dp2705
g70
I3
ssg71
g2699
sg64
(lp2706
g1307
asbasbasbag57
(g73
g59
NtRp2707
(dp2708
g62
(dp2709
sg71
g2430
sg64
(lp2710
g57
(g78
g59
NtRp2711
(dp2712
g62
(dp2713
g82
g83
ssg71
g2707
sg64
(lp2714
S'SCRIPT_NAME'
p2715
asbag57
(g78
g59
NtRp2716
(dp2717
g62
(dp2718
g89
g90
ssg71
g2707
sg64
(lp2719
S':'
asbag57
(g78
g59
NtRp2720
(dp2721
g62
(dp2722
sg71
g2707
sg64
(lp2723
g57
(g58
g59
NtRp2724
(dp2725
g62
(dp2726
g70
I3
ssg71
g2720
sg64
(lp2727
S''
asbasbasbag57
(g73
g59
NtRp2728
(dp2729
g62
(dp2730
sg71
g2430
sg64
(lp2731
g57
(g78
g59
NtRp2732
(dp2733
g62
(dp2734
g82
g83
ssg71
g2728
sg64
(lp2735
S'SERVER_NAME'
p2736
asbag57
(g78
g59
NtRp2737
(dp2738
g62
(dp2739
g89
g90
ssg71
g2728
sg64
(lp2740
S':'
asbag57
(g78
g59
NtRp2741
(dp2742
g62
(dp2743
sg71
g2728
sg64
(lp2744
g57
(g58
g59
NtRp2745
(dp2746
g62
(dp2747
g70
I3
ssg71
g2741
sg64
(lp2748
g1350
asbasbasbag57
(g73
g59
NtRp2749
(dp2750
g62
(dp2751
sg71
g2430
sg64
(lp2752
g57
(g78
g59
NtRp2753
(dp2754
g62
(dp2755
g82
g83
ssg71
g2749
sg64
(lp2756
S'SERVER_PORT'
p2757
asbag57
(g78
g59
NtRp2758
(dp2759
g62
(dp2760
g89
g90
ssg71
g2749
sg64
(lp2761
S':'
asbag57
(g78
g59
NtRp2762
(dp2763
g62
(dp2764
sg71
g2749
sg64
(lp2765
g57
(g58
g59
NtRp2766
(dp2767
g62
(dp2768
g70
I3
ssg71
g2762
sg64
(lp2769
g1372
asbasbasbag57
(g73
g59
NtRp2770
(dp2771
g62
(dp2772
sg71
g2430
sg64
(lp2773
g57
(g78
g59
NtRp2774
(dp2775
g62
(dp2776
g82
g83
ssg71
g2770
sg64
(lp2777
S'SERVER_PROTOCOL'
p2778
asbag57
(g78
g59
NtRp2779
(dp2780
g62
(dp2781
g89
g90
ssg71
g2770
sg64
(lp2782
S':'
asbag57
(g78
g59
NtRp2783
(dp2784
g62
(dp2785
sg71
g2770
sg64
(lp2786
g57
(g58
g59
NtRp2787
(dp2788
g62
(dp2789
g70
I3
ssg71
g2783
sg64
(lp2790
g1394
asbasbasbag57
(g73
g59
NtRp2791
(dp2792
g62
(dp2793
sg71
g2430
sg64
(lp2794
g57
(g78
g59
NtRp2795
(dp2796
g62
(dp2797
g82
g83
ssg71
g2791
sg64
(lp2798
S'SERVER_SOFTWARE'
p2799
asbag57
(g78
g59
NtRp2800
(dp2801
g62
(dp2802
g89
g90
ssg71
g2791
sg64
(lp2803
S':'
asbag57
(g78
g59
NtRp2804
(dp2805
g62
(dp2806
sg71
g2791
sg64
(lp2807
g57
(g58
g59
NtRp2808
(dp2809
g62
(dp2810
g70
I3
ssg71
g2804
sg64
(lp2811
g1416
asbasbasbag57
(g73
g59
NtRp2812
(dp2813
g62
(dp2814
sg71
g2430
sg64
(lp2815
g57
(g78
g59
NtRp2816
(dp2817
g62
(dp2818
g82
g83
ssg71
g2812
sg64
(lp2819
S'wsgi.errors'
p2820
asbag57
(g78
g59
NtRp2821
(dp2822
g62
(dp2823
g89
g90
ssg71
g2812
sg64
(lp2824
S':'
asbag57
(g78
g59
NtRp2825
(dp2826
g62
(dp2827
sg71
g2812
sg64
(lp2828
g57
(g58
g59
NtRp2829
(dp2830
g62
(dp2831
g70
I3
ssg71
g2825
sg64
(lp2832
S"<open file '<stderr>', mode 'w' at 0x7fa71a3bc1e0>"
p2833
asbasbasbag57
(g73
g59
NtRp2834
(dp2835
g62
(dp2836
sg71
g2430
sg64
(lp2837
g57
(g78
g59
NtRp2838
(dp2839
g62
(dp2840
g82
g83
ssg71
g2834
sg64
(lp2841
S'wsgi.file_wrapper'
p2842
asbag57
(g78
g59
NtRp2843
(dp2844
g62
(dp2845
g89
g90
ssg71
g2834
sg64
(lp2846
S':'
asbag57
(g78
g59
NtRp2847
(dp2848
g62
(dp2849
sg71
g2834
sg64
(lp2850
g57
(g58
g59
NtRp2851
(dp2852
g62
(dp2853
g70
I3
ssg71
g2847
sg64
(lp2854
S'<class wsgiref.util.FileWrapper at 0x7fa715d59258>'
p2855
asbasbasbag57
(g73
g59
NtRp2856
(dp2857
g62
(dp2858
sg71
g2430
sg64
(lp2859
g57
(g78
g59
NtRp2860
(dp2861
g62
(dp2862
g82
g83
ssg71
g2856
sg64
(lp2863
S'wsgi.input'
p2864
asbag57
(g78
g59
NtRp2865
(dp2866
g62
(dp2867
g89
g90
ssg71
g2856
sg64
(lp2868
S':'
asbag57
(g78
g59
NtRp2869
(dp2870
g62
(dp2871
sg71
g2856
sg64
(lp2872
g57
(g58
g59
NtRp2873
(dp2874
g62
(dp2875
g70
I3
ssg71
g2869
sg64
(lp2876
S'<cStringIO.StringO object at 0x7fa6c7f41ed8>'
p2877
asbasbasbag57
(g73
g59
NtRp2878
(dp2879
g62
(dp2880
sg71
g2430
sg64
(lp2881
g57
(g78
g59
NtRp2882
(dp2883
g62
(dp2884
g82
g83
ssg71
g2878
sg64
(lp2885
S'wsgi.multiprocess'
p2886
asbag57
(g78
g59
NtRp2887
(dp2888
g62
(dp2889
g89
g90
ssg71
g2878
sg64
(lp2890
S':'
asbag57
(g78
g59
NtRp2891
(dp2892
g62
(dp2893
sg71
g2878
sg64
(lp2894
g57
(g58
g59
NtRp2895
(dp2896
g62
(dp2897
g70
I3
ssg71
g2891
sg64
(lp2898
g100
asbasbasbag57
(g73
g59
NtRp2899
(dp2900
g62
(dp2901
sg71
g2430
sg64
(lp2902
g57
(g78
g59
NtRp2903
(dp2904
g62
(dp2905
g82
g83
ssg71
g2899
sg64
(lp2906
S'wsgi.multithread'
p2907
asbag57
(g78
g59
NtRp2908
(dp2909
g62
(dp2910
g89
g90
ssg71
g2899
sg64
(lp2911
S':'
asbag57
(g78
g59
NtRp2912
(dp2913
g62
(dp2914
sg71
g2899
sg64
(lp2915
g57
(g58
g59
NtRp2916
(dp2917
g62
(dp2918
g70
I3
ssg71
g2912
sg64
(lp2919
g1656
asbasbasbag57
(g73
g59
NtRp2920
(dp2921
g62
(dp2922
sg71
g2430
sg64
(lp2923
g57
(g78
g59
NtRp2924
(dp2925
g62
(dp2926
g82
g83
ssg71
g2920
sg64
(lp2927
S'wsgi.run_once'
p2928
asbag57
(g78
g59
NtRp2929
(dp2930
g62
(dp2931
g89
g90
ssg71
g2920
sg64
(lp2932
S':'
asbag57
(g78
g59
NtRp2933
(dp2934
g62
(dp2935
sg71
g2920
sg64
(lp2936
g57
(g58
g59
NtRp2937
(dp2938
g62
(dp2939
g70
I3
ssg71
g2933
sg64
(lp2940
g100
asbasbasbag57
(g73
g59
NtRp2941
(dp2942
g62
(dp2943
sg71
g2430
sg64
(lp2944
g57
(g78
g59
NtRp2945
(dp2946
g62
(dp2947
g82
g83
ssg71
g2941
sg64
(lp2948
S'wsgi.url_scheme'
p2949
asbag57
(g78
g59
NtRp2950
(dp2951
g62
(dp2952
g89
g90
ssg71
g2941
sg64
(lp2953
S':'
asbag57
(g78
g59
NtRp2954
(dp2955
g62
(dp2956
sg71
g2941
sg64
(lp2957
g57
(g58
g59
NtRp2958
(dp2959
g62
(dp2960
g70
I3
ssg71
g2954
sg64
(lp2961
g1699
asbasbasbag57
(g73
g59
NtRp2962
(dp2963
g62
(dp2964
sg71
g2430
sg64
(lp2965
g57
(g78
g59
NtRp2966
(dp2967
g62
(dp2968
g82
g83
ssg71
g2962
sg64
(lp2969
S'wsgi.version'
p2970
asbag57
(g78
g59
NtRp2971
(dp2972
g62
(dp2973
g89
g90
ssg71
g2962
sg64
(lp2974
S':'
asbag57
(g78
g59
NtRp2975
(dp2976
g62
(dp2977
sg71
g2962
sg64
(lp2978
g57
(g58
g59
NtRp2979
(dp2980
g62
(dp2981
g70
I3
ssg71
g2975
sg64
(lp2982
S'1'
asbasbasbasbasbasbasbasbasbasbasbasbasbsS'frames'
p2983
(lp2984
(dp2985
S'file'
p2986
S'/usr/lib/pymodules/python2.7/gluon/restricted.py'
p2987
sS'dump'
p2988
(dp2989
S'environment'
p2990
S"{'A': <class 'gluon.html.A'>, 'Auth': <class 'gluon.tools.Auth'>, 'B': <class 'gluon.html.B'>, 'BEAUTIFY': <class 'gluon.html.BEAUTIFY'>, 'BODY': <class 'gluon.html.BODY'>, 'BR': <class 'gluon.html.BR'>, 'BUTTON': <class 'gluon.html.BUTTON'>, 'CAT': <class 'gluon.html.CAT'>, 'CENTER': <class 'gluon.html.CENTER'>, 'CLEANUP': <class 'gluon.validators.CLEANUP'>, ...}"
p2991
sS'ccode'
p2992
S'<code object <module> at 0x7fa6c7a34830, file "/...ons/IIITCourier/controllers/default.py", line 11>'
p2993
ssS'lnum'
p2994
I205
sS'lines'
p2995
(dp2996
I200
S'    try:'
p2997
sI201
S'        if type(code) == types.CodeType:'
p2998
sI202
S'            ccode = code'
p2999
sI203
S'        else:'
p3000
sI204
S'            ccode = compile2(code,layer)'
p3001
sI205
S'        exec ccode in environment'
p3002
sI206
S'    except HTTP:'
p3003
sI207
S'        raise'
p3004
sI208
S'    except RestrictedError:'
p3005
sI209
S'        # do not encapsulate (obfuscate) the original RestrictedError'
p3006
ssS'call'
p3007
S"(code='# -*- coding: utf-8 -*-\\n# this file is released ...())\\n\\nresponse._vars=response._caller(searchPage)\\n', environment={'A': <class 'gluon.html.A'>, 'Auth': <class 'gluon.tools.Auth'>, 'B': <class 'gluon.html.B'>, 'BEAUTIFY': <class 'gluon.html.BEAUTIFY'>, 'BODY': <class 'gluon.html.BODY'>, 'BR': <class 'gluon.html.BR'>, 'BUTTON': <class 'gluon.html.BUTTON'>, 'CAT': <class 'gluon.html.CAT'>, 'CENTER': <class 'gluon.html.CENTER'>, 'CLEANUP': <class 'gluon.validators.CLEANUP'>, ...}, layer='/home/game_boy/web2py/applications/IIITCourier/controllers/default.py')"
p3008
sS'func'
p3009
S'restricted'
p3010
sa(dp3011
g2986
S'/home/game_boy/web2py/applications/IIITCourier/controllers/default.py'
p3012
sg2988
(dp3013
sg2994
I132
sg2995
(dp3014
I128
S"      LOAD('default','data.load',args='tables',ajax=True,user_signature=True)"
p3015
sI129
S'    """'
p3016
sI130
S'    return dict(form=crud())'
p3017
sI121
S'    http://..../[app]/default/data/update/[table]/[id]'
p3018
sI122
S'    http://..../[app]/default/data/delete/[table]/[id]'
p3019
sI123
S'    http://..../[app]/default/data/select/[table]'
p3020
sI124
S'    http://..../[app]/default/data/search/[table]'
p3021
sI125
S'    but URLs must be signed, i.e. linked with'
p3022
sI126
S"      A('table',_href=URL('data/tables',user_signature=True))"
p3023
sI127
S'    or with the signed load operator'
p3024
ssg3007
S'()'
p3025
sg3009
S'<module>'
p3026
sa(dp3027
g2986
S'/usr/lib/pymodules/python2.7/gluon/globals.py'
p3028
sg2988
(dp3029
S'self'
p3030
S'undefined'
p3031
sS'f'
S'<function searchPage>'
p3032
ssg2994
I173
sg2995
(dp3033
I168
S'        self.menu = []             # used by the default view layout'
p3034
sI169
S'        self.files = []            # used by web2py_ajax.html'
p3035
sI170
S'        self.generic_patterns = [] # patterns to allow generic views'
p3036
sI171
S"        self.delimiters = ('{{','}}')"
p3037
sI172
S'        self._vars = None'
p3038
sI173
S'        self._caller = lambda f: f()'
p3039
sI174
S'        self._view_environment = None'
p3040
sI175
S'        self._custom_commit = None'
p3041
sI176
S'        self._custom_rollback = None'
p3042
sI177
S''
ssg3007
S'(f=<function searchPage>)'
p3043
sg3009
S'<lambda>'
p3044
sa(dp3045
g2986
S'/home/game_boy/web2py/applications/IIITCourier/controllers/default.py'
p3046
sg2988
(dp3047
S'SQLFORM.grid'
p3048
S'<function grid>'
p3049
sS'global SQLFORM'
p3050
S"<class 'gluon.sqlhtml.SQLFORM'>"
p3051
sS'rows'
p3052
g3031
sS'query'
p3053
S'<gluon.dal.Query object>'
p3054
ssg2994
I60
sg2995
(dp3055
I64
S'def studentHome():'
p3056
sI55
S'        queries.append(db.courierDetails.Date_received <= To)'
p3057
sI56
S"    if received != 'None':"
p3058
sI57
S'        queries.append(db.courierDetails.Received == received)'
p3059
sI58
S'    query = reduce(lambda a,b:(a&b),queries)'
p3060
sI59
S''
sI60
S'    rows=SQLFORM.grid(query = query);'
p3061
sI61
S"    return {'rows':rows}"
p3062
sI62
S''
sI63
S"@auth.requires_membership('student')"
p3063
ssg3007
S'()'
p3064
sg3009
S'searchPage'
p3065
sa(dp3066
g2986
S'/usr/lib/pymodules/python2.7/gluon/sqlhtml.py'
p3067
sg2988
(dp3068
S'dbset.select'
p3069
S'<bound method Set.select of <gluon.dal.Set object>>'
p3070
sS'orderby'
p3071
S'None'
p3072
sS'rows'
p3073
g3031
sS'limitby'
p3074
S'None'
p3075
sS'table_fields'
p3076
S'[<gluon.dal.Field object>, <gluon.dal.Field object>, <gluon.dal.Field object>, <gluon.dal.Field object>, <gluon.dal.Field object>, <gluon.dal.Field object>, <gluon.dal.Field object>, <gluon.dal.Field object>, <gluon.dal.Field object>, <gluon.dal.Field object>, <gluon.dal.Field object>]'
p3077
sS'dbset'
p3078
S'<gluon.dal.Set object>'
p3079
sS'left'
p3080
S'None'
p3081
ssg2994
I1769
sg2995
(dp3082
I1764
S'        else:'
p3083
sI1765
S'            limitby = None'
p3084
sI1766
S''
sI1767
S'        try:'
p3085
sI1768
S'            table_fields = [f for f in fields if f._tablename in tablenames]'
p3086
sI1769
S'            rows = dbset.select(left=left,orderby=orderby,limitby=limitby,*table_fields)'
p3087
sI1770
S'        except SyntaxError:'
p3088
sI1771
S'            rows = None'
p3089
sI1772
S'            error = T("Query Not Supported")'
p3090
sI1773
S"        message = error or T('%(nrows)s records found') % dict(nrows=nrows)"
p3091
ssg3007
S"(query=<gluon.dal.Query object>, fields=[<gluon.dal.Field object>, <gluon.dal.Field object>, <gluon.dal.Field object>, <gluon.dal.Field object>, <gluon.dal.Field object>, <gluon.dal.Field object>, <gluon.dal.Field object>, <gluon.dal.Field object>, <gluon.dal.Field object>, <gluon.dal.Field object>, <gluon.dal.Field object>], field_id=<gluon.dal.Field object>, left=None, headers={}, orderby=None, searchable=True, sortable=True, paginate=20, deletable=True, editable=True, details=True, selectable=None, create=True, csv=True, links=None, links_in_grid=True, upload=<function <lambda>>, args=[], user_signature=True, maxtextlengths={}, maxtextlength=20, onvalidation=None, oncreate=None, onupdate=None, ondelete=None, sorter_icons=(<gluon.html.XML object>, <gluon.html.XML object>), ui={'button': 'button', 'buttonadd': 'icon plus', 'buttonback': 'icon leftarrow', 'buttondelete': 'icon trash', 'buttonedit': 'icon pen', 'buttonexport': 'icon downarrow', 'buttontable': 'icon rightarrow', 'buttontext': 'buttontext button', 'buttonview': 'icon magnifier', 'content': '', ...}, showbuttontext=True, _class='web2py_grid', formname='web2py_grid', search_widget=<function <lambda>>, ignore_rw=False, formstyle='table3cols')"
p3092
sg3009
S'grid'
p3093
sa(dp3094
g2986
S'/usr/lib/pymodules/python2.7/gluon/dal.py'
p3095
sg2988
(dp3096
S'self.query'
p3097
S'<gluon.dal.Query object>'
p3098
sS'adapter.select'
p3099
S'<bound method SQLiteAdapter.select of <gluon.dal.SQLiteAdapter object>>'
p3100
sS'fields'
p3101
S'[<gluon.dal.Field object>, <gluon.dal.Field object>, <gluon.dal.Field object>, <gluon.dal.Field object>, <gluon.dal.Field object>, <gluon.dal.Field object>, <gluon.dal.Field object>, <gluon.dal.Field object>, <gluon.dal.Field object>, <gluon.dal.Field object>, <gluon.dal.Field object>]'
p3102
sS'adapter'
p3103
S'<gluon.dal.SQLiteAdapter object>'
p3104
sS'attributes'
p3105
S"{'left': None, 'limitby': None, 'orderby': None}"
p3106
sS'self'
p3107
S'<gluon.dal.Set object>'
p3108
ssg2994
I7578
sg2995
(dp3109
I7573
S'        return self.db._adapter.count(self.query,distinct)'
p3110
sI7574
S''
sI7575
S'    def select(self, *fields, **attributes):'
p3111
sI7576
S'        adapter = self.db._adapter'
p3112
sI7577
S'        fields = adapter.expand_all(fields, adapter.tables(self.query))'
p3113
sI7578
S'        return adapter.select(self.query,fields,attributes)'
p3114
sI7579
S''
sI7580
S'    def delete(self):'
p3115
sI7581
S'        tablename=self.db._adapter.get_table(self.query)'
p3116
sI7582
S'        self.delete_uploaded_files()'
p3117
ssg3007
S"(self=<gluon.dal.Set object>, *fields=[<gluon.dal.Field object>, <gluon.dal.Field object>, <gluon.dal.Field object>, <gluon.dal.Field object>, <gluon.dal.Field object>, <gluon.dal.Field object>, <gluon.dal.Field object>, <gluon.dal.Field object>, <gluon.dal.Field object>, <gluon.dal.Field object>, <gluon.dal.Field object>], **attributes={'left': None, 'limitby': None, 'orderby': None})"
p3118
sg3009
S'select'
p3119
sa(dp3120
g2986
S'/usr/lib/pymodules/python2.7/gluon/dal.py'
p3121
sg2988
(dp3122
S'self._select'
p3123
S'<bound method SQLiteAdapter._select of <gluon.dal.SQLiteAdapter object>>'
p3124
sS'fields'
p3125
S'[<gluon.dal.Field object>, <gluon.dal.Field object>, <gluon.dal.Field object>, <gluon.dal.Field object>, <gluon.dal.Field object>, <gluon.dal.Field object>, <gluon.dal.Field object>, <gluon.dal.Field object>, <gluon.dal.Field object>, <gluon.dal.Field object>, <gluon.dal.Field object>]'
p3126
sS'self'
p3127
S'<gluon.dal.SQLiteAdapter object>'
p3128
sS'sql'
p3129
g3031
sS'query'
p3130
S'<gluon.dal.Query object>'
p3131
sS'attributes'
p3132
S"{'left': None, 'limitby': None, 'orderby': None}"
p3133
ssg2994
I1307
sg2995
(dp3134
I1302
S'        Always returns a Rows object, possibly empty.'
p3135
sI1303
S'        """'
p3136
sI1304
S'        def response(sql):'
p3137
sI1305
S'            self.execute(sql)'
p3138
sI1306
S'            return self.cursor.fetchall()'
p3139
sI1307
S'        sql = self._select(query, fields, attributes)'
p3140
sI1308
S"        if attributes.get('cache', None):"
p3141
sI1309
S"            (cache_model, time_expire) = attributes['cache']"
p3142
sI1310
S"            del attributes['cache']"
p3143
sI1311
S"            key = self.uri + '/' + sql"
p3144
ssg3007
S"(self=<gluon.dal.SQLiteAdapter object>, query=<gluon.dal.Query object>, fields=[<gluon.dal.Field object>, <gluon.dal.Field object>, <gluon.dal.Field object>, <gluon.dal.Field object>, <gluon.dal.Field object>, <gluon.dal.Field object>, <gluon.dal.Field object>, <gluon.dal.Field object>, <gluon.dal.Field object>, <gluon.dal.Field object>, <gluon.dal.Field object>], attributes={'left': None, 'limitby': None, 'orderby': None})"
p3145
sg3009
g3119
sa(dp3146
g2986
S'/usr/lib/pymodules/python2.7/gluon/dal.py'
p3147
sg2988
(dp3148
S'fields'
p3149
S'[<gluon.dal.Field object>, <gluon.dal.Field object>, <gluon.dal.Field object>, <gluon.dal.Field object>, <gluon.dal.Field object>, <gluon.dal.Field object>, <gluon.dal.Field object>, <gluon.dal.Field object>, <gluon.dal.Field object>, <gluon.dal.Field object>, <gluon.dal.Field object>]'
p3150
sS'self'
p3151
S'<gluon.dal.SQLiteAdapter object>'
p3152
sS')._select'
p3153
S'<bound method SQLiteAdapter._select of <gluon.dal.SQLiteAdapter object>>'
p3154
sS'sql'
p3155
g3031
sS'global SQLiteAdapter'
p3156
S"<class 'gluon.dal.SQLiteAdapter'>"
p3157
sS'query'
p3158
S'<gluon.dal.Query object>'
p3159
sS'builtinsuper'
p3160
S"<type 'super'>"
p3161
sS'attributes'
p3162
S"{'left': None, 'limitby': None, 'orderby': None}"
p3163
ssg2994
I1756
sg2995
(dp3164
I1760
S''
sI1751
S'        """'
p3165
sI1752
S'        Simulate SELECT ... FOR UPDATE with BEGIN IMMEDIATE TRANSACTION.'
p3166
sI1753
S'        Note that the entire database, rather than one record, is locked'
p3167
sI1754
S'        (it will be locked eventually anyway by the following UPDATE).'
p3168
sI1755
S'        """'
p3169
sI1756
S'        sql = super(SQLiteAdapter, self)._select(query, fields, attributes)'
p3170
sI1757
S"        if attributes.get('for_update', False):"
p3171
sI1758
S"            sql = 'BEGIN IMMEDIATE TRANSACTION; ' + sql"
p3172
sI1759
S'        return sql'
p3173
ssg3007
S"(self=<gluon.dal.SQLiteAdapter object>, query=<gluon.dal.Query object>, fields=[<gluon.dal.Field object>, <gluon.dal.Field object>, <gluon.dal.Field object>, <gluon.dal.Field object>, <gluon.dal.Field object>, <gluon.dal.Field object>, <gluon.dal.Field object>, <gluon.dal.Field object>, <gluon.dal.Field object>, <gluon.dal.Field object>, <gluon.dal.Field object>], attributes={'left': None, 'limitby': None, 'orderby': None})"
p3174
sg3009
S'_select'
p3175
sa(dp3176
g2986
S'/usr/lib/pymodules/python2.7/gluon/dal.py'
p3177
sg2988
(dp3178
S'query'
p3179
S'<gluon.dal.Query object>'
p3180
sS'self'
p3181
S'<gluon.dal.SQLiteAdapter object>'
p3182
sS'sql_w'
p3183
g3031
sS'self.expand'
p3184
S'<bound method SQLiteAdapter.expand of <gluon.dal.SQLiteAdapter object>>'
p3185
ssg2994
I1200
sg2995
(dp3186
I1195
S'        if len(tablenames) < 1:'
p3187
sI1196
S"            raise SyntaxError, 'Set: no tables selected'"
p3188
sI1197
S"        sql_f = ', '.join(map(self.expand, fields))"
p3189
sI1198
S"        self._colnames = [c.strip() for c in sql_f.split(', ')]"
p3190
sI1199
S'        if query:'
p3191
sI1200
S"            sql_w = ' WHERE ' + self.expand(query)"
p3192
sI1201
S'        else:'
p3193
sI1202
S"            sql_w = ''"
p3194
sI1203
S"        sql_o = ''"
p3195
sI1204
S"        sql_s = ''"
p3196
ssg3007
S"(self=<gluon.dal.SQLiteAdapter object>, query=<gluon.dal.Query object>, fields=[<gluon.dal.Field object>, <gluon.dal.Field object>, <gluon.dal.Field object>, <gluon.dal.Field object>, <gluon.dal.Field object>, <gluon.dal.Field object>, <gluon.dal.Field object>, <gluon.dal.Field object>, <gluon.dal.Field object>, <gluon.dal.Field object>, <gluon.dal.Field object>], attributes={'left': None, 'limitby': None, 'orderby': None})"
p3197
sg3009
g3175
sa(dp3198
g2986
S'/usr/lib/pymodules/python2.7/gluon/dal.py'
p3199
sg2988
(dp3200
S'expression.op'
p3201
S'<bound method SQLiteAdapter.AND of <gluon.dal.SQLiteAdapter object>>'
p3202
sS'expression'
p3203
S'<gluon.dal.Query object>'
p3204
sS'expression.first'
p3205
S'<gluon.dal.Query object>'
p3206
sS'expression.second'
p3207
S'<gluon.dal.Query object>'
p3208
ssg2994
I1046
sg2995
(dp3209
I1041
S'    def expand(self, expression, field_type=None):'
p3210
sI1042
S'        if isinstance(expression, Field):'
p3211
sI1043
S'            return str(expression)'
p3212
sI1044
S'        elif isinstance(expression, (Expression, Query)):'
p3213
sI1045
S'            if not expression.second is None:'
p3214
sI1046
S'                return expression.op(expression.first, expression.second)'
p3215
sI1047
S'            elif not expression.first is None:'
p3216
sI1048
S'                return expression.op(expression.first)'
p3217
sI1049
S'            elif not isinstance(expression.op, str):'
p3218
sI1050
S'                return expression.op()'
p3219
ssg3007
S'(self=<gluon.dal.SQLiteAdapter object>, expression=<gluon.dal.Query object>, field_type=None)'
p3220
sg3009
S'expand'
p3221
sa(dp3222
g2986
S'/usr/lib/pymodules/python2.7/gluon/dal.py'
p3223
sg2988
(dp3224
S'self'
p3225
S'<gluon.dal.SQLiteAdapter object>'
p3226
sS'first'
p3227
S'<gluon.dal.Query object>'
p3228
sS'second'
p3229
S'<gluon.dal.Query object>'
p3230
sS'self.expand'
p3231
S'<bound method SQLiteAdapter.expand of <gluon.dal.SQLiteAdapter object>>'
p3232
ssg2994
I946
sg2995
(dp3233
I941
S''
sI942
S'    def NOT(self, first):'
p3234
sI943
S"        return '(NOT %s)' % self.expand(first)"
p3235
sI944
S''
sI945
S'    def AND(self, first, second):'
p3236
sI946
S"        return '(%s AND %s)' % (self.expand(first), self.expand(second))"
p3237
sI947
S''
sI948
S'    def OR(self, first, second):'
p3238
sI949
S"        return '(%s OR %s)' % (self.expand(first), self.expand(second))"
p3239
sI950
S''
ssg3007
S'(self=<gluon.dal.SQLiteAdapter object>, first=<gluon.dal.Query object>, second=<gluon.dal.Query object>)'
p3240
sg3009
S'AND'
p3241
sa(dp3242
g2986
S'/usr/lib/pymodules/python2.7/gluon/dal.py'
p3243
sg2988
(dp3244
S'expression.op'
p3245
S'<bound method SQLiteAdapter.AND of <gluon.dal.SQLiteAdapter object>>'
p3246
sS'expression'
p3247
S'<gluon.dal.Query object>'
p3248
sS'expression.first'
p3249
S'<gluon.dal.Query object>'
p3250
sS'expression.second'
p3251
S'<gluon.dal.Query object>'
p3252
ssg2994
I1046
sg2995
(dp3253
I1041
S'    def expand(self, expression, field_type=None):'
p3254
sI1042
S'        if isinstance(expression, Field):'
p3255
sI1043
S'            return str(expression)'
p3256
sI1044
S'        elif isinstance(expression, (Expression, Query)):'
p3257
sI1045
S'            if not expression.second is None:'
p3258
sI1046
S'                return expression.op(expression.first, expression.second)'
p3259
sI1047
S'            elif not expression.first is None:'
p3260
sI1048
S'                return expression.op(expression.first)'
p3261
sI1049
S'            elif not isinstance(expression.op, str):'
p3262
sI1050
S'                return expression.op()'
p3263
ssg3007
S'(self=<gluon.dal.SQLiteAdapter object>, expression=<gluon.dal.Query object>, field_type=None)'
p3264
sg3009
g3221
sa(dp3265
g2986
S'/usr/lib/pymodules/python2.7/gluon/dal.py'
p3266
sg2988
(dp3267
S'self'
p3268
S'<gluon.dal.SQLiteAdapter object>'
p3269
sS'first'
p3270
S'<gluon.dal.Query object>'
p3271
sS'second'
p3272
S'<gluon.dal.Query object>'
p3273
sS'self.expand'
p3274
S'<bound method SQLiteAdapter.expand of <gluon.dal.SQLiteAdapter object>>'
p3275
ssg2994
I946
sg2995
(dp3276
I941
S''
sI942
S'    def NOT(self, first):'
p3277
sI943
S"        return '(NOT %s)' % self.expand(first)"
p3278
sI944
S''
sI945
S'    def AND(self, first, second):'
p3279
sI946
S"        return '(%s AND %s)' % (self.expand(first), self.expand(second))"
p3280
sI947
S''
sI948
S'    def OR(self, first, second):'
p3281
sI949
S"        return '(%s OR %s)' % (self.expand(first), self.expand(second))"
p3282
sI950
S''
ssg3007
S'(self=<gluon.dal.SQLiteAdapter object>, first=<gluon.dal.Query object>, second=<gluon.dal.Query object>)'
p3283
sg3009
g3241
sa(dp3284
g2986
S'/usr/lib/pymodules/python2.7/gluon/dal.py'
p3285
sg2988
(dp3286
S'expression.op'
p3287
S'<bound method SQLiteAdapter.AND of <gluon.dal.SQLiteAdapter object>>'
p3288
sS'expression'
p3289
S'<gluon.dal.Query object>'
p3290
sS'expression.first'
p3291
S'<gluon.dal.Query object>'
p3292
sS'expression.second'
p3293
S'<gluon.dal.Query object>'
p3294
ssg2994
I1046
sg2995
(dp3295
I1041
S'    def expand(self, expression, field_type=None):'
p3296
sI1042
S'        if isinstance(expression, Field):'
p3297
sI1043
S'            return str(expression)'
p3298
sI1044
S'        elif isinstance(expression, (Expression, Query)):'
p3299
sI1045
S'            if not expression.second is None:'
p3300
sI1046
S'                return expression.op(expression.first, expression.second)'
p3301
sI1047
S'            elif not expression.first is None:'
p3302
sI1048
S'                return expression.op(expression.first)'
p3303
sI1049
S'            elif not isinstance(expression.op, str):'
p3304
sI1050
S'                return expression.op()'
p3305
ssg3007
S'(self=<gluon.dal.SQLiteAdapter object>, expression=<gluon.dal.Query object>, field_type=None)'
p3306
sg3009
g3221
sa(dp3307
g2986
S'/usr/lib/pymodules/python2.7/gluon/dal.py'
p3308
sg2988
(dp3309
S'self'
p3310
S'<gluon.dal.SQLiteAdapter object>'
p3311
sS'first'
p3312
S'<gluon.dal.Query object>'
p3313
sS'second'
p3314
S'<gluon.dal.Query object>'
p3315
sS'self.expand'
p3316
S'<bound method SQLiteAdapter.expand of <gluon.dal.SQLiteAdapter object>>'
p3317
ssg2994
I946
sg2995
(dp3318
I941
S''
sI942
S'    def NOT(self, first):'
p3319
sI943
S"        return '(NOT %s)' % self.expand(first)"
p3320
sI944
S''
sI945
S'    def AND(self, first, second):'
p3321
sI946
S"        return '(%s AND %s)' % (self.expand(first), self.expand(second))"
p3322
sI947
S''
sI948
S'    def OR(self, first, second):'
p3323
sI949
S"        return '(%s OR %s)' % (self.expand(first), self.expand(second))"
p3324
sI950
S''
ssg3007
S'(self=<gluon.dal.SQLiteAdapter object>, first=<gluon.dal.Query object>, second=<gluon.dal.Query object>)'
p3325
sg3009
g3241
sa(dp3326
g2986
S'/usr/lib/pymodules/python2.7/gluon/dal.py'
p3327
sg2988
(dp3328
S'expression.op'
p3329
S'<bound method SQLiteAdapter.GE of <gluon.dal.SQLiteAdapter object>>'
p3330
sS'expression'
p3331
S'<gluon.dal.Query object>'
p3332
sS'expression.first'
p3333
S'<gluon.dal.Field object>'
p3334
ssg2994
I1048
sg2995
(dp3335
I1043
S'            return str(expression)'
p3336
sI1044
S'        elif isinstance(expression, (Expression, Query)):'
p3337
sI1045
S'            if not expression.second is None:'
p3338
sI1046
S'                return expression.op(expression.first, expression.second)'
p3339
sI1047
S'            elif not expression.first is None:'
p3340
sI1048
S'                return expression.op(expression.first)'
p3341
sI1049
S'            elif not isinstance(expression.op, str):'
p3342
sI1050
S'                return expression.op()'
p3343
sI1051
S'            else:'
p3344
sI1052
S"                return '(%s)' % expression.op"
p3345
ssg3007
S'(self=<gluon.dal.SQLiteAdapter object>, expression=<gluon.dal.Query object>, field_type=None)'
p3346
sg3009
g3221
sa(dp3347
g2986
S'/usr/lib/pymodules/python2.7/gluon/dal.py'
p3348
sg2988
(dp3349
S'builtinRuntimeError'
p3350
S"<type 'exceptions.RuntimeError'>"
p3351
sS'first'
p3352
S'<gluon.dal.Field object>'
p3353
ssg2994
I1011
sg2995
(dp3354
I1006
S'            raise RuntimeError, "Cannot compare %s > None" % first'
p3355
sI1007
S"        return '(%s > %s)' % (self.expand(first),self.expand(second,first.type))"
p3356
sI1008
S''
sI1009
S'    def GE(self,first,second=None):'
p3357
sI1010
S'        if second is None:'
p3358
sI1011
S'            raise RuntimeError, "Cannot compare %s >= None" % first'
p3359
sI1012
S"        return '(%s >= %s)' % (self.expand(first),self.expand(second,first.type))"
p3360
sI1013
S''
sI1014
S'    def ADD(self, first, second):'
p3361
sI1015
S"        return '(%s + %s)' % (self.expand(first), self.expand(second, first.type))"
p3362
ssg3007
S'(self=<gluon.dal.SQLiteAdapter object>, first=<gluon.dal.Field object>, second=None)'
p3363
sg3009
S'GE'
p3364
sasS'pyver'
p3365
S'Python 2.7.6: /usr/bin/python'
p3366
sS'session'
p3367
g57
(g58
g59
NtRp3368
(dp3369
g62
(dp3370
sg64
(lp3371
g57
(g66
g59
NtRp3372
(dp3373
g62
(dp3374
g70
I5
ssg71
Nsg64
(lp3375
g57
(g73
g59
NtRp3376
(dp3377
g62
(dp3378
sg71
g3372
sg64
(lp3379
g57
(g78
g59
NtRp3380
(dp3381
g62
(dp3382
g82
g83
ssg71
g3376
sg64
(lp3383
S'auth'
p3384
asbag57
(g78
g59
NtRp3385
(dp3386
g62
(dp3387
g89
g90
ssg71
g3376
sg64
(lp3388
S':'
asbag57
(g78
g59
NtRp3389
(dp3390
g62
(dp3391
sg71
g3376
sg64
(lp3392
g57
(g58
g59
NtRp3393
(dp3394
g62
(dp3395
g70
I5
ssg71
g3389
sg64
(lp3396
g57
(g66
g59
NtRp3397
(dp3398
g62
(dp3399
g70
I4
ssg71
Nsg64
(lp3400
g57
(g73
g59
NtRp3401
(dp3402
g62
(dp3403
sg71
g3397
sg64
(lp3404
g57
(g78
g59
NtRp3405
(dp3406
g62
(dp3407
g82
g83
ssg71
g3401
sg64
(lp3408
S'expiration'
p3409
asbag57
(g78
g59
NtRp3410
(dp3411
g62
(dp3412
g89
g90
ssg71
g3401
sg64
(lp3413
S':'
asbag57
(g78
g59
NtRp3414
(dp3415
g62
(dp3416
sg71
g3401
sg64
(lp3417
g57
(g58
g59
NtRp3418
(dp3419
g62
(dp3420
g70
I4
ssg71
g3414
sg64
(lp3421
S'3600'
p3422
asbasbasbag57
(g73
g59
NtRp3423
(dp3424
g62
(dp3425
sg71
g3397
sg64
(lp3426
g57
(g78
g59
NtRp3427
(dp3428
g62
(dp3429
g82
g83
ssg71
g3423
sg64
(lp3430
S'hmac_key'
p3431
asbag57
(g78
g59
NtRp3432
(dp3433
g62
(dp3434
g89
g90
ssg71
g3423
sg64
(lp3435
S':'
asbag57
(g78
g59
NtRp3436
(dp3437
g62
(dp3438
sg71
g3423
sg64
(lp3439
g57
(g58
g59
NtRp3440
(dp3441
g62
(dp3442
g70
I4
ssg71
g3436
sg64
(lp3443
S'807aef99-3935-41c9-b7b4-77e5865b3ca8'
p3444
asbasbasbag57
(g73
g59
NtRp3445
(dp3446
g62
(dp3447
sg71
g3397
sg64
(lp3448
g57
(g78
g59
NtRp3449
(dp3450
g62
(dp3451
g82
g83
ssg71
g3445
sg64
(lp3452
S'last_visit'
p3453
asbag57
(g78
g59
NtRp3454
(dp3455
g62
(dp3456
g89
g90
ssg71
g3445
sg64
(lp3457
S':'
asbag57
(g78
g59
NtRp3458
(dp3459
g62
(dp3460
sg71
g3445
sg64
(lp3461
g57
(g58
g59
NtRp3462
(dp3463
g62
(dp3464
g70
I4
ssg71
g3458
sg64
(lp3465
S'datetime.datetime(2015, 11, 16, 3, 1, 12, 510104)'
p3466
asbasbasbag57
(g73
g59
NtRp3467
(dp3468
g62
(dp3469
sg71
g3397
sg64
(lp3470
g57
(g78
g59
NtRp3471
(dp3472
g62
(dp3473
g82
g83
ssg71
g3467
sg64
(lp3474
S'remember'
p3475
asbag57
(g78
g59
NtRp3476
(dp3477
g62
(dp3478
g89
g90
ssg71
g3467
sg64
(lp3479
S':'
asbag57
(g78
g59
NtRp3480
(dp3481
g62
(dp3482
sg71
g3467
sg64
(lp3483
g57
(g58
g59
NtRp3484
(dp3485
g62
(dp3486
g70
I4
ssg71
g3480
sg64
(lp3487
g100
asbasbasbag57
(g73
g59
NtRp3488
(dp3489
g62
(dp3490
sg71
g3397
sg64
(lp3491
g57
(g78
g59
NtRp3492
(dp3493
g62
(dp3494
g82
g83
ssg71
g3488
sg64
(lp3495
S'user'
p3496
asbag57
(g78
g59
NtRp3497
(dp3498
g62
(dp3499
g89
g90
ssg71
g3488
sg64
(lp3500
S':'
asbag57
(g78
g59
NtRp3501
(dp3502
g62
(dp3503
sg71
g3488
sg64
(lp3504
g57
(g58
g59
NtRp3505
(dp3506
g62
(dp3507
g70
I4
ssg71
g3501
sg64
(lp3508
g57
(g66
g59
NtRp3509
(dp3510
g62
(dp3511
g70
I3
ssg71
Nsg64
(lp3512
g57
(g73
g59
NtRp3513
(dp3514
g62
(dp3515
sg71
g3509
sg64
(lp3516
g57
(g78
g59
NtRp3517
(dp3518
g62
(dp3519
g82
g83
ssg71
g3513
sg64
(lp3520
S'email'
p3521
asbag57
(g78
g59
NtRp3522
(dp3523
g62
(dp3524
g89
g90
ssg71
g3513
sg64
(lp3525
S':'
asbag57
(g78
g59
NtRp3526
(dp3527
g62
(dp3528
sg71
g3513
sg64
(lp3529
g57
(g58
g59
NtRp3530
(dp3531
g62
(dp3532
g70
I3
ssg71
g3526
sg64
(lp3533
S'sharma.mohit@students.iiit.ac.in'
p3534
asbasbasbag57
(g73
g59
NtRp3535
(dp3536
g62
(dp3537
sg71
g3509
sg64
(lp3538
g57
(g78
g59
NtRp3539
(dp3540
g62
(dp3541
g82
g83
ssg71
g3535
sg64
(lp3542
S'first_name'
p3543
asbag57
(g78
g59
NtRp3544
(dp3545
g62
(dp3546
g89
g90
ssg71
g3535
sg64
(lp3547
S':'
asbag57
(g78
g59
NtRp3548
(dp3549
g62
(dp3550
sg71
g3535
sg64
(lp3551
g57
(g58
g59
NtRp3552
(dp3553
g62
(dp3554
g70
I3
ssg71
g3548
sg64
(lp3555
S'Mohit'
p3556
asbasbasbag57
(g73
g59
NtRp3557
(dp3558
g62
(dp3559
sg71
g3509
sg64
(lp3560
g57
(g78
g59
NtRp3561
(dp3562
g62
(dp3563
g82
g83
ssg71
g3557
sg64
(lp3564
S'id'
p3565
asbag57
(g78
g59
NtRp3566
(dp3567
g62
(dp3568
g89
g90
ssg71
g3557
sg64
(lp3569
S':'
asbag57
(g78
g59
NtRp3570
(dp3571
g62
(dp3572
sg71
g3557
sg64
(lp3573
g57
(g58
g59
NtRp3574
(dp3575
g62
(dp3576
g70
I3
ssg71
g3570
sg64
(lp3577
S'1'
asbasbasbag57
(g73
g59
NtRp3578
(dp3579
g62
(dp3580
sg71
g3509
sg64
(lp3581
g57
(g78
g59
NtRp3582
(dp3583
g62
(dp3584
g82
g83
ssg71
g3578
sg64
(lp3585
S'last_name'
p3586
asbag57
(g78
g59
NtRp3587
(dp3588
g62
(dp3589
g89
g90
ssg71
g3578
sg64
(lp3590
S':'
asbag57
(g78
g59
NtRp3591
(dp3592
g62
(dp3593
sg71
g3578
sg64
(lp3594
g57
(g58
g59
NtRp3595
(dp3596
g62
(dp3597
g70
I3
ssg71
g3591
sg64
(lp3598
S'Sharma'
p3599
asbasbasbag57
(g73
g59
NtRp3600
(dp3601
g62
(dp3602
sg71
g3509
sg64
(lp3603
g57
(g78
g59
NtRp3604
(dp3605
g62
(dp3606
g82
g83
ssg71
g3600
sg64
(lp3607
S'password'
p3608
asbag57
(g78
g59
NtRp3609
(dp3610
g62
(dp3611
g89
g90
ssg71
g3600
sg64
(lp3612
S':'
asbag57
(g78
g59
NtRp3613
(dp3614
g62
(dp3615
sg71
g3600
sg64
(lp3616
g57
(g58
g59
NtRp3617
(dp3618
g62
(dp3619
g70
I3
ssg71
g3613
sg64
(lp3620
S'2f5ec7b5464f877683a0b98ae667f279'
p3621
asbasbasbag57
(g73
g59
NtRp3622
(dp3623
g62
(dp3624
sg71
g3509
sg64
(lp3625
g57
(g78
g59
NtRp3626
(dp3627
g62
(dp3628
g82
g83
ssg71
g3622
sg64
(lp3629
S'registration_id'
p3630
asbag57
(g78
g59
NtRp3631
(dp3632
g62
(dp3633
g89
g90
ssg71
g3622
sg64
(lp3634
S':'
asbag57
(g78
g59
NtRp3635
(dp3636
g62
(dp3637
sg71
g3622
sg64
(lp3638
g57
(g58
g59
NtRp3639
(dp3640
g62
(dp3641
g70
I3
ssg71
g3635
sg64
(lp3642
S''
asbasbasbag57
(g73
g59
NtRp3643
(dp3644
g62
(dp3645
sg71
g3509
sg64
(lp3646
g57
(g78
g59
NtRp3647
(dp3648
g62
(dp3649
g82
g83
ssg71
g3643
sg64
(lp3650
S'registration_key'
p3651
asbag57
(g78
g59
NtRp3652
(dp3653
g62
(dp3654
g89
g90
ssg71
g3643
sg64
(lp3655
S':'
asbag57
(g78
g59
NtRp3656
(dp3657
g62
(dp3658
sg71
g3643
sg64
(lp3659
g57
(g58
g59
NtRp3660
(dp3661
g62
(dp3662
g70
I3
ssg71
g3656
sg64
(lp3663
S''
asbasbasbag57
(g73
g59
NtRp3664
(dp3665
g62
(dp3666
sg71
g3509
sg64
(lp3667
g57
(g78
g59
NtRp3668
(dp3669
g62
(dp3670
g82
g83
ssg71
g3664
sg64
(lp3671
S'reset_password_key'
p3672
asbag57
(g78
g59
NtRp3673
(dp3674
g62
(dp3675
g89
g90
ssg71
g3664
sg64
(lp3676
S':'
asbag57
(g78
g59
NtRp3677
(dp3678
g62
(dp3679
sg71
g3664
sg64
(lp3680
g57
(g58
g59
NtRp3681
(dp3682
g62
(dp3683
g70
I3
ssg71
g3677
sg64
(lp3684
S''
asbasbasbasbasbasbasbag57
(g73
g59
NtRp3685
(dp3686
g62
(dp3687
sg71
g3397
sg64
(lp3688
g57
(g78
g59
NtRp3689
(dp3690
g62
(dp3691
g82
g83
ssg71
g3685
sg64
(lp3692
S'user_groups'
p3693
asbag57
(g78
g59
NtRp3694
(dp3695
g62
(dp3696
g89
g90
ssg71
g3685
sg64
(lp3697
S':'
asbag57
(g78
g59
NtRp3698
(dp3699
g62
(dp3700
sg71
g3685
sg64
(lp3701
g57
(g58
g59
NtRp3702
(dp3703
g62
(dp3704
g70
I4
ssg71
g3698
sg64
(lp3705
g57
(g66
g59
NtRp3706
(dp3707
g62
(dp3708
g70
I3
ssg71
Nsg64
(lp3709
g57
(g73
g59
NtRp3710
(dp3711
g62
(dp3712
sg71
g3706
sg64
(lp3713
g57
(g78
g59
NtRp3714
(dp3715
g62
(dp3716
g82
g83
ssg71
g3710
sg64
(lp3717
S'1'
asbag57
(g78
g59
NtRp3718
(dp3719
g62
(dp3720
g89
g90
ssg71
g3710
sg64
(lp3721
S':'
asbag57
(g78
g59
NtRp3722
(dp3723
g62
(dp3724
sg71
g3710
sg64
(lp3725
g57
(g58
g59
NtRp3726
(dp3727
g62
(dp3728
g70
I3
ssg71
g3722
sg64
(lp3729
S'user_1'
p3730
asbasbasbag57
(g73
g59
NtRp3731
(dp3732
g62
(dp3733
sg71
g3706
sg64
(lp3734
g57
(g78
g59
NtRp3735
(dp3736
g62
(dp3737
g82
g83
ssg71
g3731
sg64
(lp3738
S'2'
asbag57
(g78
g59
NtRp3739
(dp3740
g62
(dp3741
g89
g90
ssg71
g3731
sg64
(lp3742
S':'
asbag57
(g78
g59
NtRp3743
(dp3744
g62
(dp3745
sg71
g3731
sg64
(lp3746
g57
(g58
g59
NtRp3747
(dp3748
g62
(dp3749
g70
I3
ssg71
g3743
sg64
(lp3750
S'security'
p3751
asbasbasbasbasbasbasbasbasbasbasbag57
(g73
g59
NtRp3752
(dp3753
g62
(dp3754
sg71
g3372
sg64
(lp3755
g57
(g78
g59
NtRp3756
(dp3757
g62
(dp3758
g82
g83
ssg71
g3752
sg64
(lp3759
S'last_query'
p3760
asbag57
(g78
g59
NtRp3761
(dp3762
g62
(dp3763
g89
g90
ssg71
g3752
sg64
(lp3764
S':'
asbag57
(g78
g59
NtRp3765
(dp3766
g62
(dp3767
sg71
g3752
sg64
(lp3768
g57
(g58
g59
NtRp3769
(dp3770
g62
(dp3771
g70
I5
ssg71
g3765
sg64
(lp3772
S'db.auth_cas.id>0'
p3773
asbasbasbasbasbsS'etype'
p3774
S"<type 'exceptions.RuntimeError'>"
p3775
sS'date'
p3776
S'Mon Nov 16 03:02:18 2015'
p3777
sS'response'
p3778
g57
(g58
g59
NtRp3779
(dp3780
g62
(dp3781
sg64
(lp3782
g57
(g66
g59
NtRp3783
(dp3784
g62
(dp3785
g70
I5
ssg71
Nsg64
(lp3786
g57
(g73
g59
NtRp3787
(dp3788
g62
(dp3789
sg71
g3783
sg64
(lp3790
g57
(g78
g59
NtRp3791
(dp3792
g62
(dp3793
g82
g83
ssg71
g3787
sg64
(lp3794
g155
asbag57
(g78
g59
NtRp3795
(dp3796
g62
(dp3797
g89
g90
ssg71
g3787
sg64
(lp3798
S':'
asbag57
(g78
g59
NtRp3799
(dp3800
g62
(dp3801
sg71
g3787
sg64
(lp3802
g57
(g58
g59
NtRp3803
(dp3804
g62
(dp3805
g70
I5
ssg71
g3799
sg64
(lp3806
S'<cStringIO.StringO object at 0x7fa6c7f416f8>'
p3807
asbasbasbag57
(g73
g59
NtRp3808
(dp3809
g62
(dp3810
sg71
g3783
sg64
(lp3811
g57
(g78
g59
NtRp3812
(dp3813
g62
(dp3814
g82
g83
ssg71
g3808
sg64
(lp3815
g221
asbag57
(g78
g59
NtRp3816
(dp3817
g62
(dp3818
g89
g90
ssg71
g3808
sg64
(lp3819
S':'
asbag57
(g78
g59
NtRp3820
(dp3821
g62
(dp3822
sg71
g3808
sg64
(lp3823
g57
(g58
g59
NtRp3824
(dp3825
g62
(dp3826
g70
I5
ssg71
g3820
sg64
(lp3827
g57
(g66
g59
NtRp3828
(dp3829
g62
(dp3830
g70
I4
ssg71
Nsg64
(lp3831
g57
(g73
g59
NtRp3832
(dp3833
g62
(dp3834
sg71
g3828
sg64
(lp3835
g57
(g78
g59
NtRp3836
(dp3837
g62
(dp3838
g82
g83
ssg71
g3832
sg64
(lp3839
S'session_id_iiitcourier'
p3840
asbag57
(g78
g59
NtRp3841
(dp3842
g62
(dp3843
g89
g90
ssg71
g3832
sg64
(lp3844
S':'
asbag57
(g78
g59
NtRp3845
(dp3846
g62
(dp3847
sg71
g3832
sg64
(lp3848
g57
(g58
g59
NtRp3849
(dp3850
g62
(dp3851
g70
I4
ssg71
g3845
sg64
(lp3852
g57
(g66
g59
NtRp3853
(dp3854
g62
(dp3855
g70
I3
ssg71
Nsg64
(lp3856
g57
(g73
g59
NtRp3857
(dp3858
g62
(dp3859
sg71
g3853
sg64
(lp3860
g57
(g78
g59
NtRp3861
(dp3862
g62
(dp3863
g82
g83
ssg71
g3857
sg64
(lp3864
g271
asbag57
(g78
g59
NtRp3865
(dp3866
g62
(dp3867
g89
g90
ssg71
g3857
sg64
(lp3868
S':'
asbag57
(g78
g59
NtRp3869
(dp3870
g62
(dp3871
sg71
g3857
sg64
(lp3872
g57
(g58
g59
NtRp3873
(dp3874
g62
(dp3875
g70
I3
ssg71
g3869
sg64
(lp3876
S''
asbasbasbag57
(g73
g59
NtRp3877
(dp3878
g62
(dp3879
sg71
g3853
sg64
(lp3880
g57
(g78
g59
NtRp3881
(dp3882
g62
(dp3883
g82
g83
ssg71
g3877
sg64
(lp3884
g292
asbag57
(g78
g59
NtRp3885
(dp3886
g62
(dp3887
g89
g90
ssg71
g3877
sg64
(lp3888
S':'
asbag57
(g78
g59
NtRp3889
(dp3890
g62
(dp3891
sg71
g3877
sg64
(lp3892
g57
(g58
g59
NtRp3893
(dp3894
g62
(dp3895
g70
I3
ssg71
g3889
sg64
(lp3896
S''
asbasbasbag57
(g73
g59
NtRp3897
(dp3898
g62
(dp3899
sg71
g3853
sg64
(lp3900
g57
(g78
g59
NtRp3901
(dp3902
g62
(dp3903
g82
g83
ssg71
g3897
sg64
(lp3904
g313
asbag57
(g78
g59
NtRp3905
(dp3906
g62
(dp3907
g89
g90
ssg71
g3897
sg64
(lp3908
S':'
asbag57
(g78
g59
NtRp3909
(dp3910
g62
(dp3911
sg71
g3897
sg64
(lp3912
g57
(g58
g59
NtRp3913
(dp3914
g62
(dp3915
g70
I3
ssg71
g3909
sg64
(lp3916
S''
asbasbasbag57
(g73
g59
NtRp3917
(dp3918
g62
(dp3919
sg71
g3853
sg64
(lp3920
g57
(g78
g59
NtRp3921
(dp3922
g62
(dp3923
g82
g83
ssg71
g3917
sg64
(lp3924
g334
asbag57
(g78
g59
NtRp3925
(dp3926
g62
(dp3927
g89
g90
ssg71
g3917
sg64
(lp3928
S':'
asbag57
(g78
g59
NtRp3929
(dp3930
g62
(dp3931
sg71
g3917
sg64
(lp3932
g57
(g58
g59
NtRp3933
(dp3934
g62
(dp3935
g70
I3
ssg71
g3929
sg64
(lp3936
S''
asbasbasbag57
(g73
g59
NtRp3937
(dp3938
g62
(dp3939
sg71
g3853
sg64
(lp3940
g57
(g78
g59
NtRp3941
(dp3942
g62
(dp3943
g82
g83
ssg71
g3937
sg64
(lp3944
g355
asbag57
(g78
g59
NtRp3945
(dp3946
g62
(dp3947
g89
g90
ssg71
g3937
sg64
(lp3948
S':'
asbag57
(g78
g59
NtRp3949
(dp3950
g62
(dp3951
sg71
g3937
sg64
(lp3952
g57
(g58
g59
NtRp3953
(dp3954
g62
(dp3955
g70
I3
ssg71
g3949
sg64
(lp3956
S''
asbasbasbag57
(g73
g59
NtRp3957
(dp3958
g62
(dp3959
sg71
g3853
sg64
(lp3960
g57
(g78
g59
NtRp3961
(dp3962
g62
(dp3963
g82
g83
ssg71
g3957
sg64
(lp3964
g376
asbag57
(g78
g59
NtRp3965
(dp3966
g62
(dp3967
g89
g90
ssg71
g3957
sg64
(lp3968
S':'
asbag57
(g78
g59
NtRp3969
(dp3970
g62
(dp3971
sg71
g3957
sg64
(lp3972
g57
(g58
g59
NtRp3973
(dp3974
g62
(dp3975
g70
I3
ssg71
g3969
sg64
(lp3976
S'/'
asbasbasbag57
(g73
g59
NtRp3977
(dp3978
g62
(dp3979
sg71
g3853
sg64
(lp3980
g57
(g78
g59
NtRp3981
(dp3982
g62
(dp3983
g82
g83
ssg71
g3977
sg64
(lp3984
g397
asbag57
(g78
g59
NtRp3985
(dp3986
g62
(dp3987
g89
g90
ssg71
g3977
sg64
(lp3988
S':'
asbag57
(g78
g59
NtRp3989
(dp3990
g62
(dp3991
sg71
g3977
sg64
(lp3992
g57
(g58
g59
NtRp3993
(dp3994
g62
(dp3995
g70
I3
ssg71
g3989
sg64
(lp3996
S''
asbasbasbag57
(g73
g59
NtRp3997
(dp3998
g62
(dp3999
sg71
g3853
sg64
(lp4000
g57
(g78
g59
NtRp4001
(dp4002
g62
(dp4003
g82
g83
ssg71
g3997
sg64
(lp4004
g418
asbag57
(g78
g59
NtRp4005
(dp4006
g62
(dp4007
g89
g90
ssg71
g3997
sg64
(lp4008
S':'
asbag57
(g78
g59
NtRp4009
(dp4010
g62
(dp4011
sg71
g3997
sg64
(lp4012
g57
(g58
g59
NtRp4013
(dp4014
g62
(dp4015
g70
I3
ssg71
g4009
sg64
(lp4016
S''
asbasbasbasbasbasbasbasbasbasbasbag57
(g73
g59
NtRp4017
(dp4018
g62
(dp4019
sg71
g3783
sg64
(lp4020
g57
(g78
g59
NtRp4021
(dp4022
g62
(dp4023
g82
g83
ssg71
g4017
sg64
(lp4024
S'delimiters'
p4025
asbag57
(g78
g59
NtRp4026
(dp4027
g62
(dp4028
g89
g90
ssg71
g4017
sg64
(lp4029
S':'
asbag57
(g78
g59
NtRp4030
(dp4031
g62
(dp4032
sg71
g4017
sg64
(lp4033
g57
(g58
g59
NtRp4034
(dp4035
g62
(dp4036
g70
I5
ssg71
g4030
sg64
(lp4037
g57
(g66
g59
NtRp4038
(dp4039
g62
(dp4040
g70
I4
ssg71
Nsg64
(lp4041
g57
(g73
g59
NtRp4042
(dp4043
g62
(dp4044
sg71
g4038
sg64
(lp4045
g57
(g78
g59
NtRp4046
(dp4047
g62
(dp4048
sg71
g4042
sg64
(lp4049
g57
(g58
g59
NtRp4050
(dp4051
g62
(dp4052
g70
I4
ssg71
g4046
sg64
(lp4053
S'{{'
p4054
asbasbasbag57
(g73
g59
NtRp4055
(dp4056
g62
(dp4057
sg71
g4038
sg64
(lp4058
g57
(g78
g59
NtRp4059
(dp4060
g62
(dp4061
sg71
g4055
sg64
(lp4062
g57
(g58
g59
NtRp4063
(dp4064
g62
(dp4065
g70
I4
ssg71
g4059
sg64
(lp4066
S'}}'
p4067
asbasbasbasbasbasbasbag57
(g73
g59
NtRp4068
(dp4069
g62
(dp4070
sg71
g3783
sg64
(lp4071
g57
(g78
g59
NtRp4072
(dp4073
g62
(dp4074
g82
g83
ssg71
g4068
sg64
(lp4075
S'files'
p4076
asbag57
(g78
g59
NtRp4077
(dp4078
g62
(dp4079
g89
g90
ssg71
g4068
sg64
(lp4080
S':'
asbag57
(g78
g59
NtRp4081
(dp4082
g62
(dp4083
sg71
g4068
sg64
(lp4084
g57
(g58
g59
NtRp4085
(dp4086
g62
(dp4087
g70
I5
ssg71
g4081
sg64
(lp4088
g57
(g66
g59
NtRp4089
(dp4090
g62
(dp4091
g70
I4
ssg71
Nsg64
(lp4092
sbasbasbasbag57
(g73
g59
NtRp4093
(dp4094
g62
(dp4095
sg71
g3783
sg64
(lp4096
g57
(g78
g59
NtRp4097
(dp4098
g62
(dp4099
g82
g83
ssg71
g4093
sg64
(lp4100
S'flash'
p4101
asbag57
(g78
g59
NtRp4102
(dp4103
g62
(dp4104
g89
g90
ssg71
g4093
sg64
(lp4105
S':'
asbag57
(g78
g59
NtRp4106
(dp4107
g62
(dp4108
sg71
g4093
sg64
(lp4109
g57
(g58
g59
NtRp4110
(dp4111
g62
(dp4112
g70
I5
ssg71
g4106
sg64
(lp4113
S''
asbasbasbag57
(g73
g59
NtRp4114
(dp4115
g62
(dp4116
sg71
g3783
sg64
(lp4117
g57
(g78
g59
NtRp4118
(dp4119
g62
(dp4120
g82
g83
ssg71
g4114
sg64
(lp4121
S'generic_patterns'
p4122
asbag57
(g78
g59
NtRp4123
(dp4124
g62
(dp4125
g89
g90
ssg71
g4114
sg64
(lp4126
S':'
asbag57
(g78
g59
NtRp4127
(dp4128
g62
(dp4129
sg71
g4114
sg64
(lp4130
g57
(g58
g59
NtRp4131
(dp4132
g62
(dp4133
g70
I5
ssg71
g4127
sg64
(lp4134
g57
(g66
g59
NtRp4135
(dp4136
g62
(dp4137
g70
I4
ssg71
Nsg64
(lp4138
g57
(g73
g59
NtRp4139
(dp4140
g62
(dp4141
sg71
g4135
sg64
(lp4142
g57
(g78
g59
NtRp4143
(dp4144
g62
(dp4145
sg71
g4139
sg64
(lp4146
g57
(g58
g59
NtRp4147
(dp4148
g62
(dp4149
g70
I4
ssg71
g4143
sg64
(lp4150
S'*'
asbasbasbasbasbasbasbag57
(g73
g59
NtRp4151
(dp4152
g62
(dp4153
sg71
g3783
sg64
(lp4154
g57
(g78
g59
NtRp4155
(dp4156
g62
(dp4157
g82
g83
ssg71
g4151
sg64
(lp4158
S'headers'
p4159
asbag57
(g78
g59
NtRp4160
(dp4161
g62
(dp4162
g89
g90
ssg71
g4151
sg64
(lp4163
S':'
asbag57
(g78
g59
NtRp4164
(dp4165
g62
(dp4166
sg71
g4151
sg64
(lp4167
g57
(g58
g59
NtRp4168
(dp4169
g62
(dp4170
g70
I5
ssg71
g4164
sg64
(lp4171
g57
(g66
g59
NtRp4172
(dp4173
g62
(dp4174
g70
I4
ssg71
Nsg64
(lp4175
g57
(g73
g59
NtRp4176
(dp4177
g62
(dp4178
sg71
g4172
sg64
(lp4179
g57
(g78
g59
NtRp4180
(dp4181
g62
(dp4182
g82
g83
ssg71
g4176
sg64
(lp4183
S'Cache-Control'
p4184
asbag57
(g78
g59
NtRp4185
(dp4186
g62
(dp4187
g89
g90
ssg71
g4176
sg64
(lp4188
S':'
asbag57
(g78
g59
NtRp4189
(dp4190
g62
(dp4191
sg71
g4176
sg64
(lp4192
g57
(g58
g59
NtRp4193
(dp4194
g62
(dp4195
g70
I4
ssg71
g4189
sg64
(lp4196
S'no-store, no-cache, must-revalidate, post-check=0, pre-check=0'
p4197
asbasbasbag57
(g73
g59
NtRp4198
(dp4199
g62
(dp4200
sg71
g4172
sg64
(lp4201
g57
(g78
g59
NtRp4202
(dp4203
g62
(dp4204
g82
g83
ssg71
g4198
sg64
(lp4205
S'Content-Type'
p4206
asbag57
(g78
g59
NtRp4207
(dp4208
g62
(dp4209
g89
g90
ssg71
g4198
sg64
(lp4210
S':'
asbag57
(g78
g59
NtRp4211
(dp4212
g62
(dp4213
sg71
g4198
sg64
(lp4214
g57
(g58
g59
NtRp4215
(dp4216
g62
(dp4217
g70
I4
ssg71
g4211
sg64
(lp4218
S'text/html; charset=utf-8'
p4219
asbasbasbag57
(g73
g59
NtRp4220
(dp4221
g62
(dp4222
sg71
g4172
sg64
(lp4223
g57
(g78
g59
NtRp4224
(dp4225
g62
(dp4226
g82
g83
ssg71
g4220
sg64
(lp4227
S'Expires'
p4228
asbag57
(g78
g59
NtRp4229
(dp4230
g62
(dp4231
g89
g90
ssg71
g4220
sg64
(lp4232
S':'
asbag57
(g78
g59
NtRp4233
(dp4234
g62
(dp4235
sg71
g4220
sg64
(lp4236
g57
(g58
g59
NtRp4237
(dp4238
g62
(dp4239
g70
I4
ssg71
g4233
sg64
(lp4240
S'Sun, 15 Nov 2015 21:32:18 GMT'
p4241
asbasbasbag57
(g73
g59
NtRp4242
(dp4243
g62
(dp4244
sg71
g4172
sg64
(lp4245
g57
(g78
g59
NtRp4246
(dp4247
g62
(dp4248
g82
g83
ssg71
g4242
sg64
(lp4249
S'Pragma'
p4250
asbag57
(g78
g59
NtRp4251
(dp4252
g62
(dp4253
g89
g90
ssg71
g4242
sg64
(lp4254
S':'
asbag57
(g78
g59
NtRp4255
(dp4256
g62
(dp4257
sg71
g4242
sg64
(lp4258
g57
(g58
g59
NtRp4259
(dp4260
g62
(dp4261
g70
I4
ssg71
g4255
sg64
(lp4262
S'no-cache'
p4263
asbasbasbag57
(g73
g59
NtRp4264
(dp4265
g62
(dp4266
sg71
g4172
sg64
(lp4267
g57
(g78
g59
NtRp4268
(dp4269
g62
(dp4270
g82
g83
ssg71
g4264
sg64
(lp4271
S'X-Powered-By'
p4272
asbag57
(g78
g59
NtRp4273
(dp4274
g62
(dp4275
g89
g90
ssg71
g4264
sg64
(lp4276
S':'
asbag57
(g78
g59
NtRp4277
(dp4278
g62
(dp4279
sg71
g4264
sg64
(lp4280
g57
(g58
g59
NtRp4281
(dp4282
g62
(dp4283
g70
I4
ssg71
g4277
sg64
(lp4284
S'web2py'
p4285
asbasbasbasbasbasbasbag57
(g73
g59
NtRp4286
(dp4287
g62
(dp4288
sg71
g3783
sg64
(lp4289
g57
(g78
g59
NtRp4290
(dp4291
g62
(dp4292
g82
g83
ssg71
g4286
sg64
(lp4293
S'menu'
p4294
asbag57
(g78
g59
NtRp4295
(dp4296
g62
(dp4297
g89
g90
ssg71
g4286
sg64
(lp4298
S':'
asbag57
(g78
g59
NtRp4299
(dp4300
g62
(dp4301
sg71
g4286
sg64
(lp4302
g57
(g58
g59
NtRp4303
(dp4304
g62
(dp4305
g70
I5
ssg71
g4299
sg64
(lp4306
g57
(g66
g59
NtRp4307
(dp4308
g62
(dp4309
g70
I4
ssg71
Nsg64
(lp4310
g57
(g73
g59
NtRp4311
(dp4312
g62
(dp4313
sg71
g4307
sg64
(lp4314
g57
(g78
g59
NtRp4315
(dp4316
g62
(dp4317
sg71
g4311
sg64
(lp4318
g57
(g58
g59
NtRp4319
(dp4320
g62
(dp4321
g70
I4
ssg71
g4315
sg64
(lp4322
g57
(g66
g59
NtRp4323
(dp4324
g62
(dp4325
g70
I3
ssg71
Nsg64
(lp4326
g57
(g73
g59
NtRp4327
(dp4328
g62
(dp4329
sg71
g4323
sg64
(lp4330
g57
(g78
g59
NtRp4331
(dp4332
g62
(dp4333
sg71
g4327
sg64
(lp4334
g57
(g58
g59
NtRp4335
(dp4336
g62
(dp4337
g70
I3
ssg71
g4331
sg64
(lp4338
cgluon.languages
lazyT_unpickle
p4339
(S't\x04\x00\x00\x00Home'
tRp4340
asbasbasbag57
(g73
g59
NtRp4341
(dp4342
g62
(dp4343
sg71
g4323
sg64
(lp4344
g57
(g78
g59
NtRp4345
(dp4346
g62
(dp4347
sg71
g4341
sg64
(lp4348
g57
(g58
g59
NtRp4349
(dp4350
g62
(dp4351
g70
I3
ssg71
g4345
sg64
(lp4352
g100
asbasbasbag57
(g73
g59
NtRp4353
(dp4354
g62
(dp4355
sg71
g4323
sg64
(lp4356
g57
(g78
g59
NtRp4357
(dp4358
g62
(dp4359
sg71
g4353
sg64
(lp4360
g57
(g58
g59
NtRp4361
(dp4362
g62
(dp4363
g70
I3
ssg71
g4357
sg64
(lp4364
S'/IIITCourier/default/index'
p4365
asbasbasbag57
(g73
g59
NtRp4366
(dp4367
g62
(dp4368
sg71
g4323
sg64
(lp4369
g57
(g78
g59
NtRp4370
(dp4371
g62
(dp4372
sg71
g4366
sg64
(lp4373
g57
(g58
g59
NtRp4374
(dp4375
g62
(dp4376
g70
I3
ssg71
g4370
sg64
(lp4377
g57
(g66
g59
NtRp4378
(dp4379
g62
(dp4380
g70
I2
ssg71
Nsg64
(lp4381
sbasbasbasbasbasbasbasbasbasbasbasbag57
(g73
g59
NtRp4382
(dp4383
g62
(dp4384
sg71
g3783
sg64
(lp4385
g57
(g78
g59
NtRp4386
(dp4387
g62
(dp4388
g82
g83
ssg71
g4382
sg64
(lp4389
S'meta'
p4390
asbag57
(g78
g59
NtRp4391
(dp4392
g62
(dp4393
g89
g90
ssg71
g4382
sg64
(lp4394
S':'
asbag57
(g78
g59
NtRp4395
(dp4396
g62
(dp4397
sg71
g4382
sg64
(lp4398
g57
(g58
g59
NtRp4399
(dp4400
g62
(dp4401
g70
I5
ssg71
g4395
sg64
(lp4402
g57
(g66
g59
NtRp4403
(dp4404
g62
(dp4405
g70
I4
ssg71
Nsg64
(lp4406
g57
(g73
g59
NtRp4407
(dp4408
g62
(dp4409
sg71
g4403
sg64
(lp4410
g57
(g78
g59
NtRp4411
(dp4412
g62
(dp4413
g82
g83
ssg71
g4407
sg64
(lp4414
S'author'
p4415
asbag57
(g78
g59
NtRp4416
(dp4417
g62
(dp4418
g89
g90
ssg71
g4407
sg64
(lp4419
S':'
asbag57
(g78
g59
NtRp4420
(dp4421
g62
(dp4422
sg71
g4407
sg64
(lp4423
g57
(g58
g59
NtRp4424
(dp4425
g62
(dp4426
g70
I4
ssg71
g4420
sg64
(lp4427
S'Your Name <you@example.com>'
p4428
asbasbasbag57
(g73
g59
NtRp4429
(dp4430
g62
(dp4431
sg71
g4403
sg64
(lp4432
g57
(g78
g59
NtRp4433
(dp4434
g62
(dp4435
g82
g83
ssg71
g4429
sg64
(lp4436
S'copyright'
p4437
asbag57
(g78
g59
NtRp4438
(dp4439
g62
(dp4440
g89
g90
ssg71
g4429
sg64
(lp4441
S':'
asbag57
(g78
g59
NtRp4442
(dp4443
g62
(dp4444
sg71
g4429
sg64
(lp4445
g57
(g58
g59
NtRp4446
(dp4447
g62
(dp4448
g70
I4
ssg71
g4442
sg64
(lp4449
S'Copyright 2015'
p4450
asbasbasbag57
(g73
g59
NtRp4451
(dp4452
g62
(dp4453
sg71
g4403
sg64
(lp4454
g57
(g78
g59
NtRp4455
(dp4456
g62
(dp4457
g82
g83
ssg71
g4451
sg64
(lp4458
S'description'
p4459
asbag57
(g78
g59
NtRp4460
(dp4461
g62
(dp4462
g89
g90
ssg71
g4451
sg64
(lp4463
S':'
asbag57
(g78
g59
NtRp4464
(dp4465
g62
(dp4466
sg71
g4451
sg64
(lp4467
g57
(g58
g59
NtRp4468
(dp4469
g62
(dp4470
g70
I4
ssg71
g4464
sg64
(lp4471
S'a cool new app'
p4472
asbasbasbag57
(g73
g59
NtRp4473
(dp4474
g62
(dp4475
sg71
g4403
sg64
(lp4476
g57
(g78
g59
NtRp4477
(dp4478
g62
(dp4479
g82
g83
ssg71
g4473
sg64
(lp4480
S'generator'
p4481
asbag57
(g78
g59
NtRp4482
(dp4483
g62
(dp4484
g89
g90
ssg71
g4473
sg64
(lp4485
S':'
asbag57
(g78
g59
NtRp4486
(dp4487
g62
(dp4488
sg71
g4473
sg64
(lp4489
g57
(g58
g59
NtRp4490
(dp4491
g62
(dp4492
g70
I4
ssg71
g4486
sg64
(lp4493
S'Web2py Web Framework'
p4494
asbasbasbag57
(g73
g59
NtRp4495
(dp4496
g62
(dp4497
sg71
g4403
sg64
(lp4498
g57
(g78
g59
NtRp4499
(dp4500
g62
(dp4501
g82
g83
ssg71
g4495
sg64
(lp4502
S'keywords'
p4503
asbag57
(g78
g59
NtRp4504
(dp4505
g62
(dp4506
g89
g90
ssg71
g4495
sg64
(lp4507
S':'
asbag57
(g78
g59
NtRp4508
(dp4509
g62
(dp4510
sg71
g4495
sg64
(lp4511
g57
(g58
g59
NtRp4512
(dp4513
g62
(dp4514
g70
I4
ssg71
g4508
sg64
(lp4515
S'web2py, python, framework'
p4516
asbasbasbasbasbasbasbag57
(g73
g59
NtRp4517
(dp4518
g62
(dp4519
sg71
g3783
sg64
(lp4520
g57
(g78
g59
NtRp4521
(dp4522
g62
(dp4523
g82
g83
ssg71
g4517
sg64
(lp4524
S'postprocessing'
p4525
asbag57
(g78
g59
NtRp4526
(dp4527
g62
(dp4528
g89
g90
ssg71
g4517
sg64
(lp4529
S':'
asbag57
(g78
g59
NtRp4530
(dp4531
g62
(dp4532
sg71
g4517
sg64
(lp4533
g57
(g58
g59
NtRp4534
(dp4535
g62
(dp4536
g70
I5
ssg71
g4530
sg64
(lp4537
g57
(g66
g59
NtRp4538
(dp4539
g62
(dp4540
g70
I4
ssg71
Nsg64
(lp4541
sbasbasbasbag57
(g73
g59
NtRp4542
(dp4543
g62
(dp4544
sg71
g3783
sg64
(lp4545
g57
(g78
g59
NtRp4546
(dp4547
g62
(dp4548
g82
g83
ssg71
g4542
sg64
(lp4549
S'session_file'
p4550
asbag57
(g78
g59
NtRp4551
(dp4552
g62
(dp4553
g89
g90
ssg71
g4542
sg64
(lp4554
S':'
asbag57
(g78
g59
NtRp4555
(dp4556
g62
(dp4557
sg71
g4542
sg64
(lp4558
g57
(g58
g59
NtRp4559
(dp4560
g62
(dp4561
g70
I5
ssg71
g4555
sg64
(lp4562
S"<open file '/home/game_boy/web2py/applications/IIITCourier/sessions/127.0.0.1-d80de6ec-cf5d-4cf3-8d7c-fad6af1bba5b', mode 'rb+' at 0x7fa6c7b58660>"
p4563
asbasbasbag57
(g73
g59
NtRp4564
(dp4565
g62
(dp4566
sg71
g3783
sg64
(lp4567
g57
(g78
g59
NtRp4568
(dp4569
g62
(dp4570
g82
g83
ssg71
g4564
sg64
(lp4571
S'session_filename'
p4572
asbag57
(g78
g59
NtRp4573
(dp4574
g62
(dp4575
g89
g90
ssg71
g4564
sg64
(lp4576
S':'
asbag57
(g78
g59
NtRp4577
(dp4578
g62
(dp4579
sg71
g4564
sg64
(lp4580
g57
(g58
g59
NtRp4581
(dp4582
g62
(dp4583
g70
I5
ssg71
g4577
sg64
(lp4584
S'/home/game_boy/web2py/applications/IIITCourier/sessions/127.0.0.1-d80de6ec-cf5d-4cf3-8d7c-fad6af1bba5b'
p4585
asbasbasbag57
(g73
g59
NtRp4586
(dp4587
g62
(dp4588
sg71
g3783
sg64
(lp4589
g57
(g78
g59
NtRp4590
(dp4591
g62
(dp4592
g82
g83
ssg71
g4586
sg64
(lp4593
S'session_id'
p4594
asbag57
(g78
g59
NtRp4595
(dp4596
g62
(dp4597
g89
g90
ssg71
g4586
sg64
(lp4598
S':'
asbag57
(g78
g59
NtRp4599
(dp4600
g62
(dp4601
sg71
g4586
sg64
(lp4602
g57
(g58
g59
NtRp4603
(dp4604
g62
(dp4605
g70
I5
ssg71
g4599
sg64
(lp4606
S'127.0.0.1-d80de6ec-cf5d-4cf3-8d7c-fad6af1bba5b'
p4607
asbasbasbag57
(g73
g59
NtRp4608
(dp4609
g62
(dp4610
sg71
g3783
sg64
(lp4611
g57
(g78
g59
NtRp4612
(dp4613
g62
(dp4614
g82
g83
ssg71
g4608
sg64
(lp4615
S'session_id_name'
p4616
asbag57
(g78
g59
NtRp4617
(dp4618
g62
(dp4619
g89
g90
ssg71
g4608
sg64
(lp4620
S':'
asbag57
(g78
g59
NtRp4621
(dp4622
g62
(dp4623
sg71
g4608
sg64
(lp4624
g57
(g58
g59
NtRp4625
(dp4626
g62
(dp4627
g70
I5
ssg71
g4621
sg64
(lp4628
g3840
asbasbasbag57
(g73
g59
NtRp4629
(dp4630
g62
(dp4631
sg71
g3783
sg64
(lp4632
g57
(g78
g59
NtRp4633
(dp4634
g62
(dp4635
g82
g83
ssg71
g4629
sg64
(lp4636
S'session_locked'
p4637
asbag57
(g78
g59
NtRp4638
(dp4639
g62
(dp4640
g89
g90
ssg71
g4629
sg64
(lp4641
S':'
asbag57
(g78
g59
NtRp4642
(dp4643
g62
(dp4644
sg71
g4629
sg64
(lp4645
g57
(g58
g59
NtRp4646
(dp4647
g62
(dp4648
g70
I5
ssg71
g4642
sg64
(lp4649
g1656
asbasbasbag57
(g73
g59
NtRp4650
(dp4651
g62
(dp4652
sg71
g3783
sg64
(lp4653
g57
(g78
g59
NtRp4654
(dp4655
g62
(dp4656
g82
g83
ssg71
g4650
sg64
(lp4657
S'session_new'
p4658
asbag57
(g78
g59
NtRp4659
(dp4660
g62
(dp4661
g89
g90
ssg71
g4650
sg64
(lp4662
S':'
asbag57
(g78
g59
NtRp4663
(dp4664
g62
(dp4665
sg71
g4650
sg64
(lp4666
g57
(g58
g59
NtRp4667
(dp4668
g62
(dp4669
g70
I5
ssg71
g4663
sg64
(lp4670
g100
asbasbasbag57
(g73
g59
NtRp4671
(dp4672
g62
(dp4673
sg71
g3783
sg64
(lp4674
g57
(g78
g59
NtRp4675
(dp4676
g62
(dp4677
g82
g83
ssg71
g4671
sg64
(lp4678
S'status'
p4679
asbag57
(g78
g59
NtRp4680
(dp4681
g62
(dp4682
g89
g90
ssg71
g4671
sg64
(lp4683
S':'
asbag57
(g78
g59
NtRp4684
(dp4685
g62
(dp4686
sg71
g4671
sg64
(lp4687
g57
(g58
g59
NtRp4688
(dp4689
g62
(dp4690
g70
I5
ssg71
g4684
sg64
(lp4691
S'200'
p4692
asbasbasbag57
(g73
g59
NtRp4693
(dp4694
g62
(dp4695
sg71
g3783
sg64
(lp4696
g57
(g78
g59
NtRp4697
(dp4698
g62
(dp4699
g82
g83
ssg71
g4693
sg64
(lp4700
S'subtitle'
p4701
asbag57
(g78
g59
NtRp4702
(dp4703
g62
(dp4704
g89
g90
ssg71
g4693
sg64
(lp4705
S':'
asbag57
(g78
g59
NtRp4706
(dp4707
g62
(dp4708
sg71
g4693
sg64
(lp4709
g57
(g58
g59
NtRp4710
(dp4711
g62
(dp4712
g70
I5
ssg71
g4706
sg64
(lp4713
g4339
(S's\r\x00\x00\x00customize me!'
tRp4714
asbasbasbag57
(g73
g59
NtRp4715
(dp4716
g62
(dp4717
sg71
g3783
sg64
(lp4718
g57
(g78
g59
NtRp4719
(dp4720
g62
(dp4721
g82
g83
ssg71
g4715
sg64
(lp4722
S'title'
p4723
asbag57
(g78
g59
NtRp4724
(dp4725
g62
(dp4726
g89
g90
ssg71
g4715
sg64
(lp4727
S':'
asbag57
(g78
g59
NtRp4728
(dp4729
g62
(dp4730
sg71
g4715
sg64
(lp4731
g57
(g58
g59
NtRp4732
(dp4733
g62
(dp4734
g70
I5
ssg71
g4728
sg64
(lp4735
S'Iiitcourier'
p4736
asbasbasbag57
(g73
g59
NtRp4737
(dp4738
g62
(dp4739
sg71
g3783
sg64
(lp4740
g57
(g78
g59
NtRp4741
(dp4742
g62
(dp4743
g82
g83
ssg71
g4737
sg64
(lp4744
g2320
asbag57
(g78
g59
NtRp4745
(dp4746
g62
(dp4747
g89
g90
ssg71
g4737
sg64
(lp4748
S':'
asbag57
(g78
g59
NtRp4749
(dp4750
g62
(dp4751
sg71
g4737
sg64
(lp4752
g57
(g58
g59
NtRp4753
(dp4754
g62
(dp4755
g70
I5
ssg71
g4749
sg64
(lp4756
g2333
asbasbasbag57
(g73
g59
NtRp4757
(dp4758
g62
(dp4759
sg71
g3783
sg64
(lp4760
g57
(g78
g59
NtRp4761
(dp4762
g62
(dp4763
g82
g83
ssg71
g4757
sg64
(lp4764
S'view'
p4765
asbag57
(g78
g59
NtRp4766
(dp4767
g62
(dp4768
g89
g90
ssg71
g4757
sg64
(lp4769
S':'
asbag57
(g78
g59
NtRp4770
(dp4771
g62
(dp4772
sg71
g4757
sg64
(lp4773
g57
(g58
g59
NtRp4774
(dp4775
g62
(dp4776
g70
I5
ssg71
g4770
sg64
(lp4777
S'default/searchPage.html'
p4778
asbasbasbasbasbsS'locals'
p4779
(dp4780
S'second'
p4781
S'None'
p4782
sS'self'
p4783
S'<gluon.dal.SQLiteAdapter object>'
p4784
sS'first'
p4785
S'<gluon.dal.Field object>'
p4786
sssS'traceback'
p4787
S'Traceback (most recent call last):\n  File "/usr/lib/pymodules/python2.7/gluon/restricted.py", line 205, in restricted\n    exec ccode in environment\n  File "/home/game_boy/web2py/applications/IIITCourier/controllers/default.py", line 132, in <module>\n  File "/usr/lib/pymodules/python2.7/gluon/globals.py", line 173, in <lambda>\n    self._caller = lambda f: f()\n  File "/home/game_boy/web2py/applications/IIITCourier/controllers/default.py", line 60, in searchPage\n    rows=SQLFORM.grid(query = query);\n  File "/usr/lib/pymodules/python2.7/gluon/sqlhtml.py", line 1769, in grid\n    rows = dbset.select(left=left,orderby=orderby,limitby=limitby,*table_fields)\n  File "/usr/lib/pymodules/python2.7/gluon/dal.py", line 7578, in select\n    return adapter.select(self.query,fields,attributes)\n  File "/usr/lib/pymodules/python2.7/gluon/dal.py", line 1307, in select\n    sql = self._select(query, fields, attributes)\n  File "/usr/lib/pymodules/python2.7/gluon/dal.py", line 1756, in _select\n    sql = super(SQLiteAdapter, self)._select(query, fields, attributes)\n  File "/usr/lib/pymodules/python2.7/gluon/dal.py", line 1200, in _select\n    sql_w = \' WHERE \' + self.expand(query)\n  File "/usr/lib/pymodules/python2.7/gluon/dal.py", line 1046, in expand\n    return expression.op(expression.first, expression.second)\n  File "/usr/lib/pymodules/python2.7/gluon/dal.py", line 946, in AND\n    return \'(%s AND %s)\' % (self.expand(first), self.expand(second))\n  File "/usr/lib/pymodules/python2.7/gluon/dal.py", line 1046, in expand\n    return expression.op(expression.first, expression.second)\n  File "/usr/lib/pymodules/python2.7/gluon/dal.py", line 946, in AND\n    return \'(%s AND %s)\' % (self.expand(first), self.expand(second))\n  File "/usr/lib/pymodules/python2.7/gluon/dal.py", line 1046, in expand\n    return expression.op(expression.first, expression.second)\n  File "/usr/lib/pymodules/python2.7/gluon/dal.py", line 946, in AND\n    return \'(%s AND %s)\' % (self.expand(first), self.expand(second))\n  File "/usr/lib/pymodules/python2.7/gluon/dal.py", line 1048, in expand\n    return expression.op(expression.first)\n  File "/usr/lib/pymodules/python2.7/gluon/dal.py", line 1011, in GE\n    raise RuntimeError, "Cannot compare %s >= None" % first\nRuntimeError: Cannot compare courierDetails.Date_received >= None\n'
p4788
s.