(dp1
S'output'
p2
S"<type 'exceptions.AttributeError'> 'DIV' object has no attribute 'pop'"
p3
sS'layer'
p4
S'/home/game_boy/web2py/applications/IIITCourier/views/default/searchPage.html'
p5
sS'code'
p6
S'response.write(\'<!DOCTYPE html PUBLIC "-//W3C//DTD XHTML 1.0 Strict//EN" "http://www.w3.org/TR/xhtml1/DTD/xhtml1-strict.dtd">\\n<!--\\n\\nDesign by Free CSS Templates\\nhttp://www.freecsstemplates.org\\nReleased for free under a Creative Commons Attribution 2.5 License\\n\\nTitle      : Boorish\\nVersion    : 1.0\\nReleased   : 20080123\\nDescription: A wide two-column design suitable for blogs and small websites.\\n\\n-->\\n<html xmlns="http://www.w3.org/1999/xhtml">\\n <head>\\n  <title>\\n   \', escape=False)\nresponse.write(response.title or request.application)\nresponse.write(\'\\n  </title>\\n  \', escape=False)\nresponse.files.append(URL(request.application,\'static\',\'plugin_layouts/layouts/Boorish/default.css\'))\nresponse.write(\'\\n  \', escape=False)\nresponse.files.append(URL(\'static\',\'plugin_layouts/superfish.js\'))\nresponse.write(\'\\n  \', escape=False)\nresponse.write(\'<script type="text/javascript"><!--\\n    // These variables are used by the web2py_ajax_init function in web2py_ajax.js (which is loaded below).\\n    var w2p_ajax_confirm_message = "\', escape=False)\nresponse.write(T(\'Are you sure you want to delete this object?\'))\nresponse.write(\'";\\n    var w2p_ajax_date_format = "\', escape=False)\nresponse.write(T(\'%Y-%m-%d\'))\nresponse.write(\'";\\n    var w2p_ajax_datetime_format = "\', escape=False)\nresponse.write(T(\'%Y-%m-%d %H:%M:%S\'))\nresponse.write(\'";\\n    //--></script>\\n\', escape=False)\nresponse.files.insert(0,URL(\'static\',\'js/jquery.js\'))\nresponse.files.insert(1,URL(\'static\',\'css/calendar.css\'))\nresponse.files.insert(2,URL(\'static\',\'js/calendar.js\'))\nresponse.files.insert(3,URL(\'static\',\'js/web2py.js\'))\nresponse.include_meta()\nresponse.include_files()\nresponse.write(\'\\n\', escape=False)\nresponse.write(\'\\n  <style>\\nul.web2py-menu-vertical { width: 150px; position: relative; top:1em; left:1em;  z-index:30; border:0; margin:0; padding: 0; list-style: none; text-decoration: none;}\\nul.web2py-menu-vertical li { margin:0; padding:0; border:0; width: 150px; background: black; text-align:left;}\\nul.web2py-menu-vertical li a { margin:0; padding: 1px 3px 1px 3px; border:0; width: 144px; color: white; font-size:12px;}\\ndiv.flash { position: fixed; float: right; padding: 10px; top: 10px; right: 30px; opacity: 0.75; margin: 10px 10px 10px 10px; text-align: center; clear: both; color: #fff; font-size: 11pt; text-align: center; vertical-align: middle; cursor: pointer; background: black; border: 2px solid #fff; -moz-border-radius: 5px; -webkit-border-radius: 5px; z-index: 2; }\\ndiv.error { background-color: red; color: white; padding: 3px; }\\n.auth_navbar { text-align:right; z-index:20; position: absolute; top: 2px; right:30px; border:0; padding:0 }\\n  </style>\\n </head>\\n <body>\\n  <!-- start header -->\\n  \', escape=False)\ntry:\n    response.write(auth.navbar(action=URL(\'default\',\'user\')))\nexcept:pass\nresponse.write(\'\\n\\n  <!-- start header -->\\n  <div id="header">\\n   <div id="logo">\\n    <h1>\\n    IIIT Courier\\n    </h1>\\n   </div>\\n   <div id="menu">\\n    \', escape=False)\nresponse.write(MENU(response.menu,_class=\'web2py-menu\'))\nresponse.write(\'\\n    <script>\\n      jQuery(document).ready(function(){jQuery(\\\'ul.web2py-menu\\\').superfish({delay:400});});\\n    </script>\\n   </div>\\n  </div>\\n  <!-- end header -->\\n  <!-- start page -->\\n  <div id="page">\\n   <!-- start content -->\\n   <div id="content">\\n    <div class="flash">\', escape=False)\nresponse.write(response.flash or \'\')\nresponse.write(\'</div>\\n    \', escape=False)\nresponse.write("\\n<h1 class=\'h1InPage\'>Records matched</h1>\\n", escape=False)\nrows.pop(0)\nresponse.write(\'\\n\', escape=False)\nfor row in rows:\n    response.write(\'\\n<p>\', escape=False)\n    response.write(row)\n    response.write(\'</p>\\n\', escape=False)\n    pass\nresponse.write(\'\\n\', escape=False)\nresponse.write(\'\\n   </div>\\n   <!-- end content -->\\n   <!-- start sidebar -->\\n   <!--<div id="sidebar">\\n   <ul>\\n     <li id="search">\\n      <h2>\\n       Search\\n      </h2>\\n      <form method="get" action="">\\n       <fieldset>\\n        <input type="text" id="s" name="s" value="" />\\n        <input type="submit" id="x" value="Search" />\\n       </fieldset>\\n      </form>\\n     </li>\\n     <li>\\n      <h2>\\n       Lorem Ipsum\\n      </h2>\\n      <ul>\\n       <li>\\n        <a href="#">\\n         Fusce dui neque fringilla\\n        </a>\\n       </li>\\n       <li>\\n        <a href="#">\\n         Eget tempor eget nonummy\\n        </a>\\n       </li>\\n       <li>\\n        <a href="#">\\n         Magna lacus bibendum mauris\\n        </a>\\n       </li>\\n       <li>\\n        <a href="#">\\n         Nec metus sed donec\\n        </a>\\n       </li>\\n       <li>\\n        <a href="#">\\n         Magna lacus bibendum mauris\\n        </a>\\n       </li>\\n       <li>\\n        <a href="#">\\n         Velit semper nisi molestie\\n        </a>\\n       </li>\\n       <li>\\n        <a href="#">\\n         Eget tempor eget nonummy\\n        </a>\\n       </li>\\n      </ul>\\n     </li>\\n     <li>\\n      <h2>\\n       Volutpat Dolore\\n      </h2>\\n      <ul>\\n       <li>\\n        <a href="#">\\n         Eget tempor eget nonummy\\n        </a>\\n       </li>\\n       <li>\\n        <a href="#">\\n         Magna lacus bibendum mauris\\n        </a>\\n       </li>\\n       <li>\\n        <a href="#">\\n         Magna lacus bibendum mauris\\n        </a>\\n       </li>\\n       <li>\\n        <a href="#">\\n         Velit semper nisi molestie\\n        </a>\\n       </li>\\n       <li>\\n        <a href="#">\\n         Nec metus sed donec\\n        </a>\\n       </li>\\n       <li>\\n        <a href="#">\\n         Magna lacus bibendum mauris\\n        </a>\\n       </li>\\n       <li>\\n        <a href="#">\\n         Fusce dui neque fringilla\\n        </a>\\n       </li>\\n      </ul>\\n     </li>\\n     <li>\\n      <h2>\\n       Magna Bibendum\\n      </h2>\\n      <ul>\\n       <li>\\n        <a href="#">\\n         Nec metus sed donec\\n        </a>\\n       </li>\\n       <li>\\n        <a href="#">\\n         Magna lacus bibendum mauris\\n        </a>\\n       </li>\\n       <li>\\n        <a href="#">\\n         Velit semper nisi molestie\\n        </a>\\n       </li>\\n       <li>\\n        <a href="#">\\n         Eget tempor eget nonummy\\n        </a>\\n       </li>\\n       <li>\\n        <a href="#">\\n         Nec metus sed donec\\n        </a>\\n       </li>\\n       <li>\\n        <a href="#">\\n         Magna lacus bibendum mauris\\n        </a>\\n       </li>\\n       <li>\\n        <a href="#">\\n         Velit semper nisi molestie\\n        </a>\\n       </li>\\n      </ul>\\n     </li>\\n    </ul>\\n    <div style="clear: both;">\\n     &nbsp;\\n    </div>\\n   </div>\\n   <!-- end sidebar -->\\n  </div>\\n  <!-- end page -->\\n  <div id="footer">\\n   <p id="legal">\\n    &copy;2007 IIIT. All Rights Reserved. | Designed by Mohit Sharma and Sonam Gupta\\n   </p>\\n  </div>\\n </body>\\n</html>\\n\', escape=False)'
p7
sS'snapshot'
p8
(dp9
S'exception'
p10
(dp11
S'__hash__'
p12
S"<method-wrapper '__hash__' of exceptions.AttributeError object>"
p13
sS'__setattr__'
p14
S"<method-wrapper '__setattr__' of exceptions.AttributeError object>"
p15
sS'__reduce_ex__'
p16
S'<built-in method __reduce_ex__ of exceptions.AttributeError object>'
p17
sS'__getslice__'
p18
S"<method-wrapper '__getslice__' of exceptions.AttributeError object>"
p19
sS'__getitem__'
p20
S"<method-wrapper '__getitem__' of exceptions.AttributeError object>"
p21
sS'__setstate__'
p22
S'<built-in method __setstate__ of exceptions.AttributeError object>'
p23
sS'args'
p24
S'("\'DIV\' object has no attribute \'pop\'",)'
p25
sS'__reduce__'
p26
S'<built-in method __reduce__ of exceptions.AttributeError object>'
p27
sS'__str__'
p28
S"<method-wrapper '__str__' of exceptions.AttributeError object>"
p29
sS'__format__'
p30
S'<built-in method __format__ of exceptions.AttributeError object>'
p31
sS'__getattribute__'
p32
S"<method-wrapper '__getattribute__' of exceptions.AttributeError object>"
p33
sS'__class__'
p34
S"<type 'exceptions.AttributeError'>"
p35
sS'__unicode__'
p36
S'<built-in method __unicode__ of exceptions.AttributeError object>'
p37
sS'__delattr__'
p38
S"<method-wrapper '__delattr__' of exceptions.AttributeError object>"
p39
sS'__subclasshook__'
p40
S'<built-in method __subclasshook__ of type object>'
p41
sS'__repr__'
p42
S"<method-wrapper '__repr__' of exceptions.AttributeError object>"
p43
sS'__dict__'
p44
S'{}'
p45
sS'__sizeof__'
p46
S'<built-in method __sizeof__ of exceptions.AttributeError object>'
p47
sS'__doc__'
p48
S"'Attribute not found.'"
p49
sS'__init__'
p50
S"<method-wrapper '__init__' of exceptions.AttributeError object>"
p51
sS'__new__'
p52
S'<built-in method __new__ of type object>'
p53
ssS'evalue'
p54
S"'DIV' object has no attribute 'pop'"
p55
sS'request'
p56
ccopy_reg
_reconstructor
p57
(cgluon.html
BEAUTIFY
p58
c__builtin__
object
p59
NtRp60
(dp61
S'attributes'
p62
(dp63
sS'components'
p64
(lp65
g57
(cgluon.html
TABLE
p66
g59
NtRp67
(dp68
g62
(dp69
S'level'
p70
I5
ssS'parent'
p71
Nsg64
(lp72
g57
(cgluon.html
TR
p73
g59
NtRp74
(dp75
g62
(dp76
sg71
g67
sg64
(lp77
g57
(cgluon.html
TD
p78
g59
NtRp79
(dp80
g62
(dp81
S'_style'
p82
S'font-weight:bold;vertical-align:top'
p83
ssg71
g74
sg64
(lp84
S'ajax'
p85
asbag57
(g78
g59
NtRp86
(dp87
g62
(dp88
S'_valign'
p89
S'top'
p90
ssg71
g74
sg64
(lp91
S':'
asbag57
(g78
g59
NtRp92
(dp93
g62
(dp94
sg71
g74
sg64
(lp95
g57
(g58
g59
NtRp96
(dp97
g62
(dp98
g70
I5
ssg71
g92
sg64
(lp99
S'False'
p100
asbasbasbag57
(g73
g59
NtRp101
(dp102
g62
(dp103
sg71
g67
sg64
(lp104
g57
(g78
g59
NtRp105
(dp106
g62
(dp107
g82
g83
ssg71
g101
sg64
(lp108
S'application'
p109
asbag57
(g78
g59
NtRp110
(dp111
g62
(dp112
g89
g90
ssg71
g101
sg64
(lp113
S':'
asbag57
(g78
g59
NtRp114
(dp115
g62
(dp116
sg71
g101
sg64
(lp117
g57
(g58
g59
NtRp118
(dp119
g62
(dp120
g70
I5
ssg71
g114
sg64
(lp121
S'IIITCourier'
p122
asbasbasbag57
(g73
g59
NtRp123
(dp124
g62
(dp125
sg71
g67
sg64
(lp126
g57
(g78
g59
NtRp127
(dp128
g62
(dp129
g82
g83
ssg71
g123
sg64
(lp130
g24
asbag57
(g78
g59
NtRp131
(dp132
g62
(dp133
g89
g90
ssg71
g123
sg64
(lp134
S':'
asbag57
(g78
g59
NtRp135
(dp136
g62
(dp137
sg71
g123
sg64
(lp138
g57
(g58
g59
NtRp139
(dp140
g62
(dp141
g70
I5
ssg71
g135
sg64
(lp142
g57
(g66
g59
NtRp143
(dp144
g62
(dp145
g70
I4
ssg71
Nsg64
(lp146
sbasbasbasbag57
(g73
g59
NtRp147
(dp148
g62
(dp149
sg71
g67
sg64
(lp150
g57
(g78
g59
NtRp151
(dp152
g62
(dp153
g82
g83
ssg71
g147
sg64
(lp154
S'body'
p155
asbag57
(g78
g59
NtRp156
(dp157
g62
(dp158
g89
g90
ssg71
g147
sg64
(lp159
S':'
asbag57
(g78
g59
NtRp160
(dp161
g62
(dp162
sg71
g147
sg64
(lp163
g57
(g58
g59
NtRp164
(dp165
g62
(dp166
g70
I5
ssg71
g160
sg64
(lp167
S'<cStringIO.StringO object at 0x7fa6c73ca6f8>'
p168
asbasbasbag57
(g73
g59
NtRp169
(dp170
g62
(dp171
sg71
g67
sg64
(lp172
g57
(g78
g59
NtRp173
(dp174
g62
(dp175
g82
g83
ssg71
g169
sg64
(lp176
S'client'
p177
asbag57
(g78
g59
NtRp178
(dp179
g62
(dp180
g89
g90
ssg71
g169
sg64
(lp181
S':'
asbag57
(g78
g59
NtRp182
(dp183
g62
(dp184
sg71
g169
sg64
(lp185
g57
(g58
g59
NtRp186
(dp187
g62
(dp188
g70
I5
ssg71
g182
sg64
(lp189
S'127.0.0.1'
p190
asbasbasbag57
(g73
g59
NtRp191
(dp192
g62
(dp193
sg71
g67
sg64
(lp194
g57
(g78
g59
NtRp195
(dp196
g62
(dp197
g82
g83
ssg71
g191
sg64
(lp198
S'controller'
p199
asbag57
(g78
g59
NtRp200
(dp201
g62
(dp202
g89
g90
ssg71
g191
sg64
(lp203
S':'
asbag57
(g78
g59
NtRp204
(dp205
g62
(dp206
sg71
g191
sg64
(lp207
g57
(g58
g59
NtRp208
(dp209
g62
(dp210
g70
I5
ssg71
g204
sg64
(lp211
S'default'
p212
asbasbasbag57
(g73
g59
NtRp213
(dp214
g62
(dp215
sg71
g67
sg64
(lp216
g57
(g78
g59
NtRp217
(dp218
g62
(dp219
g82
g83
ssg71
g213
sg64
(lp220
S'cookies'
p221
asbag57
(g78
g59
NtRp222
(dp223
g62
(dp224
g89
g90
ssg71
g213
sg64
(lp225
S':'
asbag57
(g78
g59
NtRp226
(dp227
g62
(dp228
sg71
g213
sg64
(lp229
g57
(g58
g59
NtRp230
(dp231
g62
(dp232
g70
I5
ssg71
g226
sg64
(lp233
g57
(g66
g59
NtRp234
(dp235
g62
(dp236
g70
I4
ssg71
Nsg64
(lp237
g57
(g73
g59
NtRp238
(dp239
g62
(dp240
sg71
g234
sg64
(lp241
g57
(g78
g59
NtRp242
(dp243
g62
(dp244
g82
g83
ssg71
g238
sg64
(lp245
S'session_id_admin'
p246
asbag57
(g78
g59
NtRp247
(dp248
g62
(dp249
g89
g90
ssg71
g238
sg64
(lp250
S':'
asbag57
(g78
g59
NtRp251
(dp252
g62
(dp253
sg71
g238
sg64
(lp254
g57
(g58
g59
NtRp255
(dp256
g62
(dp257
g70
I4
ssg71
g251
sg64
(lp258
g57
(g66
g59
NtRp259
(dp260
g62
(dp261
g70
I3
ssg71
Nsg64
(lp262
g57
(g73
g59
NtRp263
(dp264
g62
(dp265
sg71
g259
sg64
(lp266
g57
(g78
g59
NtRp267
(dp268
g62
(dp269
g82
g83
ssg71
g263
sg64
(lp270
S'comment'
p271
asbag57
(g78
g59
NtRp272
(dp273
g62
(dp274
g89
g90
ssg71
g263
sg64
(lp275
S':'
asbag57
(g78
g59
NtRp276
(dp277
g62
(dp278
sg71
g263
sg64
(lp279
g57
(g58
g59
NtRp280
(dp281
g62
(dp282
g70
I3
ssg71
g276
sg64
(lp283
S''
asbasbasbag57
(g73
g59
NtRp284
(dp285
g62
(dp286
sg71
g259
sg64
(lp287
g57
(g78
g59
NtRp288
(dp289
g62
(dp290
g82
g83
ssg71
g284
sg64
(lp291
S'domain'
p292
asbag57
(g78
g59
NtRp293
(dp294
g62
(dp295
g89
g90
ssg71
g284
sg64
(lp296
S':'
asbag57
(g78
g59
NtRp297
(dp298
g62
(dp299
sg71
g284
sg64
(lp300
g57
(g58
g59
NtRp301
(dp302
g62
(dp303
g70
I3
ssg71
g297
sg64
(lp304
S''
asbasbasbag57
(g73
g59
NtRp305
(dp306
g62
(dp307
sg71
g259
sg64
(lp308
g57
(g78
g59
NtRp309
(dp310
g62
(dp311
g82
g83
ssg71
g305
sg64
(lp312
S'expires'
p313
asbag57
(g78
g59
NtRp314
(dp315
g62
(dp316
g89
g90
ssg71
g305
sg64
(lp317
S':'
asbag57
(g78
g59
NtRp318
(dp319
g62
(dp320
sg71
g305
sg64
(lp321
g57
(g58
g59
NtRp322
(dp323
g62
(dp324
g70
I3
ssg71
g318
sg64
(lp325
S''
asbasbasbag57
(g73
g59
NtRp326
(dp327
g62
(dp328
sg71
g259
sg64
(lp329
g57
(g78
g59
NtRp330
(dp331
g62
(dp332
g82
g83
ssg71
g326
sg64
(lp333
S'httponly'
p334
asbag57
(g78
g59
NtRp335
(dp336
g62
(dp337
g89
g90
ssg71
g326
sg64
(lp338
S':'
asbag57
(g78
g59
NtRp339
(dp340
g62
(dp341
sg71
g326
sg64
(lp342
g57
(g58
g59
NtRp343
(dp344
g62
(dp345
g70
I3
ssg71
g339
sg64
(lp346
S''
asbasbasbag57
(g73
g59
NtRp347
(dp348
g62
(dp349
sg71
g259
sg64
(lp350
g57
(g78
g59
NtRp351
(dp352
g62
(dp353
g82
g83
ssg71
g347
sg64
(lp354
S'max-age'
p355
asbag57
(g78
g59
NtRp356
(dp357
g62
(dp358
g89
g90
ssg71
g347
sg64
(lp359
S':'
asbag57
(g78
g59
NtRp360
(dp361
g62
(dp362
sg71
g347
sg64
(lp363
g57
(g58
g59
NtRp364
(dp365
g62
(dp366
g70
I3
ssg71
g360
sg64
(lp367
S''
asbasbasbag57
(g73
g59
NtRp368
(dp369
g62
(dp370
sg71
g259
sg64
(lp371
g57
(g78
g59
NtRp372
(dp373
g62
(dp374
g82
g83
ssg71
g368
sg64
(lp375
S'path'
p376
asbag57
(g78
g59
NtRp377
(dp378
g62
(dp379
g89
g90
ssg71
g368
sg64
(lp380
S':'
asbag57
(g78
g59
NtRp381
(dp382
g62
(dp383
sg71
g368
sg64
(lp384
g57
(g58
g59
NtRp385
(dp386
g62
(dp387
g70
I3
ssg71
g381
sg64
(lp388
S''
asbasbasbag57
(g73
g59
NtRp389
(dp390
g62
(dp391
sg71
g259
sg64
(lp392
g57
(g78
g59
NtRp393
(dp394
g62
(dp395
g82
g83
ssg71
g389
sg64
(lp396
S'secure'
p397
asbag57
(g78
g59
NtRp398
(dp399
g62
(dp400
g89
g90
ssg71
g389
sg64
(lp401
S':'
asbag57
(g78
g59
NtRp402
(dp403
g62
(dp404
sg71
g389
sg64
(lp405
g57
(g58
g59
NtRp406
(dp407
g62
(dp408
g70
I3
ssg71
g402
sg64
(lp409
S''
asbasbasbag57
(g73
g59
NtRp410
(dp411
g62
(dp412
sg71
g259
sg64
(lp413
g57
(g78
g59
NtRp414
(dp415
g62
(dp416
g82
g83
ssg71
g410
sg64
(lp417
S'version'
p418
asbag57
(g78
g59
NtRp419
(dp420
g62
(dp421
g89
g90
ssg71
g410
sg64
(lp422
S':'
asbag57
(g78
g59
NtRp423
(dp424
g62
(dp425
sg71
g410
sg64
(lp426
g57
(g58
g59
NtRp427
(dp428
g62
(dp429
g70
I3
ssg71
g423
sg64
(lp430
S''
asbasbasbasbasbasbasbag57
(g73
g59
NtRp431
(dp432
g62
(dp433
sg71
g234
sg64
(lp434
g57
(g78
g59
NtRp435
(dp436
g62
(dp437
g82
g83
ssg71
g431
sg64
(lp438
S'session_id_iiitcourier'
p439
asbag57
(g78
g59
NtRp440
(dp441
g62
(dp442
g89
g90
ssg71
g431
sg64
(lp443
S':'
asbag57
(g78
g59
NtRp444
(dp445
g62
(dp446
sg71
g431
sg64
(lp447
g57
(g58
g59
NtRp448
(dp449
g62
(dp450
g70
I4
ssg71
g444
sg64
(lp451
g57
(g66
g59
NtRp452
(dp453
g62
(dp454
g70
I3
ssg71
Nsg64
(lp455
g57
(g73
g59
NtRp456
(dp457
g62
(dp458
sg71
g452
sg64
(lp459
g57
(g78
g59
NtRp460
(dp461
g62
(dp462
g82
g83
ssg71
g456
sg64
(lp463
g271
asbag57
(g78
g59
NtRp464
(dp465
g62
(dp466
g89
g90
ssg71
g456
sg64
(lp467
S':'
asbag57
(g78
g59
NtRp468
(dp469
g62
(dp470
sg71
g456
sg64
(lp471
g57
(g58
g59
NtRp472
(dp473
g62
(dp474
g70
I3
ssg71
g468
sg64
(lp475
S''
asbasbasbag57
(g73
g59
NtRp476
(dp477
g62
(dp478
sg71
g452
sg64
(lp479
g57
(g78
g59
NtRp480
(dp481
g62
(dp482
g82
g83
ssg71
g476
sg64
(lp483
g292
asbag57
(g78
g59
NtRp484
(dp485
g62
(dp486
g89
g90
ssg71
g476
sg64
(lp487
S':'
asbag57
(g78
g59
NtRp488
(dp489
g62
(dp490
sg71
g476
sg64
(lp491
g57
(g58
g59
NtRp492
(dp493
g62
(dp494
g70
I3
ssg71
g488
sg64
(lp495
S''
asbasbasbag57
(g73
g59
NtRp496
(dp497
g62
(dp498
sg71
g452
sg64
(lp499
g57
(g78
g59
NtRp500
(dp501
g62
(dp502
g82
g83
ssg71
g496
sg64
(lp503
g313
asbag57
(g78
g59
NtRp504
(dp505
g62
(dp506
g89
g90
ssg71
g496
sg64
(lp507
S':'
asbag57
(g78
g59
NtRp508
(dp509
g62
(dp510
sg71
g496
sg64
(lp511
g57
(g58
g59
NtRp512
(dp513
g62
(dp514
g70
I3
ssg71
g508
sg64
(lp515
S''
asbasbasbag57
(g73
g59
NtRp516
(dp517
g62
(dp518
sg71
g452
sg64
(lp519
g57
(g78
g59
NtRp520
(dp521
g62
(dp522
g82
g83
ssg71
g516
sg64
(lp523
g334
asbag57
(g78
g59
NtRp524
(dp525
g62
(dp526
g89
g90
ssg71
g516
sg64
(lp527
S':'
asbag57
(g78
g59
NtRp528
(dp529
g62
(dp530
sg71
g516
sg64
(lp531
g57
(g58
g59
NtRp532
(dp533
g62
(dp534
g70
I3
ssg71
g528
sg64
(lp535
S''
asbasbasbag57
(g73
g59
NtRp536
(dp537
g62
(dp538
sg71
g452
sg64
(lp539
g57
(g78
g59
NtRp540
(dp541
g62
(dp542
g82
g83
ssg71
g536
sg64
(lp543
g355
asbag57
(g78
g59
NtRp544
(dp545
g62
(dp546
g89
g90
ssg71
g536
sg64
(lp547
S':'
asbag57
(g78
g59
NtRp548
(dp549
g62
(dp550
sg71
g536
sg64
(lp551
g57
(g58
g59
NtRp552
(dp553
g62
(dp554
g70
I3
ssg71
g548
sg64
(lp555
S''
asbasbasbag57
(g73
g59
NtRp556
(dp557
g62
(dp558
sg71
g452
sg64
(lp559
g57
(g78
g59
NtRp560
(dp561
g62
(dp562
g82
g83
ssg71
g556
sg64
(lp563
g376
asbag57
(g78
g59
NtRp564
(dp565
g62
(dp566
g89
g90
ssg71
g556
sg64
(lp567
S':'
asbag57
(g78
g59
NtRp568
(dp569
g62
(dp570
sg71
g556
sg64
(lp571
g57
(g58
g59
NtRp572
(dp573
g62
(dp574
g70
I3
ssg71
g568
sg64
(lp575
S''
asbasbasbag57
(g73
g59
NtRp576
(dp577
g62
(dp578
sg71
g452
sg64
(lp579
g57
(g78
g59
NtRp580
(dp581
g62
(dp582
g82
g83
ssg71
g576
sg64
(lp583
g397
asbag57
(g78
g59
NtRp584
(dp585
g62
(dp586
g89
g90
ssg71
g576
sg64
(lp587
S':'
asbag57
(g78
g59
NtRp588
(dp589
g62
(dp590
sg71
g576
sg64
(lp591
g57
(g58
g59
NtRp592
(dp593
g62
(dp594
g70
I3
ssg71
g588
sg64
(lp595
S''
asbasbasbag57
(g73
g59
NtRp596
(dp597
g62
(dp598
sg71
g452
sg64
(lp599
g57
(g78
g59
NtRp600
(dp601
g62
(dp602
g82
g83
ssg71
g596
sg64
(lp603
g418
asbag57
(g78
g59
NtRp604
(dp605
g62
(dp606
g89
g90
ssg71
g596
sg64
(lp607
S':'
asbag57
(g78
g59
NtRp608
(dp609
g62
(dp610
sg71
g596
sg64
(lp611
g57
(g58
g59
NtRp612
(dp613
g62
(dp614
g70
I3
ssg71
g608
sg64
(lp615
S''
asbasbasbasbasbasbasbag57
(g73
g59
NtRp616
(dp617
g62
(dp618
sg71
g234
sg64
(lp619
g57
(g78
g59
NtRp620
(dp621
g62
(dp622
g82
g83
ssg71
g616
sg64
(lp623
S'session_id_welcome'
p624
asbag57
(g78
g59
NtRp625
(dp626
g62
(dp627
g89
g90
ssg71
g616
sg64
(lp628
S':'
asbag57
(g78
g59
NtRp629
(dp630
g62
(dp631
sg71
g616
sg64
(lp632
g57
(g58
g59
NtRp633
(dp634
g62
(dp635
g70
I4
ssg71
g629
sg64
(lp636
g57
(g66
g59
NtRp637
(dp638
g62
(dp639
g70
I3
ssg71
Nsg64
(lp640
g57
(g73
g59
NtRp641
(dp642
g62
(dp643
sg71
g637
sg64
(lp644
g57
(g78
g59
NtRp645
(dp646
g62
(dp647
g82
g83
ssg71
g641
sg64
(lp648
g271
asbag57
(g78
g59
NtRp649
(dp650
g62
(dp651
g89
g90
ssg71
g641
sg64
(lp652
S':'
asbag57
(g78
g59
NtRp653
(dp654
g62
(dp655
sg71
g641
sg64
(lp656
g57
(g58
g59
NtRp657
(dp658
g62
(dp659
g70
I3
ssg71
g653
sg64
(lp660
S''
asbasbasbag57
(g73
g59
NtRp661
(dp662
g62
(dp663
sg71
g637
sg64
(lp664
g57
(g78
g59
NtRp665
(dp666
g62
(dp667
g82
g83
ssg71
g661
sg64
(lp668
g292
asbag57
(g78
g59
NtRp669
(dp670
g62
(dp671
g89
g90
ssg71
g661
sg64
(lp672
S':'
asbag57
(g78
g59
NtRp673
(dp674
g62
(dp675
sg71
g661
sg64
(lp676
g57
(g58
g59
NtRp677
(dp678
g62
(dp679
g70
I3
ssg71
g673
sg64
(lp680
S''
asbasbasbag57
(g73
g59
NtRp681
(dp682
g62
(dp683
sg71
g637
sg64
(lp684
g57
(g78
g59
NtRp685
(dp686
g62
(dp687
g82
g83
ssg71
g681
sg64
(lp688
g313
asbag57
(g78
g59
NtRp689
(dp690
g62
(dp691
g89
g90
ssg71
g681
sg64
(lp692
S':'
asbag57
(g78
g59
NtRp693
(dp694
g62
(dp695
sg71
g681
sg64
(lp696
g57
(g58
g59
NtRp697
(dp698
g62
(dp699
g70
I3
ssg71
g693
sg64
(lp700
S''
asbasbasbag57
(g73
g59
NtRp701
(dp702
g62
(dp703
sg71
g637
sg64
(lp704
g57
(g78
g59
NtRp705
(dp706
g62
(dp707
g82
g83
ssg71
g701
sg64
(lp708
g334
asbag57
(g78
g59
NtRp709
(dp710
g62
(dp711
g89
g90
ssg71
g701
sg64
(lp712
S':'
asbag57
(g78
g59
NtRp713
(dp714
g62
(dp715
sg71
g701
sg64
(lp716
g57
(g58
g59
NtRp717
(dp718
g62
(dp719
g70
I3
ssg71
g713
sg64
(lp720
S''
asbasbasbag57
(g73
g59
NtRp721
(dp722
g62
(dp723
sg71
g637
sg64
(lp724
g57
(g78
g59
NtRp725
(dp726
g62
(dp727
g82
g83
ssg71
g721
sg64
(lp728
g355
asbag57
(g78
g59
NtRp729
(dp730
g62
(dp731
g89
g90
ssg71
g721
sg64
(lp732
S':'
asbag57
(g78
g59
NtRp733
(dp734
g62
(dp735
sg71
g721
sg64
(lp736
g57
(g58
g59
NtRp737
(dp738
g62
(dp739
g70
I3
ssg71
g733
sg64
(lp740
S''
asbasbasbag57
(g73
g59
NtRp741
(dp742
g62
(dp743
sg71
g637
sg64
(lp744
g57
(g78
g59
NtRp745
(dp746
g62
(dp747
g82
g83
ssg71
g741
sg64
(lp748
g376
asbag57
(g78
g59
NtRp749
(dp750
g62
(dp751
g89
g90
ssg71
g741
sg64
(lp752
S':'
asbag57
(g78
g59
NtRp753
(dp754
g62
(dp755
sg71
g741
sg64
(lp756
g57
(g58
g59
NtRp757
(dp758
g62
(dp759
g70
I3
ssg71
g753
sg64
(lp760
S''
asbasbasbag57
(g73
g59
NtRp761
(dp762
g62
(dp763
sg71
g637
sg64
(lp764
g57
(g78
g59
NtRp765
(dp766
g62
(dp767
g82
g83
ssg71
g761
sg64
(lp768
g397
asbag57
(g78
g59
NtRp769
(dp770
g62
(dp771
g89
g90
ssg71
g761
sg64
(lp772
S':'
asbag57
(g78
g59
NtRp773
(dp774
g62
(dp775
sg71
g761
sg64
(lp776
g57
(g58
g59
NtRp777
(dp778
g62
(dp779
g70
I3
ssg71
g773
sg64
(lp780
S''
asbasbasbag57
(g73
g59
NtRp781
(dp782
g62
(dp783
sg71
g637
sg64
(lp784
g57
(g78
g59
NtRp785
(dp786
g62
(dp787
g82
g83
ssg71
g781
sg64
(lp788
g418
asbag57
(g78
g59
NtRp789
(dp790
g62
(dp791
g89
g90
ssg71
g781
sg64
(lp792
S':'
asbag57
(g78
g59
NtRp793
(dp794
g62
(dp795
sg71
g781
sg64
(lp796
g57
(g58
g59
NtRp797
(dp798
g62
(dp799
g70
I3
ssg71
g793
sg64
(lp800
S''
asbasbasbasbasbasbasbasbasbasbasbag57
(g73
g59
NtRp801
(dp802
g62
(dp803
sg71
g67
sg64
(lp804
g57
(g78
g59
NtRp805
(dp806
g62
(dp807
g82
g83
ssg71
g801
sg64
(lp808
S'env'
p809
asbag57
(g78
g59
NtRp810
(dp811
g62
(dp812
g89
g90
ssg71
g801
sg64
(lp813
S':'
asbag57
(g78
g59
NtRp814
(dp815
g62
(dp816
sg71
g801
sg64
(lp817
g57
(g58
g59
NtRp818
(dp819
g62
(dp820
g70
I5
ssg71
g814
sg64
(lp821
g57
(g66
g59
NtRp822
(dp823
g62
(dp824
g70
I4
ssg71
Nsg64
(lp825
g57
(g73
g59
NtRp826
(dp827
g62
(dp828
sg71
g822
sg64
(lp829
g57
(g78
g59
NtRp830
(dp831
g62
(dp832
g82
g83
ssg71
g826
sg64
(lp833
S'app_folders'
p834
asbag57
(g78
g59
NtRp835
(dp836
g62
(dp837
g89
g90
ssg71
g826
sg64
(lp838
S':'
asbag57
(g78
g59
NtRp839
(dp840
g62
(dp841
sg71
g826
sg64
(lp842
g57
(g58
g59
NtRp843
(dp844
g62
(dp845
g70
I4
ssg71
g839
sg64
(lp846
S"set(['/home/game_boy/web2py/applications/examples/', '/home/game_boy/web2py/applications/welcome/', '/home/game_boy/web2py/applications/IIITCourier/', '/home/game_boy/web2py/applications/admin/'])"
p847
asbasbasbag57
(g73
g59
NtRp848
(dp849
g62
(dp850
sg71
g822
sg64
(lp851
g57
(g78
g59
NtRp852
(dp853
g62
(dp854
g82
g83
ssg71
g848
sg64
(lp855
S'applications_parent'
p856
asbag57
(g78
g59
NtRp857
(dp858
g62
(dp859
g89
g90
ssg71
g848
sg64
(lp860
S':'
asbag57
(g78
g59
NtRp861
(dp862
g62
(dp863
sg71
g848
sg64
(lp864
g57
(g58
g59
NtRp865
(dp866
g62
(dp867
g70
I4
ssg71
g861
sg64
(lp868
S'/home/game_boy/web2py'
p869
asbasbasbag57
(g73
g59
NtRp870
(dp871
g62
(dp872
sg71
g822
sg64
(lp873
g57
(g78
g59
NtRp874
(dp875
g62
(dp876
g82
g83
ssg71
g870
sg64
(lp877
S'cmd_args'
p878
asbag57
(g78
g59
NtRp879
(dp880
g62
(dp881
g89
g90
ssg71
g870
sg64
(lp882
S':'
asbag57
(g78
g59
NtRp883
(dp884
g62
(dp885
sg71
g870
sg64
(lp886
g57
(g58
g59
NtRp887
(dp888
g62
(dp889
g70
I4
ssg71
g883
sg64
(lp890
g57
(g66
g59
NtRp891
(dp892
g62
(dp893
g70
I3
ssg71
Nsg64
(lp894
sbasbasbasbag57
(g73
g59
NtRp895
(dp896
g62
(dp897
sg71
g822
sg64
(lp898
g57
(g78
g59
NtRp899
(dp900
g62
(dp901
g82
g83
ssg71
g895
sg64
(lp902
S'cmd_options'
p903
asbag57
(g78
g59
NtRp904
(dp905
g62
(dp906
g89
g90
ssg71
g895
sg64
(lp907
S':'
asbag57
(g78
g59
NtRp908
(dp909
g62
(dp910
sg71
g895
sg64
(lp911
g57
(g58
g59
NtRp912
(dp913
g62
(dp914
g70
I4
ssg71
g908
sg64
(lp915
S"<Values at 0x7fa715cc8758: {'verbose': False, 'ip': '127.0.0.1', 'shutdown_timeout': 5, 'taskbar': False, 'nocron': False, 'pid_filename': 'httpserver.pid', 'maxthreads': None, 'softcron': False, 'server_name': 'gameBoy-VGN-SR53GF-B', 'bpython': False, 'nogui': False, 'port': 8000, 'extcron': False, 'debuglevel': 30, 'test': None, 'folder': '/home/game_boy/web2py', 'config': '', 'import_models': False, 'winservice': '', 'shell': None, 'run': '', 'log_filename': 'httpserver.log', 'args': [''], 'socket_timeout': 5, 'ssl_ca_certificate': None, 'scheduler': None, 'profiler_filename': None, 'ssl_private_key': '', 'password': '<ask>', 'request_queue_size': 5, 'ssl_certificate': '', 'cronjob': False, 'numthreads': None, 'quiet': False, 'interfaces': None, 'minthreads': None, 'timeout': 10, 'plain': False, 'nobanner': False}>"
p916
asbasbasbag57
(g73
g59
NtRp917
(dp918
g62
(dp919
sg71
g822
sg64
(lp920
g57
(g78
g59
NtRp921
(dp922
g62
(dp923
g82
g83
ssg71
g917
sg64
(lp924
S'db_sessions'
p925
asbag57
(g78
g59
NtRp926
(dp927
g62
(dp928
g89
g90
ssg71
g917
sg64
(lp929
S':'
asbag57
(g78
g59
NtRp930
(dp931
g62
(dp932
sg71
g917
sg64
(lp933
g57
(g58
g59
NtRp934
(dp935
g62
(dp936
g70
I4
ssg71
g930
sg64
(lp937
S'set([])'
p938
asbasbasbag57
(g73
g59
NtRp939
(dp940
g62
(dp941
sg71
g822
sg64
(lp942
g57
(g78
g59
NtRp943
(dp944
g62
(dp945
g82
g83
ssg71
g939
sg64
(lp946
S'debugging'
p947
asbag57
(g78
g59
NtRp948
(dp949
g62
(dp950
g89
g90
ssg71
g939
sg64
(lp951
S':'
asbag57
(g78
g59
NtRp952
(dp953
g62
(dp954
sg71
g939
sg64
(lp955
g57
(g58
g59
NtRp956
(dp957
g62
(dp958
g70
I4
ssg71
g952
sg64
(lp959
g100
asbasbasbag57
(g73
g59
NtRp960
(dp961
g62
(dp962
sg71
g822
sg64
(lp963
g57
(g78
g59
NtRp964
(dp965
g62
(dp966
g82
g83
ssg71
g960
sg64
(lp967
S'gluon_parent'
p968
asbag57
(g78
g59
NtRp969
(dp970
g62
(dp971
g89
g90
ssg71
g960
sg64
(lp972
S':'
asbag57
(g78
g59
NtRp973
(dp974
g62
(dp975
sg71
g960
sg64
(lp976
g57
(g58
g59
NtRp977
(dp978
g62
(dp979
g70
I4
ssg71
g973
sg64
(lp980
S'/usr/share/web2py'
p981
asbasbasbag57
(g73
g59
NtRp982
(dp983
g62
(dp984
sg71
g822
sg64
(lp985
g57
(g78
g59
NtRp986
(dp987
g62
(dp988
g82
g83
ssg71
g982
sg64
(lp989
S'http_accept'
p990
asbag57
(g78
g59
NtRp991
(dp992
g62
(dp993
g89
g90
ssg71
g982
sg64
(lp994
S':'
asbag57
(g78
g59
NtRp995
(dp996
g62
(dp997
sg71
g982
sg64
(lp998
g57
(g58
g59
NtRp999
(dp1000
g62
(dp1001
g70
I4
ssg71
g995
sg64
(lp1002
S'text/html,application/xhtml+xml,application/xml;q=0.9,*/*;q=0.8'
p1003
asbasbasbag57
(g73
g59
NtRp1004
(dp1005
g62
(dp1006
sg71
g822
sg64
(lp1007
g57
(g78
g59
NtRp1008
(dp1009
g62
(dp1010
g82
g83
ssg71
g1004
sg64
(lp1011
S'http_accept_encoding'
p1012
asbag57
(g78
g59
NtRp1013
(dp1014
g62
(dp1015
g89
g90
ssg71
g1004
sg64
(lp1016
S':'
asbag57
(g78
g59
NtRp1017
(dp1018
g62
(dp1019
sg71
g1004
sg64
(lp1020
g57
(g58
g59
NtRp1021
(dp1022
g62
(dp1023
g70
I4
ssg71
g1017
sg64
(lp1024
S'gzip, deflate'
p1025
asbasbasbag57
(g73
g59
NtRp1026
(dp1027
g62
(dp1028
sg71
g822
sg64
(lp1029
g57
(g78
g59
NtRp1030
(dp1031
g62
(dp1032
g82
g83
ssg71
g1026
sg64
(lp1033
S'http_accept_language'
p1034
asbag57
(g78
g59
NtRp1035
(dp1036
g62
(dp1037
g89
g90
ssg71
g1026
sg64
(lp1038
S':'
asbag57
(g78
g59
NtRp1039
(dp1040
g62
(dp1041
sg71
g1026
sg64
(lp1042
g57
(g58
g59
NtRp1043
(dp1044
g62
(dp1045
g70
I4
ssg71
g1039
sg64
(lp1046
S'en-US,en;q=0.5'
p1047
asbasbasbag57
(g73
g59
NtRp1048
(dp1049
g62
(dp1050
sg71
g822
sg64
(lp1051
g57
(g78
g59
NtRp1052
(dp1053
g62
(dp1054
g82
g83
ssg71
g1048
sg64
(lp1055
S'http_cache_control'
p1056
asbag57
(g78
g59
NtRp1057
(dp1058
g62
(dp1059
g89
g90
ssg71
g1048
sg64
(lp1060
S':'
asbag57
(g78
g59
NtRp1061
(dp1062
g62
(dp1063
sg71
g1048
sg64
(lp1064
g57
(g58
g59
NtRp1065
(dp1066
g62
(dp1067
g70
I4
ssg71
g1061
sg64
(lp1068
S'max-age=0'
p1069
asbasbasbag57
(g73
g59
NtRp1070
(dp1071
g62
(dp1072
sg71
g822
sg64
(lp1073
g57
(g78
g59
NtRp1074
(dp1075
g62
(dp1076
g82
g83
ssg71
g1070
sg64
(lp1077
S'http_connection'
p1078
asbag57
(g78
g59
NtRp1079
(dp1080
g62
(dp1081
g89
g90
ssg71
g1070
sg64
(lp1082
S':'
asbag57
(g78
g59
NtRp1083
(dp1084
g62
(dp1085
sg71
g1070
sg64
(lp1086
g57
(g58
g59
NtRp1087
(dp1088
g62
(dp1089
g70
I4
ssg71
g1083
sg64
(lp1090
S'keep-alive'
p1091
asbasbasbag57
(g73
g59
NtRp1092
(dp1093
g62
(dp1094
sg71
g822
sg64
(lp1095
g57
(g78
g59
NtRp1096
(dp1097
g62
(dp1098
g82
g83
ssg71
g1092
sg64
(lp1099
S'http_cookie'
p1100
asbag57
(g78
g59
NtRp1101
(dp1102
g62
(dp1103
g89
g90
ssg71
g1092
sg64
(lp1104
S':'
asbag57
(g78
g59
NtRp1105
(dp1106
g62
(dp1107
sg71
g1092
sg64
(lp1108
g57
(g58
g59
NtRp1109
(dp1110
g62
(dp1111
g70
I4
ssg71
g1105
sg64
(lp1112
S'session_id_welcome=127.0.0.1-24a75461-14f1-4d3a-9fa8-78b9b48c05ba; session_id_admin=127.0.0.1-1fa45aea-be5e-40d9-a0ee-c4308d2071b8; session_id_iiitcourier=127.0.0.1-d80de6ec-cf5d-4cf3-8d7c-fad6af1bba5b'
p1113
asbasbasbag57
(g73
g59
NtRp1114
(dp1115
g62
(dp1116
sg71
g822
sg64
(lp1117
g57
(g78
g59
NtRp1118
(dp1119
g62
(dp1120
g82
g83
ssg71
g1114
sg64
(lp1121
S'http_host'
p1122
asbag57
(g78
g59
NtRp1123
(dp1124
g62
(dp1125
g89
g90
ssg71
g1114
sg64
(lp1126
S':'
asbag57
(g78
g59
NtRp1127
(dp1128
g62
(dp1129
sg71
g1114
sg64
(lp1130
g57
(g58
g59
NtRp1131
(dp1132
g62
(dp1133
g70
I4
ssg71
g1127
sg64
(lp1134
S'127.0.0.1:8000'
p1135
asbasbasbag57
(g73
g59
NtRp1136
(dp1137
g62
(dp1138
sg71
g822
sg64
(lp1139
g57
(g78
g59
NtRp1140
(dp1141
g62
(dp1142
g82
g83
ssg71
g1136
sg64
(lp1143
S'http_referer'
p1144
asbag57
(g78
g59
NtRp1145
(dp1146
g62
(dp1147
g89
g90
ssg71
g1136
sg64
(lp1148
S':'
asbag57
(g78
g59
NtRp1149
(dp1150
g62
(dp1151
sg71
g1136
sg64
(lp1152
g57
(g58
g59
NtRp1153
(dp1154
g62
(dp1155
g70
I4
ssg71
g1149
sg64
(lp1156
S'http://127.0.0.1:8000/IIITCourier/default/securityHome'
p1157
asbasbasbag57
(g73
g59
NtRp1158
(dp1159
g62
(dp1160
sg71
g822
sg64
(lp1161
g57
(g78
g59
NtRp1162
(dp1163
g62
(dp1164
g82
g83
ssg71
g1158
sg64
(lp1165
S'http_user_agent'
p1166
asbag57
(g78
g59
NtRp1167
(dp1168
g62
(dp1169
g89
g90
ssg71
g1158
sg64
(lp1170
S':'
asbag57
(g78
g59
NtRp1171
(dp1172
g62
(dp1173
sg71
g1158
sg64
(lp1174
g57
(g58
g59
NtRp1175
(dp1176
g62
(dp1177
g70
I4
ssg71
g1171
sg64
(lp1178
S'Mozilla/5.0 (X11; Ubuntu; Linux x86_64; rv:42.0) Gecko/20100101 Firefox/42.0'
p1179
asbasbasbag57
(g73
g59
NtRp1180
(dp1181
g62
(dp1182
sg71
g822
sg64
(lp1183
g57
(g78
g59
NtRp1184
(dp1185
g62
(dp1186
g82
g83
ssg71
g1180
sg64
(lp1187
S'is_jython'
p1188
asbag57
(g78
g59
NtRp1189
(dp1190
g62
(dp1191
g89
g90
ssg71
g1180
sg64
(lp1192
S':'
asbag57
(g78
g59
NtRp1193
(dp1194
g62
(dp1195
sg71
g1180
sg64
(lp1196
g57
(g58
g59
NtRp1197
(dp1198
g62
(dp1199
g70
I4
ssg71
g1193
sg64
(lp1200
g100
asbasbasbag57
(g73
g59
NtRp1201
(dp1202
g62
(dp1203
sg71
g822
sg64
(lp1204
g57
(g78
g59
NtRp1205
(dp1206
g62
(dp1207
g82
g83
ssg71
g1201
sg64
(lp1208
S'is_pypy'
p1209
asbag57
(g78
g59
NtRp1210
(dp1211
g62
(dp1212
g89
g90
ssg71
g1201
sg64
(lp1213
S':'
asbag57
(g78
g59
NtRp1214
(dp1215
g62
(dp1216
sg71
g1201
sg64
(lp1217
g57
(g58
g59
NtRp1218
(dp1219
g62
(dp1220
g70
I4
ssg71
g1214
sg64
(lp1221
g100
asbasbasbag57
(g73
g59
NtRp1222
(dp1223
g62
(dp1224
sg71
g822
sg64
(lp1225
g57
(g78
g59
NtRp1226
(dp1227
g62
(dp1228
g82
g83
ssg71
g1222
sg64
(lp1229
S'path_info'
p1230
asbag57
(g78
g59
NtRp1231
(dp1232
g62
(dp1233
g89
g90
ssg71
g1222
sg64
(lp1234
S':'
asbag57
(g78
g59
NtRp1235
(dp1236
g62
(dp1237
sg71
g1222
sg64
(lp1238
g57
(g58
g59
NtRp1239
(dp1240
g62
(dp1241
g70
I4
ssg71
g1235
sg64
(lp1242
S'/IIITCourier/default/searchPage'
p1243
asbasbasbag57
(g73
g59
NtRp1244
(dp1245
g62
(dp1246
sg71
g822
sg64
(lp1247
g57
(g78
g59
NtRp1248
(dp1249
g62
(dp1250
g82
g83
ssg71
g1244
sg64
(lp1251
S'query_string'
p1252
asbag57
(g78
g59
NtRp1253
(dp1254
g62
(dp1255
g89
g90
ssg71
g1244
sg64
(lp1256
S':'
asbag57
(g78
g59
NtRp1257
(dp1258
g62
(dp1259
sg71
g1244
sg64
(lp1260
g57
(g58
g59
NtRp1261
(dp1262
g62
(dp1263
g70
I4
ssg71
g1257
sg64
(lp1264
S'contact=None&from=None&name=&received=NO&to=None'
p1265
asbasbasbag57
(g73
g59
NtRp1266
(dp1267
g62
(dp1268
sg71
g822
sg64
(lp1269
g57
(g78
g59
NtRp1270
(dp1271
g62
(dp1272
g82
g83
ssg71
g1266
sg64
(lp1273
S'remote_addr'
p1274
asbag57
(g78
g59
NtRp1275
(dp1276
g62
(dp1277
g89
g90
ssg71
g1266
sg64
(lp1278
S':'
asbag57
(g78
g59
NtRp1279
(dp1280
g62
(dp1281
sg71
g1266
sg64
(lp1282
g57
(g58
g59
NtRp1283
(dp1284
g62
(dp1285
g70
I4
ssg71
g1279
sg64
(lp1286
g190
asbasbasbag57
(g73
g59
NtRp1287
(dp1288
g62
(dp1289
sg71
g822
sg64
(lp1290
g57
(g78
g59
NtRp1291
(dp1292
g62
(dp1293
g82
g83
ssg71
g1287
sg64
(lp1294
S'remote_port'
p1295
asbag57
(g78
g59
NtRp1296
(dp1297
g62
(dp1298
g89
g90
ssg71
g1287
sg64
(lp1299
S':'
asbag57
(g78
g59
NtRp1300
(dp1301
g62
(dp1302
sg71
g1287
sg64
(lp1303
g57
(g58
g59
NtRp1304
(dp1305
g62
(dp1306
g70
I4
ssg71
g1300
sg64
(lp1307
S'57188'
p1308
asbasbasbag57
(g73
g59
NtRp1309
(dp1310
g62
(dp1311
sg71
g822
sg64
(lp1312
g57
(g78
g59
NtRp1313
(dp1314
g62
(dp1315
g82
g83
ssg71
g1309
sg64
(lp1316
S'request_method'
p1317
asbag57
(g78
g59
NtRp1318
(dp1319
g62
(dp1320
g89
g90
ssg71
g1309
sg64
(lp1321
S':'
asbag57
(g78
g59
NtRp1322
(dp1323
g62
(dp1324
sg71
g1309
sg64
(lp1325
g57
(g58
g59
NtRp1326
(dp1327
g62
(dp1328
g70
I4
ssg71
g1322
sg64
(lp1329
S'GET'
p1330
asbasbasbag57
(g73
g59
NtRp1331
(dp1332
g62
(dp1333
sg71
g822
sg64
(lp1334
g57
(g78
g59
NtRp1335
(dp1336
g62
(dp1337
g82
g83
ssg71
g1331
sg64
(lp1338
S'script_name'
p1339
asbag57
(g78
g59
NtRp1340
(dp1341
g62
(dp1342
g89
g90
ssg71
g1331
sg64
(lp1343
S':'
asbag57
(g78
g59
NtRp1344
(dp1345
g62
(dp1346
sg71
g1331
sg64
(lp1347
g57
(g58
g59
NtRp1348
(dp1349
g62
(dp1350
g70
I4
ssg71
g1344
sg64
(lp1351
S''
asbasbasbag57
(g73
g59
NtRp1352
(dp1353
g62
(dp1354
sg71
g822
sg64
(lp1355
g57
(g78
g59
NtRp1356
(dp1357
g62
(dp1358
g82
g83
ssg71
g1352
sg64
(lp1359
S'server_name'
p1360
asbag57
(g78
g59
NtRp1361
(dp1362
g62
(dp1363
g89
g90
ssg71
g1352
sg64
(lp1364
S':'
asbag57
(g78
g59
NtRp1365
(dp1366
g62
(dp1367
sg71
g1352
sg64
(lp1368
g57
(g58
g59
NtRp1369
(dp1370
g62
(dp1371
g70
I4
ssg71
g1365
sg64
(lp1372
S'gameBoy-VGN-SR53GF-B'
p1373
asbasbasbag57
(g73
g59
NtRp1374
(dp1375
g62
(dp1376
sg71
g822
sg64
(lp1377
g57
(g78
g59
NtRp1378
(dp1379
g62
(dp1380
g82
g83
ssg71
g1374
sg64
(lp1381
S'server_port'
p1382
asbag57
(g78
g59
NtRp1383
(dp1384
g62
(dp1385
g89
g90
ssg71
g1374
sg64
(lp1386
S':'
asbag57
(g78
g59
NtRp1387
(dp1388
g62
(dp1389
sg71
g1374
sg64
(lp1390
g57
(g58
g59
NtRp1391
(dp1392
g62
(dp1393
g70
I4
ssg71
g1387
sg64
(lp1394
S'8000'
p1395
asbasbasbag57
(g73
g59
NtRp1396
(dp1397
g62
(dp1398
sg71
g822
sg64
(lp1399
g57
(g78
g59
NtRp1400
(dp1401
g62
(dp1402
g82
g83
ssg71
g1396
sg64
(lp1403
S'server_protocol'
p1404
asbag57
(g78
g59
NtRp1405
(dp1406
g62
(dp1407
g89
g90
ssg71
g1396
sg64
(lp1408
S':'
asbag57
(g78
g59
NtRp1409
(dp1410
g62
(dp1411
sg71
g1396
sg64
(lp1412
g57
(g58
g59
NtRp1413
(dp1414
g62
(dp1415
g70
I4
ssg71
g1409
sg64
(lp1416
S'HTTP/1.1'
p1417
asbasbasbag57
(g73
g59
NtRp1418
(dp1419
g62
(dp1420
sg71
g822
sg64
(lp1421
g57
(g78
g59
NtRp1422
(dp1423
g62
(dp1424
g82
g83
ssg71
g1418
sg64
(lp1425
S'server_software'
p1426
asbag57
(g78
g59
NtRp1427
(dp1428
g62
(dp1429
g89
g90
ssg71
g1418
sg64
(lp1430
S':'
asbag57
(g78
g59
NtRp1431
(dp1432
g62
(dp1433
sg71
g1418
sg64
(lp1434
g57
(g58
g59
NtRp1435
(dp1436
g62
(dp1437
g70
I4
ssg71
g1431
sg64
(lp1438
S'Rocket 1.2.4'
p1439
asbasbasbag57
(g73
g59
NtRp1440
(dp1441
g62
(dp1442
sg71
g822
sg64
(lp1443
g57
(g78
g59
NtRp1444
(dp1445
g62
(dp1446
g82
g83
ssg71
g1440
sg64
(lp1447
S'web2py_crontype'
p1448
asbag57
(g78
g59
NtRp1449
(dp1450
g62
(dp1451
g89
g90
ssg71
g1440
sg64
(lp1452
S':'
asbag57
(g78
g59
NtRp1453
(dp1454
g62
(dp1455
sg71
g1440
sg64
(lp1456
g57
(g58
g59
NtRp1457
(dp1458
g62
(dp1459
g70
I4
ssg71
g1453
sg64
(lp1460
S'hard'
p1461
asbasbasbag57
(g73
g59
NtRp1462
(dp1463
g62
(dp1464
sg71
g822
sg64
(lp1465
g57
(g78
g59
NtRp1466
(dp1467
g62
(dp1468
g82
g83
ssg71
g1462
sg64
(lp1469
S'web2py_path'
p1470
asbag57
(g78
g59
NtRp1471
(dp1472
g62
(dp1473
g89
g90
ssg71
g1462
sg64
(lp1474
S':'
asbag57
(g78
g59
NtRp1475
(dp1476
g62
(dp1477
sg71
g1462
sg64
(lp1478
g57
(g58
g59
NtRp1479
(dp1480
g62
(dp1481
g70
I4
ssg71
g1475
sg64
(lp1482
g869
asbasbasbag57
(g73
g59
NtRp1483
(dp1484
g62
(dp1485
sg71
g822
sg64
(lp1486
g57
(g78
g59
NtRp1487
(dp1488
g62
(dp1489
g82
g83
ssg71
g1483
sg64
(lp1490
S'web2py_version'
p1491
asbag57
(g78
g59
NtRp1492
(dp1493
g62
(dp1494
g89
g90
ssg71
g1483
sg64
(lp1495
S':'
asbag57
(g78
g59
NtRp1496
(dp1497
g62
(dp1498
sg71
g1483
sg64
(lp1499
g57
(g58
g59
NtRp1500
(dp1501
g62
(dp1502
g70
I4
ssg71
g1496
sg64
(lp1503
g57
(g66
g59
NtRp1504
(dp1505
g62
(dp1506
g70
I3
ssg71
Nsg64
(lp1507
g57
(g73
g59
NtRp1508
(dp1509
g62
(dp1510
sg71
g1504
sg64
(lp1511
g57
(g78
g59
NtRp1512
(dp1513
g62
(dp1514
sg71
g1508
sg64
(lp1515
g57
(g58
g59
NtRp1516
(dp1517
g62
(dp1518
g70
I3
ssg71
g1512
sg64
(lp1519
S'1'
asbasbasbag57
(g73
g59
NtRp1520
(dp1521
g62
(dp1522
sg71
g1504
sg64
(lp1523
g57
(g78
g59
NtRp1524
(dp1525
g62
(dp1526
sg71
g1520
sg64
(lp1527
g57
(g58
g59
NtRp1528
(dp1529
g62
(dp1530
g70
I3
ssg71
g1524
sg64
(lp1531
S'99'
p1532
asbasbasbag57
(g73
g59
NtRp1533
(dp1534
g62
(dp1535
sg71
g1504
sg64
(lp1536
g57
(g78
g59
NtRp1537
(dp1538
g62
(dp1539
sg71
g1533
sg64
(lp1540
g57
(g58
g59
NtRp1541
(dp1542
g62
(dp1543
g70
I3
ssg71
g1537
sg64
(lp1544
S'7'
asbasbasbag57
(g73
g59
NtRp1545
(dp1546
g62
(dp1547
sg71
g1504
sg64
(lp1548
g57
(g78
g59
NtRp1549
(dp1550
g62
(dp1551
sg71
g1545
sg64
(lp1552
g57
(g58
g59
NtRp1553
(dp1554
g62
(dp1555
g70
I3
ssg71
g1549
sg64
(lp1556
S'datetime.datetime(2012, 3, 4, 22, 12, 8)'
p1557
asbasbasbag57
(g73
g59
NtRp1558
(dp1559
g62
(dp1560
sg71
g1504
sg64
(lp1561
g57
(g78
g59
NtRp1562
(dp1563
g62
(dp1564
sg71
g1558
sg64
(lp1565
g57
(g58
g59
NtRp1566
(dp1567
g62
(dp1568
g70
I3
ssg71
g1562
sg64
(lp1569
S'stable'
p1570
asbasbasbasbasbasbasbag57
(g73
g59
NtRp1571
(dp1572
g62
(dp1573
sg71
g822
sg64
(lp1574
g57
(g78
g59
NtRp1575
(dp1576
g62
(dp1577
g82
g83
ssg71
g1571
sg64
(lp1578
S'wsgi_errors'
p1579
asbag57
(g78
g59
NtRp1580
(dp1581
g62
(dp1582
g89
g90
ssg71
g1571
sg64
(lp1583
S':'
asbag57
(g78
g59
NtRp1584
(dp1585
g62
(dp1586
sg71
g1571
sg64
(lp1587
g57
(g58
g59
NtRp1588
(dp1589
g62
(dp1590
g70
I4
ssg71
g1584
sg64
(lp1591
S"<open file '<stderr>', mode 'w' at 0x7fa71a3bc1e0>"
p1592
asbasbasbag57
(g73
g59
NtRp1593
(dp1594
g62
(dp1595
sg71
g822
sg64
(lp1596
g57
(g78
g59
NtRp1597
(dp1598
g62
(dp1599
g82
g83
ssg71
g1593
sg64
(lp1600
S'wsgi_file_wrapper'
p1601
asbag57
(g78
g59
NtRp1602
(dp1603
g62
(dp1604
g89
g90
ssg71
g1593
sg64
(lp1605
S':'
asbag57
(g78
g59
NtRp1606
(dp1607
g62
(dp1608
sg71
g1593
sg64
(lp1609
g57
(g58
g59
NtRp1610
(dp1611
g62
(dp1612
g70
I4
ssg71
g1606
sg64
(lp1613
S'<class wsgiref.util.FileWrapper at 0x7fa715d59258>'
p1614
asbasbasbag57
(g73
g59
NtRp1615
(dp1616
g62
(dp1617
sg71
g822
sg64
(lp1618
g57
(g78
g59
NtRp1619
(dp1620
g62
(dp1621
g82
g83
ssg71
g1615
sg64
(lp1622
S'wsgi_input'
p1623
asbag57
(g78
g59
NtRp1624
(dp1625
g62
(dp1626
g89
g90
ssg71
g1615
sg64
(lp1627
S':'
asbag57
(g78
g59
NtRp1628
(dp1629
g62
(dp1630
sg71
g1615
sg64
(lp1631
g57
(g58
g59
NtRp1632
(dp1633
g62
(dp1634
g70
I4
ssg71
g1628
sg64
(lp1635
S'<socket._fileobject object at 0x7fa6c78ebc50>'
p1636
asbasbasbag57
(g73
g59
NtRp1637
(dp1638
g62
(dp1639
sg71
g822
sg64
(lp1640
g57
(g78
g59
NtRp1641
(dp1642
g62
(dp1643
g82
g83
ssg71
g1637
sg64
(lp1644
S'wsgi_multiprocess'
p1645
asbag57
(g78
g59
NtRp1646
(dp1647
g62
(dp1648
g89
g90
ssg71
g1637
sg64
(lp1649
S':'
asbag57
(g78
g59
NtRp1650
(dp1651
g62
(dp1652
sg71
g1637
sg64
(lp1653
g57
(g58
g59
NtRp1654
(dp1655
g62
(dp1656
g70
I4
ssg71
g1650
sg64
(lp1657
g100
asbasbasbag57
(g73
g59
NtRp1658
(dp1659
g62
(dp1660
sg71
g822
sg64
(lp1661
g57
(g78
g59
NtRp1662
(dp1663
g62
(dp1664
g82
g83
ssg71
g1658
sg64
(lp1665
S'wsgi_multithread'
p1666
asbag57
(g78
g59
NtRp1667
(dp1668
g62
(dp1669
g89
g90
ssg71
g1658
sg64
(lp1670
S':'
asbag57
(g78
g59
NtRp1671
(dp1672
g62
(dp1673
sg71
g1658
sg64
(lp1674
g57
(g58
g59
NtRp1675
(dp1676
g62
(dp1677
g70
I4
ssg71
g1671
sg64
(lp1678
S'True'
p1679
asbasbasbag57
(g73
g59
NtRp1680
(dp1681
g62
(dp1682
sg71
g822
sg64
(lp1683
g57
(g78
g59
NtRp1684
(dp1685
g62
(dp1686
g82
g83
ssg71
g1680
sg64
(lp1687
S'wsgi_run_once'
p1688
asbag57
(g78
g59
NtRp1689
(dp1690
g62
(dp1691
g89
g90
ssg71
g1680
sg64
(lp1692
S':'
asbag57
(g78
g59
NtRp1693
(dp1694
g62
(dp1695
sg71
g1680
sg64
(lp1696
g57
(g58
g59
NtRp1697
(dp1698
g62
(dp1699
g70
I4
ssg71
g1693
sg64
(lp1700
g100
asbasbasbag57
(g73
g59
NtRp1701
(dp1702
g62
(dp1703
sg71
g822
sg64
(lp1704
g57
(g78
g59
NtRp1705
(dp1706
g62
(dp1707
g82
g83
ssg71
g1701
sg64
(lp1708
S'wsgi_url_scheme'
p1709
asbag57
(g78
g59
NtRp1710
(dp1711
g62
(dp1712
g89
g90
ssg71
g1701
sg64
(lp1713
S':'
asbag57
(g78
g59
NtRp1714
(dp1715
g62
(dp1716
sg71
g1701
sg64
(lp1717
g57
(g58
g59
NtRp1718
(dp1719
g62
(dp1720
g70
I4
ssg71
g1714
sg64
(lp1721
S'http'
p1722
asbasbasbag57
(g73
g59
NtRp1723
(dp1724
g62
(dp1725
sg71
g822
sg64
(lp1726
g57
(g78
g59
NtRp1727
(dp1728
g62
(dp1729
g82
g83
ssg71
g1723
sg64
(lp1730
S'wsgi_version'
p1731
asbag57
(g78
g59
NtRp1732
(dp1733
g62
(dp1734
g89
g90
ssg71
g1723
sg64
(lp1735
S':'
asbag57
(g78
g59
NtRp1736
(dp1737
g62
(dp1738
sg71
g1723
sg64
(lp1739
g57
(g58
g59
NtRp1740
(dp1741
g62
(dp1742
g70
I4
ssg71
g1736
sg64
(lp1743
g57
(g66
g59
NtRp1744
(dp1745
g62
(dp1746
g70
I3
ssg71
Nsg64
(lp1747
g57
(g73
g59
NtRp1748
(dp1749
g62
(dp1750
sg71
g1744
sg64
(lp1751
g57
(g78
g59
NtRp1752
(dp1753
g62
(dp1754
sg71
g1748
sg64
(lp1755
g57
(g58
g59
NtRp1756
(dp1757
g62
(dp1758
g70
I3
ssg71
g1752
sg64
(lp1759
S'1'
asbasbasbag57
(g73
g59
NtRp1760
(dp1761
g62
(dp1762
sg71
g1744
sg64
(lp1763
g57
(g78
g59
NtRp1764
(dp1765
g62
(dp1766
sg71
g1760
sg64
(lp1767
g57
(g58
g59
NtRp1768
(dp1769
g62
(dp1770
g70
I3
ssg71
g1764
sg64
(lp1771
S'0'
asbasbasbasbasbasbasbasbasbasbasbag57
(g73
g59
NtRp1772
(dp1773
g62
(dp1774
sg71
g67
sg64
(lp1775
g57
(g78
g59
NtRp1776
(dp1777
g62
(dp1778
g82
g83
ssg71
g1772
sg64
(lp1779
S'extension'
p1780
asbag57
(g78
g59
NtRp1781
(dp1782
g62
(dp1783
g89
g90
ssg71
g1772
sg64
(lp1784
S':'
asbag57
(g78
g59
NtRp1785
(dp1786
g62
(dp1787
sg71
g1772
sg64
(lp1788
g57
(g58
g59
NtRp1789
(dp1790
g62
(dp1791
g70
I5
ssg71
g1785
sg64
(lp1792
S'html'
p1793
asbasbasbag57
(g73
g59
NtRp1794
(dp1795
g62
(dp1796
sg71
g67
sg64
(lp1797
g57
(g78
g59
NtRp1798
(dp1799
g62
(dp1800
g82
g83
ssg71
g1794
sg64
(lp1801
S'folder'
p1802
asbag57
(g78
g59
NtRp1803
(dp1804
g62
(dp1805
g89
g90
ssg71
g1794
sg64
(lp1806
S':'
asbag57
(g78
g59
NtRp1807
(dp1808
g62
(dp1809
sg71
g1794
sg64
(lp1810
g57
(g58
g59
NtRp1811
(dp1812
g62
(dp1813
g70
I5
ssg71
g1807
sg64
(lp1814
S'/home/game_boy/web2py/applications/IIITCourier/'
p1815
asbasbasbag57
(g73
g59
NtRp1816
(dp1817
g62
(dp1818
sg71
g67
sg64
(lp1819
g57
(g78
g59
NtRp1820
(dp1821
g62
(dp1822
g82
g83
ssg71
g1816
sg64
(lp1823
S'function'
p1824
asbag57
(g78
g59
NtRp1825
(dp1826
g62
(dp1827
g89
g90
ssg71
g1816
sg64
(lp1828
S':'
asbag57
(g78
g59
NtRp1829
(dp1830
g62
(dp1831
sg71
g1816
sg64
(lp1832
g57
(g58
g59
NtRp1833
(dp1834
g62
(dp1835
g70
I5
ssg71
g1829
sg64
(lp1836
S'searchPage'
p1837
asbasbasbag57
(g73
g59
NtRp1838
(dp1839
g62
(dp1840
sg71
g67
sg64
(lp1841
g57
(g78
g59
NtRp1842
(dp1843
g62
(dp1844
g82
g83
ssg71
g1838
sg64
(lp1845
S'get_vars'
p1846
asbag57
(g78
g59
NtRp1847
(dp1848
g62
(dp1849
g89
g90
ssg71
g1838
sg64
(lp1850
S':'
asbag57
(g78
g59
NtRp1851
(dp1852
g62
(dp1853
sg71
g1838
sg64
(lp1854
g57
(g58
g59
NtRp1855
(dp1856
g62
(dp1857
g70
I5
ssg71
g1851
sg64
(lp1858
g57
(g66
g59
NtRp1859
(dp1860
g62
(dp1861
g70
I4
ssg71
Nsg64
(lp1862
g57
(g73
g59
NtRp1863
(dp1864
g62
(dp1865
sg71
g1859
sg64
(lp1866
g57
(g78
g59
NtRp1867
(dp1868
g62
(dp1869
g82
g83
ssg71
g1863
sg64
(lp1870
S'contact'
p1871
asbag57
(g78
g59
NtRp1872
(dp1873
g62
(dp1874
g89
g90
ssg71
g1863
sg64
(lp1875
S':'
asbag57
(g78
g59
NtRp1876
(dp1877
g62
(dp1878
sg71
g1863
sg64
(lp1879
g57
(g58
g59
NtRp1880
(dp1881
g62
(dp1882
g70
I4
ssg71
g1876
sg64
(lp1883
S'None'
p1884
asbasbasbag57
(g73
g59
NtRp1885
(dp1886
g62
(dp1887
sg71
g1859
sg64
(lp1888
g57
(g78
g59
NtRp1889
(dp1890
g62
(dp1891
g82
g83
ssg71
g1885
sg64
(lp1892
S'from'
p1893
asbag57
(g78
g59
NtRp1894
(dp1895
g62
(dp1896
g89
g90
ssg71
g1885
sg64
(lp1897
S':'
asbag57
(g78
g59
NtRp1898
(dp1899
g62
(dp1900
sg71
g1885
sg64
(lp1901
g57
(g58
g59
NtRp1902
(dp1903
g62
(dp1904
g70
I4
ssg71
g1898
sg64
(lp1905
S'None'
p1906
asbasbasbag57
(g73
g59
NtRp1907
(dp1908
g62
(dp1909
sg71
g1859
sg64
(lp1910
g57
(g78
g59
NtRp1911
(dp1912
g62
(dp1913
g82
g83
ssg71
g1907
sg64
(lp1914
S'name'
p1915
asbag57
(g78
g59
NtRp1916
(dp1917
g62
(dp1918
g89
g90
ssg71
g1907
sg64
(lp1919
S':'
asbag57
(g78
g59
NtRp1920
(dp1921
g62
(dp1922
sg71
g1907
sg64
(lp1923
g57
(g58
g59
NtRp1924
(dp1925
g62
(dp1926
g70
I4
ssg71
g1920
sg64
(lp1927
S''
asbasbasbag57
(g73
g59
NtRp1928
(dp1929
g62
(dp1930
sg71
g1859
sg64
(lp1931
g57
(g78
g59
NtRp1932
(dp1933
g62
(dp1934
g82
g83
ssg71
g1928
sg64
(lp1935
S'received'
p1936
asbag57
(g78
g59
NtRp1937
(dp1938
g62
(dp1939
g89
g90
ssg71
g1928
sg64
(lp1940
S':'
asbag57
(g78
g59
NtRp1941
(dp1942
g62
(dp1943
sg71
g1928
sg64
(lp1944
g57
(g58
g59
NtRp1945
(dp1946
g62
(dp1947
g70
I4
ssg71
g1941
sg64
(lp1948
S'NO'
p1949
asbasbasbag57
(g73
g59
NtRp1950
(dp1951
g62
(dp1952
sg71
g1859
sg64
(lp1953
g57
(g78
g59
NtRp1954
(dp1955
g62
(dp1956
g82
g83
ssg71
g1950
sg64
(lp1957
S'to'
p1958
asbag57
(g78
g59
NtRp1959
(dp1960
g62
(dp1961
g89
g90
ssg71
g1950
sg64
(lp1962
S':'
asbag57
(g78
g59
NtRp1963
(dp1964
g62
(dp1965
sg71
g1950
sg64
(lp1966
g57
(g58
g59
NtRp1967
(dp1968
g62
(dp1969
g70
I4
ssg71
g1963
sg64
(lp1970
S'None'
p1971
asbasbasbasbasbasbasbag57
(g73
g59
NtRp1972
(dp1973
g62
(dp1974
sg71
g67
sg64
(lp1975
g57
(g78
g59
NtRp1976
(dp1977
g62
(dp1978
g82
g83
ssg71
g1972
sg64
(lp1979
S'global_settings'
p1980
asbag57
(g78
g59
NtRp1981
(dp1982
g62
(dp1983
g89
g90
ssg71
g1972
sg64
(lp1984
S':'
asbag57
(g78
g59
NtRp1985
(dp1986
g62
(dp1987
sg71
g1972
sg64
(lp1988
g57
(g58
g59
NtRp1989
(dp1990
g62
(dp1991
g70
I5
ssg71
g1985
sg64
(lp1992
g57
(g66
g59
NtRp1993
(dp1994
g62
(dp1995
g70
I4
ssg71
Nsg64
(lp1996
g57
(g73
g59
NtRp1997
(dp1998
g62
(dp1999
sg71
g1993
sg64
(lp2000
g57
(g78
g59
NtRp2001
(dp2002
g62
(dp2003
g82
g83
ssg71
g1997
sg64
(lp2004
g834
asbag57
(g78
g59
NtRp2005
(dp2006
g62
(dp2007
g89
g90
ssg71
g1997
sg64
(lp2008
S':'
asbag57
(g78
g59
NtRp2009
(dp2010
g62
(dp2011
sg71
g1997
sg64
(lp2012
g57
(g58
g59
NtRp2013
(dp2014
g62
(dp2015
g70
I4
ssg71
g2009
sg64
(lp2016
S"set(['/home/game_boy/web2py/applications/examples/', '/home/game_boy/web2py/applications/welcome/', '/home/game_boy/web2py/applications/IIITCourier/', '/home/game_boy/web2py/applications/admin/'])"
p2017
asbasbasbag57
(g73
g59
NtRp2018
(dp2019
g62
(dp2020
sg71
g1993
sg64
(lp2021
g57
(g78
g59
NtRp2022
(dp2023
g62
(dp2024
g82
g83
ssg71
g2018
sg64
(lp2025
g856
asbag57
(g78
g59
NtRp2026
(dp2027
g62
(dp2028
g89
g90
ssg71
g2018
sg64
(lp2029
S':'
asbag57
(g78
g59
NtRp2030
(dp2031
g62
(dp2032
sg71
g2018
sg64
(lp2033
g57
(g58
g59
NtRp2034
(dp2035
g62
(dp2036
g70
I4
ssg71
g2030
sg64
(lp2037
g869
asbasbasbag57
(g73
g59
NtRp2038
(dp2039
g62
(dp2040
sg71
g1993
sg64
(lp2041
g57
(g78
g59
NtRp2042
(dp2043
g62
(dp2044
g82
g83
ssg71
g2038
sg64
(lp2045
g878
asbag57
(g78
g59
NtRp2046
(dp2047
g62
(dp2048
g89
g90
ssg71
g2038
sg64
(lp2049
S':'
asbag57
(g78
g59
NtRp2050
(dp2051
g62
(dp2052
sg71
g2038
sg64
(lp2053
g57
(g58
g59
NtRp2054
(dp2055
g62
(dp2056
g70
I4
ssg71
g2050
sg64
(lp2057
g57
(g66
g59
NtRp2058
(dp2059
g62
(dp2060
g70
I3
ssg71
Nsg64
(lp2061
sbasbasbasbag57
(g73
g59
NtRp2062
(dp2063
g62
(dp2064
sg71
g1993
sg64
(lp2065
g57
(g78
g59
NtRp2066
(dp2067
g62
(dp2068
g82
g83
ssg71
g2062
sg64
(lp2069
g903
asbag57
(g78
g59
NtRp2070
(dp2071
g62
(dp2072
g89
g90
ssg71
g2062
sg64
(lp2073
S':'
asbag57
(g78
g59
NtRp2074
(dp2075
g62
(dp2076
sg71
g2062
sg64
(lp2077
g57
(g58
g59
NtRp2078
(dp2079
g62
(dp2080
g70
I4
ssg71
g2074
sg64
(lp2081
S"<Values at 0x7fa715cc8758: {'verbose': False, 'ip': '127.0.0.1', 'shutdown_timeout': 5, 'taskbar': False, 'nocron': False, 'pid_filename': 'httpserver.pid', 'maxthreads': None, 'softcron': False, 'server_name': 'gameBoy-VGN-SR53GF-B', 'bpython': False, 'nogui': False, 'port': 8000, 'extcron': False, 'debuglevel': 30, 'test': None, 'folder': '/home/game_boy/web2py', 'config': '', 'import_models': False, 'winservice': '', 'shell': None, 'run': '', 'log_filename': 'httpserver.log', 'args': [''], 'socket_timeout': 5, 'ssl_ca_certificate': None, 'scheduler': None, 'profiler_filename': None, 'ssl_private_key': '', 'password': '<ask>', 'request_queue_size': 5, 'ssl_certificate': '', 'cronjob': False, 'numthreads': None, 'quiet': False, 'interfaces': None, 'minthreads': None, 'timeout': 10, 'plain': False, 'nobanner': False}>"
p2082
asbasbasbag57
(g73
g59
NtRp2083
(dp2084
g62
(dp2085
sg71
g1993
sg64
(lp2086
g57
(g78
g59
NtRp2087
(dp2088
g62
(dp2089
g82
g83
ssg71
g2083
sg64
(lp2090
g925
asbag57
(g78
g59
NtRp2091
(dp2092
g62
(dp2093
g89
g90
ssg71
g2083
sg64
(lp2094
S':'
asbag57
(g78
g59
NtRp2095
(dp2096
g62
(dp2097
sg71
g2083
sg64
(lp2098
g57
(g58
g59
NtRp2099
(dp2100
g62
(dp2101
g70
I4
ssg71
g2095
sg64
(lp2102
S'set([])'
p2103
asbasbasbag57
(g73
g59
NtRp2104
(dp2105
g62
(dp2106
sg71
g1993
sg64
(lp2107
g57
(g78
g59
NtRp2108
(dp2109
g62
(dp2110
g82
g83
ssg71
g2104
sg64
(lp2111
g947
asbag57
(g78
g59
NtRp2112
(dp2113
g62
(dp2114
g89
g90
ssg71
g2104
sg64
(lp2115
S':'
asbag57
(g78
g59
NtRp2116
(dp2117
g62
(dp2118
sg71
g2104
sg64
(lp2119
g57
(g58
g59
NtRp2120
(dp2121
g62
(dp2122
g70
I4
ssg71
g2116
sg64
(lp2123
g100
asbasbasbag57
(g73
g59
NtRp2124
(dp2125
g62
(dp2126
sg71
g1993
sg64
(lp2127
g57
(g78
g59
NtRp2128
(dp2129
g62
(dp2130
g82
g83
ssg71
g2124
sg64
(lp2131
g968
asbag57
(g78
g59
NtRp2132
(dp2133
g62
(dp2134
g89
g90
ssg71
g2124
sg64
(lp2135
S':'
asbag57
(g78
g59
NtRp2136
(dp2137
g62
(dp2138
sg71
g2124
sg64
(lp2139
g57
(g58
g59
NtRp2140
(dp2141
g62
(dp2142
g70
I4
ssg71
g2136
sg64
(lp2143
g981
asbasbasbag57
(g73
g59
NtRp2144
(dp2145
g62
(dp2146
sg71
g1993
sg64
(lp2147
g57
(g78
g59
NtRp2148
(dp2149
g62
(dp2150
g82
g83
ssg71
g2144
sg64
(lp2151
g1188
asbag57
(g78
g59
NtRp2152
(dp2153
g62
(dp2154
g89
g90
ssg71
g2144
sg64
(lp2155
S':'
asbag57
(g78
g59
NtRp2156
(dp2157
g62
(dp2158
sg71
g2144
sg64
(lp2159
g57
(g58
g59
NtRp2160
(dp2161
g62
(dp2162
g70
I4
ssg71
g2156
sg64
(lp2163
g100
asbasbasbag57
(g73
g59
NtRp2164
(dp2165
g62
(dp2166
sg71
g1993
sg64
(lp2167
g57
(g78
g59
NtRp2168
(dp2169
g62
(dp2170
g82
g83
ssg71
g2164
sg64
(lp2171
g1209
asbag57
(g78
g59
NtRp2172
(dp2173
g62
(dp2174
g89
g90
ssg71
g2164
sg64
(lp2175
S':'
asbag57
(g78
g59
NtRp2176
(dp2177
g62
(dp2178
sg71
g2164
sg64
(lp2179
g57
(g58
g59
NtRp2180
(dp2181
g62
(dp2182
g70
I4
ssg71
g2176
sg64
(lp2183
g100
asbasbasbag57
(g73
g59
NtRp2184
(dp2185
g62
(dp2186
sg71
g1993
sg64
(lp2187
g57
(g78
g59
NtRp2188
(dp2189
g62
(dp2190
g82
g83
ssg71
g2184
sg64
(lp2191
g1448
asbag57
(g78
g59
NtRp2192
(dp2193
g62
(dp2194
g89
g90
ssg71
g2184
sg64
(lp2195
S':'
asbag57
(g78
g59
NtRp2196
(dp2197
g62
(dp2198
sg71
g2184
sg64
(lp2199
g57
(g58
g59
NtRp2200
(dp2201
g62
(dp2202
g70
I4
ssg71
g2196
sg64
(lp2203
g1461
asbasbasbag57
(g73
g59
NtRp2204
(dp2205
g62
(dp2206
sg71
g1993
sg64
(lp2207
g57
(g78
g59
NtRp2208
(dp2209
g62
(dp2210
g82
g83
ssg71
g2204
sg64
(lp2211
g1491
asbag57
(g78
g59
NtRp2212
(dp2213
g62
(dp2214
g89
g90
ssg71
g2204
sg64
(lp2215
S':'
asbag57
(g78
g59
NtRp2216
(dp2217
g62
(dp2218
sg71
g2204
sg64
(lp2219
g57
(g58
g59
NtRp2220
(dp2221
g62
(dp2222
g70
I4
ssg71
g2216
sg64
(lp2223
g57
(g66
g59
NtRp2224
(dp2225
g62
(dp2226
g70
I3
ssg71
Nsg64
(lp2227
g57
(g73
g59
NtRp2228
(dp2229
g62
(dp2230
sg71
g2224
sg64
(lp2231
g57
(g78
g59
NtRp2232
(dp2233
g62
(dp2234
sg71
g2228
sg64
(lp2235
g57
(g58
g59
NtRp2236
(dp2237
g62
(dp2238
g70
I3
ssg71
g2232
sg64
(lp2239
S'1'
asbasbasbag57
(g73
g59
NtRp2240
(dp2241
g62
(dp2242
sg71
g2224
sg64
(lp2243
g57
(g78
g59
NtRp2244
(dp2245
g62
(dp2246
sg71
g2240
sg64
(lp2247
g57
(g58
g59
NtRp2248
(dp2249
g62
(dp2250
g70
I3
ssg71
g2244
sg64
(lp2251
S'99'
p2252
asbasbasbag57
(g73
g59
NtRp2253
(dp2254
g62
(dp2255
sg71
g2224
sg64
(lp2256
g57
(g78
g59
NtRp2257
(dp2258
g62
(dp2259
sg71
g2253
sg64
(lp2260
g57
(g58
g59
NtRp2261
(dp2262
g62
(dp2263
g70
I3
ssg71
g2257
sg64
(lp2264
S'7'
asbasbasbag57
(g73
g59
NtRp2265
(dp2266
g62
(dp2267
sg71
g2224
sg64
(lp2268
g57
(g78
g59
NtRp2269
(dp2270
g62
(dp2271
sg71
g2265
sg64
(lp2272
g57
(g58
g59
NtRp2273
(dp2274
g62
(dp2275
g70
I3
ssg71
g2269
sg64
(lp2276
S'datetime.datetime(2012, 3, 4, 22, 12, 8)'
p2277
asbasbasbag57
(g73
g59
NtRp2278
(dp2279
g62
(dp2280
sg71
g2224
sg64
(lp2281
g57
(g78
g59
NtRp2282
(dp2283
g62
(dp2284
sg71
g2278
sg64
(lp2285
g57
(g58
g59
NtRp2286
(dp2287
g62
(dp2288
g70
I3
ssg71
g2282
sg64
(lp2289
g1570
asbasbasbasbasbasbasbasbasbasbasbag57
(g73
g59
NtRp2290
(dp2291
g62
(dp2292
sg71
g67
sg64
(lp2293
g57
(g78
g59
NtRp2294
(dp2295
g62
(dp2296
g82
g83
ssg71
g2290
sg64
(lp2297
S'is_https'
p2298
asbag57
(g78
g59
NtRp2299
(dp2300
g62
(dp2301
g89
g90
ssg71
g2290
sg64
(lp2302
S':'
asbag57
(g78
g59
NtRp2303
(dp2304
g62
(dp2305
sg71
g2290
sg64
(lp2306
g57
(g58
g59
NtRp2307
(dp2308
g62
(dp2309
g70
I5
ssg71
g2303
sg64
(lp2310
g100
asbasbasbag57
(g73
g59
NtRp2311
(dp2312
g62
(dp2313
sg71
g67
sg64
(lp2314
g57
(g78
g59
NtRp2315
(dp2316
g62
(dp2317
g82
g83
ssg71
g2311
sg64
(lp2318
S'is_local'
p2319
asbag57
(g78
g59
NtRp2320
(dp2321
g62
(dp2322
g89
g90
ssg71
g2311
sg64
(lp2323
S':'
asbag57
(g78
g59
NtRp2324
(dp2325
g62
(dp2326
sg71
g2311
sg64
(lp2327
g57
(g58
g59
NtRp2328
(dp2329
g62
(dp2330
g70
I5
ssg71
g2324
sg64
(lp2331
g1679
asbasbasbag57
(g73
g59
NtRp2332
(dp2333
g62
(dp2334
sg71
g67
sg64
(lp2335
g57
(g78
g59
NtRp2336
(dp2337
g62
(dp2338
g82
g83
ssg71
g2332
sg64
(lp2339
S'is_restful'
p2340
asbag57
(g78
g59
NtRp2341
(dp2342
g62
(dp2343
g89
g90
ssg71
g2332
sg64
(lp2344
S':'
asbag57
(g78
g59
NtRp2345
(dp2346
g62
(dp2347
sg71
g2332
sg64
(lp2348
g57
(g58
g59
NtRp2349
(dp2350
g62
(dp2351
g70
I5
ssg71
g2345
sg64
(lp2352
g100
asbasbasbag57
(g73
g59
NtRp2353
(dp2354
g62
(dp2355
sg71
g67
sg64
(lp2356
g57
(g78
g59
NtRp2357
(dp2358
g62
(dp2359
g82
g83
ssg71
g2353
sg64
(lp2360
S'now'
p2361
asbag57
(g78
g59
NtRp2362
(dp2363
g62
(dp2364
g89
g90
ssg71
g2353
sg64
(lp2365
S':'
asbag57
(g78
g59
NtRp2366
(dp2367
g62
(dp2368
sg71
g2353
sg64
(lp2369
g57
(g58
g59
NtRp2370
(dp2371
g62
(dp2372
g70
I5
ssg71
g2366
sg64
(lp2373
S'datetime.datetime(2015, 11, 16, 3, 7, 20, 584544)'
p2374
asbasbasbag57
(g73
g59
NtRp2375
(dp2376
g62
(dp2377
sg71
g67
sg64
(lp2378
g57
(g78
g59
NtRp2379
(dp2380
g62
(dp2381
g82
g83
ssg71
g2375
sg64
(lp2382
S'post_vars'
p2383
asbag57
(g78
g59
NtRp2384
(dp2385
g62
(dp2386
g89
g90
ssg71
g2375
sg64
(lp2387
S':'
asbag57
(g78
g59
NtRp2388
(dp2389
g62
(dp2390
sg71
g2375
sg64
(lp2391
g57
(g58
g59
NtRp2392
(dp2393
g62
(dp2394
g70
I5
ssg71
g2388
sg64
(lp2395
g57
(g66
g59
NtRp2396
(dp2397
g62
(dp2398
g70
I4
ssg71
Nsg64
(lp2399
sbasbasbasbag57
(g73
g59
NtRp2400
(dp2401
g62
(dp2402
sg71
g67
sg64
(lp2403
g57
(g78
g59
NtRp2404
(dp2405
g62
(dp2406
g82
g83
ssg71
g2400
sg64
(lp2407
S'url'
p2408
asbag57
(g78
g59
NtRp2409
(dp2410
g62
(dp2411
g89
g90
ssg71
g2400
sg64
(lp2412
S':'
asbag57
(g78
g59
NtRp2413
(dp2414
g62
(dp2415
sg71
g2400
sg64
(lp2416
g57
(g58
g59
NtRp2417
(dp2418
g62
(dp2419
g70
I5
ssg71
g2413
sg64
(lp2420
S'/IIITCourier/default/searchPage'
p2421
asbasbasbag57
(g73
g59
NtRp2422
(dp2423
g62
(dp2424
sg71
g67
sg64
(lp2425
g57
(g78
g59
NtRp2426
(dp2427
g62
(dp2428
g82
g83
ssg71
g2422
sg64
(lp2429
S'utcnow'
p2430
asbag57
(g78
g59
NtRp2431
(dp2432
g62
(dp2433
g89
g90
ssg71
g2422
sg64
(lp2434
S':'
asbag57
(g78
g59
NtRp2435
(dp2436
g62
(dp2437
sg71
g2422
sg64
(lp2438
g57
(g58
g59
NtRp2439
(dp2440
g62
(dp2441
g70
I5
ssg71
g2435
sg64
(lp2442
S'datetime.datetime(2015, 11, 15, 21, 37, 20, 584581)'
p2443
asbasbasbag57
(g73
g59
NtRp2444
(dp2445
g62
(dp2446
sg71
g67
sg64
(lp2447
g57
(g78
g59
NtRp2448
(dp2449
g62
(dp2450
g82
g83
ssg71
g2444
sg64
(lp2451
S'uuid'
p2452
asbag57
(g78
g59
NtRp2453
(dp2454
g62
(dp2455
g89
g90
ssg71
g2444
sg64
(lp2456
S':'
asbag57
(g78
g59
NtRp2457
(dp2458
g62
(dp2459
sg71
g2444
sg64
(lp2460
g57
(g58
g59
NtRp2461
(dp2462
g62
(dp2463
g70
I5
ssg71
g2457
sg64
(lp2464
S'IIITCourier/127.0.0.1.2015-11-16.03-07-20.aed657ee-1205-47ee-b9aa-0c080cc7d474'
p2465
asbasbasbag57
(g73
g59
NtRp2466
(dp2467
g62
(dp2468
sg71
g67
sg64
(lp2469
g57
(g78
g59
NtRp2470
(dp2471
g62
(dp2472
g82
g83
ssg71
g2466
sg64
(lp2473
S'vars'
p2474
asbag57
(g78
g59
NtRp2475
(dp2476
g62
(dp2477
g89
g90
ssg71
g2466
sg64
(lp2478
S':'
asbag57
(g78
g59
NtRp2479
(dp2480
g62
(dp2481
sg71
g2466
sg64
(lp2482
g57
(g58
g59
NtRp2483
(dp2484
g62
(dp2485
g70
I5
ssg71
g2479
sg64
(lp2486
g57
(g66
g59
NtRp2487
(dp2488
g62
(dp2489
g70
I4
ssg71
Nsg64
(lp2490
g57
(g73
g59
NtRp2491
(dp2492
g62
(dp2493
sg71
g2487
sg64
(lp2494
g57
(g78
g59
NtRp2495
(dp2496
g62
(dp2497
g82
g83
ssg71
g2491
sg64
(lp2498
g1871
asbag57
(g78
g59
NtRp2499
(dp2500
g62
(dp2501
g89
g90
ssg71
g2491
sg64
(lp2502
S':'
asbag57
(g78
g59
NtRp2503
(dp2504
g62
(dp2505
sg71
g2491
sg64
(lp2506
g57
(g58
g59
NtRp2507
(dp2508
g62
(dp2509
g70
I4
ssg71
g2503
sg64
(lp2510
g1884
asbasbasbag57
(g73
g59
NtRp2511
(dp2512
g62
(dp2513
sg71
g2487
sg64
(lp2514
g57
(g78
g59
NtRp2515
(dp2516
g62
(dp2517
g82
g83
ssg71
g2511
sg64
(lp2518
g1893
asbag57
(g78
g59
NtRp2519
(dp2520
g62
(dp2521
g89
g90
ssg71
g2511
sg64
(lp2522
S':'
asbag57
(g78
g59
NtRp2523
(dp2524
g62
(dp2525
sg71
g2511
sg64
(lp2526
g57
(g58
g59
NtRp2527
(dp2528
g62
(dp2529
g70
I4
ssg71
g2523
sg64
(lp2530
g1906
asbasbasbag57
(g73
g59
NtRp2531
(dp2532
g62
(dp2533
sg71
g2487
sg64
(lp2534
g57
(g78
g59
NtRp2535
(dp2536
g62
(dp2537
g82
g83
ssg71
g2531
sg64
(lp2538
g1915
asbag57
(g78
g59
NtRp2539
(dp2540
g62
(dp2541
g89
g90
ssg71
g2531
sg64
(lp2542
S':'
asbag57
(g78
g59
NtRp2543
(dp2544
g62
(dp2545
sg71
g2531
sg64
(lp2546
g57
(g58
g59
NtRp2547
(dp2548
g62
(dp2549
g70
I4
ssg71
g2543
sg64
(lp2550
S''
asbasbasbag57
(g73
g59
NtRp2551
(dp2552
g62
(dp2553
sg71
g2487
sg64
(lp2554
g57
(g78
g59
NtRp2555
(dp2556
g62
(dp2557
g82
g83
ssg71
g2551
sg64
(lp2558
g1936
asbag57
(g78
g59
NtRp2559
(dp2560
g62
(dp2561
g89
g90
ssg71
g2551
sg64
(lp2562
S':'
asbag57
(g78
g59
NtRp2563
(dp2564
g62
(dp2565
sg71
g2551
sg64
(lp2566
g57
(g58
g59
NtRp2567
(dp2568
g62
(dp2569
g70
I4
ssg71
g2563
sg64
(lp2570
g1949
asbasbasbag57
(g73
g59
NtRp2571
(dp2572
g62
(dp2573
sg71
g2487
sg64
(lp2574
g57
(g78
g59
NtRp2575
(dp2576
g62
(dp2577
g82
g83
ssg71
g2571
sg64
(lp2578
S'records'
p2579
asbag57
(g78
g59
NtRp2580
(dp2581
g62
(dp2582
g89
g90
ssg71
g2571
sg64
(lp2583
S':'
asbag57
(g78
g59
NtRp2584
(dp2585
g62
(dp2586
sg71
g2571
sg64
(lp2587
g57
(g58
g59
NtRp2588
(dp2589
g62
(dp2590
g70
I4
ssg71
g2584
sg64
(lp2591
g57
(g66
g59
NtRp2592
(dp2593
g62
(dp2594
g70
I3
ssg71
Nsg64
(lp2595
sbasbasbasbag57
(g73
g59
NtRp2596
(dp2597
g62
(dp2598
sg71
g2487
sg64
(lp2599
g57
(g78
g59
NtRp2600
(dp2601
g62
(dp2602
g82
g83
ssg71
g2596
sg64
(lp2603
g1958
asbag57
(g78
g59
NtRp2604
(dp2605
g62
(dp2606
g89
g90
ssg71
g2596
sg64
(lp2607
S':'
asbag57
(g78
g59
NtRp2608
(dp2609
g62
(dp2610
sg71
g2596
sg64
(lp2611
g57
(g58
g59
NtRp2612
(dp2613
g62
(dp2614
g70
I4
ssg71
g2608
sg64
(lp2615
g1971
asbasbasbasbasbasbasbag57
(g73
g59
NtRp2616
(dp2617
g62
(dp2618
sg71
g67
sg64
(lp2619
g57
(g78
g59
NtRp2620
(dp2621
g62
(dp2622
g82
g83
ssg71
g2616
sg64
(lp2623
S'wsgi'
p2624
asbag57
(g78
g59
NtRp2625
(dp2626
g62
(dp2627
g89
g90
ssg71
g2616
sg64
(lp2628
S':'
asbag57
(g78
g59
NtRp2629
(dp2630
g62
(dp2631
sg71
g2616
sg64
(lp2632
g57
(g58
g59
NtRp2633
(dp2634
g62
(dp2635
g70
I5
ssg71
g2629
sg64
(lp2636
g57
(g66
g59
NtRp2637
(dp2638
g62
(dp2639
g70
I4
ssg71
Nsg64
(lp2640
g57
(g73
g59
NtRp2641
(dp2642
g62
(dp2643
sg71
g2637
sg64
(lp2644
g57
(g78
g59
NtRp2645
(dp2646
g62
(dp2647
g82
g83
ssg71
g2641
sg64
(lp2648
S'environ'
p2649
asbag57
(g78
g59
NtRp2650
(dp2651
g62
(dp2652
g89
g90
ssg71
g2641
sg64
(lp2653
S':'
asbag57
(g78
g59
NtRp2654
(dp2655
g62
(dp2656
sg71
g2641
sg64
(lp2657
g57
(g58
g59
NtRp2658
(dp2659
g62
(dp2660
g70
I4
ssg71
g2654
sg64
(lp2661
g57
(g66
g59
NtRp2662
(dp2663
g62
(dp2664
g70
I3
ssg71
Nsg64
(lp2665
g57
(g73
g59
NtRp2666
(dp2667
g62
(dp2668
sg71
g2662
sg64
(lp2669
g57
(g78
g59
NtRp2670
(dp2671
g62
(dp2672
g82
g83
ssg71
g2666
sg64
(lp2673
S'HTTP_ACCEPT'
p2674
asbag57
(g78
g59
NtRp2675
(dp2676
g62
(dp2677
g89
g90
ssg71
g2666
sg64
(lp2678
S':'
asbag57
(g78
g59
NtRp2679
(dp2680
g62
(dp2681
sg71
g2666
sg64
(lp2682
g57
(g58
g59
NtRp2683
(dp2684
g62
(dp2685
g70
I3
ssg71
g2679
sg64
(lp2686
g1003
asbasbasbag57
(g73
g59
NtRp2687
(dp2688
g62
(dp2689
sg71
g2662
sg64
(lp2690
g57
(g78
g59
NtRp2691
(dp2692
g62
(dp2693
g82
g83
ssg71
g2687
sg64
(lp2694
S'HTTP_ACCEPT_ENCODING'
p2695
asbag57
(g78
g59
NtRp2696
(dp2697
g62
(dp2698
g89
g90
ssg71
g2687
sg64
(lp2699
S':'
asbag57
(g78
g59
NtRp2700
(dp2701
g62
(dp2702
sg71
g2687
sg64
(lp2703
g57
(g58
g59
NtRp2704
(dp2705
g62
(dp2706
g70
I3
ssg71
g2700
sg64
(lp2707
g1025
asbasbasbag57
(g73
g59
NtRp2708
(dp2709
g62
(dp2710
sg71
g2662
sg64
(lp2711
g57
(g78
g59
NtRp2712
(dp2713
g62
(dp2714
g82
g83
ssg71
g2708
sg64
(lp2715
S'HTTP_ACCEPT_LANGUAGE'
p2716
asbag57
(g78
g59
NtRp2717
(dp2718
g62
(dp2719
g89
g90
ssg71
g2708
sg64
(lp2720
S':'
asbag57
(g78
g59
NtRp2721
(dp2722
g62
(dp2723
sg71
g2708
sg64
(lp2724
g57
(g58
g59
NtRp2725
(dp2726
g62
(dp2727
g70
I3
ssg71
g2721
sg64
(lp2728
g1047
asbasbasbag57
(g73
g59
NtRp2729
(dp2730
g62
(dp2731
sg71
g2662
sg64
(lp2732
g57
(g78
g59
NtRp2733
(dp2734
g62
(dp2735
g82
g83
ssg71
g2729
sg64
(lp2736
S'HTTP_CACHE_CONTROL'
p2737
asbag57
(g78
g59
NtRp2738
(dp2739
g62
(dp2740
g89
g90
ssg71
g2729
sg64
(lp2741
S':'
asbag57
(g78
g59
NtRp2742
(dp2743
g62
(dp2744
sg71
g2729
sg64
(lp2745
g57
(g58
g59
NtRp2746
(dp2747
g62
(dp2748
g70
I3
ssg71
g2742
sg64
(lp2749
g1069
asbasbasbag57
(g73
g59
NtRp2750
(dp2751
g62
(dp2752
sg71
g2662
sg64
(lp2753
g57
(g78
g59
NtRp2754
(dp2755
g62
(dp2756
g82
g83
ssg71
g2750
sg64
(lp2757
S'HTTP_CONNECTION'
p2758
asbag57
(g78
g59
NtRp2759
(dp2760
g62
(dp2761
g89
g90
ssg71
g2750
sg64
(lp2762
S':'
asbag57
(g78
g59
NtRp2763
(dp2764
g62
(dp2765
sg71
g2750
sg64
(lp2766
g57
(g58
g59
NtRp2767
(dp2768
g62
(dp2769
g70
I3
ssg71
g2763
sg64
(lp2770
g1091
asbasbasbag57
(g73
g59
NtRp2771
(dp2772
g62
(dp2773
sg71
g2662
sg64
(lp2774
g57
(g78
g59
NtRp2775
(dp2776
g62
(dp2777
g82
g83
ssg71
g2771
sg64
(lp2778
S'HTTP_COOKIE'
p2779
asbag57
(g78
g59
NtRp2780
(dp2781
g62
(dp2782
g89
g90
ssg71
g2771
sg64
(lp2783
S':'
asbag57
(g78
g59
NtRp2784
(dp2785
g62
(dp2786
sg71
g2771
sg64
(lp2787
g57
(g58
g59
NtRp2788
(dp2789
g62
(dp2790
g70
I3
ssg71
g2784
sg64
(lp2791
g1113
asbasbasbag57
(g73
g59
NtRp2792
(dp2793
g62
(dp2794
sg71
g2662
sg64
(lp2795
g57
(g78
g59
NtRp2796
(dp2797
g62
(dp2798
g82
g83
ssg71
g2792
sg64
(lp2799
S'HTTP_HOST'
p2800
asbag57
(g78
g59
NtRp2801
(dp2802
g62
(dp2803
g89
g90
ssg71
g2792
sg64
(lp2804
S':'
asbag57
(g78
g59
NtRp2805
(dp2806
g62
(dp2807
sg71
g2792
sg64
(lp2808
g57
(g58
g59
NtRp2809
(dp2810
g62
(dp2811
g70
I3
ssg71
g2805
sg64
(lp2812
g1135
asbasbasbag57
(g73
g59
NtRp2813
(dp2814
g62
(dp2815
sg71
g2662
sg64
(lp2816
g57
(g78
g59
NtRp2817
(dp2818
g62
(dp2819
g82
g83
ssg71
g2813
sg64
(lp2820
S'HTTP_REFERER'
p2821
asbag57
(g78
g59
NtRp2822
(dp2823
g62
(dp2824
g89
g90
ssg71
g2813
sg64
(lp2825
S':'
asbag57
(g78
g59
NtRp2826
(dp2827
g62
(dp2828
sg71
g2813
sg64
(lp2829
g57
(g58
g59
NtRp2830
(dp2831
g62
(dp2832
g70
I3
ssg71
g2826
sg64
(lp2833
g1157
asbasbasbag57
(g73
g59
NtRp2834
(dp2835
g62
(dp2836
sg71
g2662
sg64
(lp2837
g57
(g78
g59
NtRp2838
(dp2839
g62
(dp2840
g82
g83
ssg71
g2834
sg64
(lp2841
S'HTTP_USER_AGENT'
p2842
asbag57
(g78
g59
NtRp2843
(dp2844
g62
(dp2845
g89
g90
ssg71
g2834
sg64
(lp2846
S':'
asbag57
(g78
g59
NtRp2847
(dp2848
g62
(dp2849
sg71
g2834
sg64
(lp2850
g57
(g58
g59
NtRp2851
(dp2852
g62
(dp2853
g70
I3
ssg71
g2847
sg64
(lp2854
g1179
asbasbasbag57
(g73
g59
NtRp2855
(dp2856
g62
(dp2857
sg71
g2662
sg64
(lp2858
g57
(g78
g59
NtRp2859
(dp2860
g62
(dp2861
g82
g83
ssg71
g2855
sg64
(lp2862
S'PATH_INFO'
p2863
asbag57
(g78
g59
NtRp2864
(dp2865
g62
(dp2866
g89
g90
ssg71
g2855
sg64
(lp2867
S':'
asbag57
(g78
g59
NtRp2868
(dp2869
g62
(dp2870
sg71
g2855
sg64
(lp2871
g57
(g58
g59
NtRp2872
(dp2873
g62
(dp2874
g70
I3
ssg71
g2868
sg64
(lp2875
g1243
asbasbasbag57
(g73
g59
NtRp2876
(dp2877
g62
(dp2878
sg71
g2662
sg64
(lp2879
g57
(g78
g59
NtRp2880
(dp2881
g62
(dp2882
g82
g83
ssg71
g2876
sg64
(lp2883
S'QUERY_STRING'
p2884
asbag57
(g78
g59
NtRp2885
(dp2886
g62
(dp2887
g89
g90
ssg71
g2876
sg64
(lp2888
S':'
asbag57
(g78
g59
NtRp2889
(dp2890
g62
(dp2891
sg71
g2876
sg64
(lp2892
g57
(g58
g59
NtRp2893
(dp2894
g62
(dp2895
g70
I3
ssg71
g2889
sg64
(lp2896
g1265
asbasbasbag57
(g73
g59
NtRp2897
(dp2898
g62
(dp2899
sg71
g2662
sg64
(lp2900
g57
(g78
g59
NtRp2901
(dp2902
g62
(dp2903
g82
g83
ssg71
g2897
sg64
(lp2904
S'REMOTE_ADDR'
p2905
asbag57
(g78
g59
NtRp2906
(dp2907
g62
(dp2908
g89
g90
ssg71
g2897
sg64
(lp2909
S':'
asbag57
(g78
g59
NtRp2910
(dp2911
g62
(dp2912
sg71
g2897
sg64
(lp2913
g57
(g58
g59
NtRp2914
(dp2915
g62
(dp2916
g70
I3
ssg71
g2910
sg64
(lp2917
g190
asbasbasbag57
(g73
g59
NtRp2918
(dp2919
g62
(dp2920
sg71
g2662
sg64
(lp2921
g57
(g78
g59
NtRp2922
(dp2923
g62
(dp2924
g82
g83
ssg71
g2918
sg64
(lp2925
S'REMOTE_PORT'
p2926
asbag57
(g78
g59
NtRp2927
(dp2928
g62
(dp2929
g89
g90
ssg71
g2918
sg64
(lp2930
S':'
asbag57
(g78
g59
NtRp2931
(dp2932
g62
(dp2933
sg71
g2918
sg64
(lp2934
g57
(g58
g59
NtRp2935
(dp2936
g62
(dp2937
g70
I3
ssg71
g2931
sg64
(lp2938
g1308
asbasbasbag57
(g73
g59
NtRp2939
(dp2940
g62
(dp2941
sg71
g2662
sg64
(lp2942
g57
(g78
g59
NtRp2943
(dp2944
g62
(dp2945
g82
g83
ssg71
g2939
sg64
(lp2946
S'REQUEST_METHOD'
p2947
asbag57
(g78
g59
NtRp2948
(dp2949
g62
(dp2950
g89
g90
ssg71
g2939
sg64
(lp2951
S':'
asbag57
(g78
g59
NtRp2952
(dp2953
g62
(dp2954
sg71
g2939
sg64
(lp2955
g57
(g58
g59
NtRp2956
(dp2957
g62
(dp2958
g70
I3
ssg71
g2952
sg64
(lp2959
g1330
asbasbasbag57
(g73
g59
NtRp2960
(dp2961
g62
(dp2962
sg71
g2662
sg64
(lp2963
g57
(g78
g59
NtRp2964
(dp2965
g62
(dp2966
g82
g83
ssg71
g2960
sg64
(lp2967
S'SCRIPT_NAME'
p2968
asbag57
(g78
g59
NtRp2969
(dp2970
g62
(dp2971
g89
g90
ssg71
g2960
sg64
(lp2972
S':'
asbag57
(g78
g59
NtRp2973
(dp2974
g62
(dp2975
sg71
g2960
sg64
(lp2976
g57
(g58
g59
NtRp2977
(dp2978
g62
(dp2979
g70
I3
ssg71
g2973
sg64
(lp2980
S''
asbasbasbag57
(g73
g59
NtRp2981
(dp2982
g62
(dp2983
sg71
g2662
sg64
(lp2984
g57
(g78
g59
NtRp2985
(dp2986
g62
(dp2987
g82
g83
ssg71
g2981
sg64
(lp2988
S'SERVER_NAME'
p2989
asbag57
(g78
g59
NtRp2990
(dp2991
g62
(dp2992
g89
g90
ssg71
g2981
sg64
(lp2993
S':'
asbag57
(g78
g59
NtRp2994
(dp2995
g62
(dp2996
sg71
g2981
sg64
(lp2997
g57
(g58
g59
NtRp2998
(dp2999
g62
(dp3000
g70
I3
ssg71
g2994
sg64
(lp3001
g1373
asbasbasbag57
(g73
g59
NtRp3002
(dp3003
g62
(dp3004
sg71
g2662
sg64
(lp3005
g57
(g78
g59
NtRp3006
(dp3007
g62
(dp3008
g82
g83
ssg71
g3002
sg64
(lp3009
S'SERVER_PORT'
p3010
asbag57
(g78
g59
NtRp3011
(dp3012
g62
(dp3013
g89
g90
ssg71
g3002
sg64
(lp3014
S':'
asbag57
(g78
g59
NtRp3015
(dp3016
g62
(dp3017
sg71
g3002
sg64
(lp3018
g57
(g58
g59
NtRp3019
(dp3020
g62
(dp3021
g70
I3
ssg71
g3015
sg64
(lp3022
g1395
asbasbasbag57
(g73
g59
NtRp3023
(dp3024
g62
(dp3025
sg71
g2662
sg64
(lp3026
g57
(g78
g59
NtRp3027
(dp3028
g62
(dp3029
g82
g83
ssg71
g3023
sg64
(lp3030
S'SERVER_PROTOCOL'
p3031
asbag57
(g78
g59
NtRp3032
(dp3033
g62
(dp3034
g89
g90
ssg71
g3023
sg64
(lp3035
S':'
asbag57
(g78
g59
NtRp3036
(dp3037
g62
(dp3038
sg71
g3023
sg64
(lp3039
g57
(g58
g59
NtRp3040
(dp3041
g62
(dp3042
g70
I3
ssg71
g3036
sg64
(lp3043
g1417
asbasbasbag57
(g73
g59
NtRp3044
(dp3045
g62
(dp3046
sg71
g2662
sg64
(lp3047
g57
(g78
g59
NtRp3048
(dp3049
g62
(dp3050
g82
g83
ssg71
g3044
sg64
(lp3051
S'SERVER_SOFTWARE'
p3052
asbag57
(g78
g59
NtRp3053
(dp3054
g62
(dp3055
g89
g90
ssg71
g3044
sg64
(lp3056
S':'
asbag57
(g78
g59
NtRp3057
(dp3058
g62
(dp3059
sg71
g3044
sg64
(lp3060
g57
(g58
g59
NtRp3061
(dp3062
g62
(dp3063
g70
I3
ssg71
g3057
sg64
(lp3064
g1439
asbasbasbag57
(g73
g59
NtRp3065
(dp3066
g62
(dp3067
sg71
g2662
sg64
(lp3068
g57
(g78
g59
NtRp3069
(dp3070
g62
(dp3071
g82
g83
ssg71
g3065
sg64
(lp3072
S'wsgi.errors'
p3073
asbag57
(g78
g59
NtRp3074
(dp3075
g62
(dp3076
g89
g90
ssg71
g3065
sg64
(lp3077
S':'
asbag57
(g78
g59
NtRp3078
(dp3079
g62
(dp3080
sg71
g3065
sg64
(lp3081
g57
(g58
g59
NtRp3082
(dp3083
g62
(dp3084
g70
I3
ssg71
g3078
sg64
(lp3085
S"<open file '<stderr>', mode 'w' at 0x7fa71a3bc1e0>"
p3086
asbasbasbag57
(g73
g59
NtRp3087
(dp3088
g62
(dp3089
sg71
g2662
sg64
(lp3090
g57
(g78
g59
NtRp3091
(dp3092
g62
(dp3093
g82
g83
ssg71
g3087
sg64
(lp3094
S'wsgi.file_wrapper'
p3095
asbag57
(g78
g59
NtRp3096
(dp3097
g62
(dp3098
g89
g90
ssg71
g3087
sg64
(lp3099
S':'
asbag57
(g78
g59
NtRp3100
(dp3101
g62
(dp3102
sg71
g3087
sg64
(lp3103
g57
(g58
g59
NtRp3104
(dp3105
g62
(dp3106
g70
I3
ssg71
g3100
sg64
(lp3107
S'<class wsgiref.util.FileWrapper at 0x7fa715d59258>'
p3108
asbasbasbag57
(g73
g59
NtRp3109
(dp3110
g62
(dp3111
sg71
g2662
sg64
(lp3112
g57
(g78
g59
NtRp3113
(dp3114
g62
(dp3115
g82
g83
ssg71
g3109
sg64
(lp3116
S'wsgi.input'
p3117
asbag57
(g78
g59
NtRp3118
(dp3119
g62
(dp3120
g89
g90
ssg71
g3109
sg64
(lp3121
S':'
asbag57
(g78
g59
NtRp3122
(dp3123
g62
(dp3124
sg71
g3109
sg64
(lp3125
g57
(g58
g59
NtRp3126
(dp3127
g62
(dp3128
g70
I3
ssg71
g3122
sg64
(lp3129
S'<cStringIO.StringO object at 0x7fa6c73ca6f8>'
p3130
asbasbasbag57
(g73
g59
NtRp3131
(dp3132
g62
(dp3133
sg71
g2662
sg64
(lp3134
g57
(g78
g59
NtRp3135
(dp3136
g62
(dp3137
g82
g83
ssg71
g3131
sg64
(lp3138
S'wsgi.multiprocess'
p3139
asbag57
(g78
g59
NtRp3140
(dp3141
g62
(dp3142
g89
g90
ssg71
g3131
sg64
(lp3143
S':'
asbag57
(g78
g59
NtRp3144
(dp3145
g62
(dp3146
sg71
g3131
sg64
(lp3147
g57
(g58
g59
NtRp3148
(dp3149
g62
(dp3150
g70
I3
ssg71
g3144
sg64
(lp3151
g100
asbasbasbag57
(g73
g59
NtRp3152
(dp3153
g62
(dp3154
sg71
g2662
sg64
(lp3155
g57
(g78
g59
NtRp3156
(dp3157
g62
(dp3158
g82
g83
ssg71
g3152
sg64
(lp3159
S'wsgi.multithread'
p3160
asbag57
(g78
g59
NtRp3161
(dp3162
g62
(dp3163
g89
g90
ssg71
g3152
sg64
(lp3164
S':'
asbag57
(g78
g59
NtRp3165
(dp3166
g62
(dp3167
sg71
g3152
sg64
(lp3168
g57
(g58
g59
NtRp3169
(dp3170
g62
(dp3171
g70
I3
ssg71
g3165
sg64
(lp3172
g1679
asbasbasbag57
(g73
g59
NtRp3173
(dp3174
g62
(dp3175
sg71
g2662
sg64
(lp3176
g57
(g78
g59
NtRp3177
(dp3178
g62
(dp3179
g82
g83
ssg71
g3173
sg64
(lp3180
S'wsgi.run_once'
p3181
asbag57
(g78
g59
NtRp3182
(dp3183
g62
(dp3184
g89
g90
ssg71
g3173
sg64
(lp3185
S':'
asbag57
(g78
g59
NtRp3186
(dp3187
g62
(dp3188
sg71
g3173
sg64
(lp3189
g57
(g58
g59
NtRp3190
(dp3191
g62
(dp3192
g70
I3
ssg71
g3186
sg64
(lp3193
g100
asbasbasbag57
(g73
g59
NtRp3194
(dp3195
g62
(dp3196
sg71
g2662
sg64
(lp3197
g57
(g78
g59
NtRp3198
(dp3199
g62
(dp3200
g82
g83
ssg71
g3194
sg64
(lp3201
S'wsgi.url_scheme'
p3202
asbag57
(g78
g59
NtRp3203
(dp3204
g62
(dp3205
g89
g90
ssg71
g3194
sg64
(lp3206
S':'
asbag57
(g78
g59
NtRp3207
(dp3208
g62
(dp3209
sg71
g3194
sg64
(lp3210
g57
(g58
g59
NtRp3211
(dp3212
g62
(dp3213
g70
I3
ssg71
g3207
sg64
(lp3214
g1722
asbasbasbag57
(g73
g59
NtRp3215
(dp3216
g62
(dp3217
sg71
g2662
sg64
(lp3218
g57
(g78
g59
NtRp3219
(dp3220
g62
(dp3221
g82
g83
ssg71
g3215
sg64
(lp3222
S'wsgi.version'
p3223
asbag57
(g78
g59
NtRp3224
(dp3225
g62
(dp3226
g89
g90
ssg71
g3215
sg64
(lp3227
S':'
asbag57
(g78
g59
NtRp3228
(dp3229
g62
(dp3230
sg71
g3215
sg64
(lp3231
g57
(g58
g59
NtRp3232
(dp3233
g62
(dp3234
g70
I3
ssg71
g3228
sg64
(lp3235
S'1'
asbasbasbasbasbasbasbasbasbasbasbasbasbsS'frames'
p3236
(lp3237
(dp3238
S'file'
p3239
S'/usr/lib/pymodules/python2.7/gluon/restricted.py'
p3240
sS'dump'
p3241
(dp3242
S'environment'
p3243
S"{'A': <class 'gluon.html.A'>, 'Auth': <class 'gluon.tools.Auth'>, 'B': <class 'gluon.html.B'>, 'BEAUTIFY': <class 'gluon.html.BEAUTIFY'>, 'BODY': <class 'gluon.html.BODY'>, 'BR': <class 'gluon.html.BR'>, 'BUTTON': <class 'gluon.html.BUTTON'>, 'CAT': <class 'gluon.html.CAT'>, 'CENTER': <class 'gluon.html.CENTER'>, 'CLEANUP': <class 'gluon.validators.CLEANUP'>, ...}"
p3244
sS'ccode'
p3245
S'<code object <module> at 0x7fa6c73cb9b0, file "/...ITCourier/views/default/searchPage.html", line 1>'
p3246
ssS'lnum'
p3247
I205
sS'lines'
p3248
(dp3249
I200
S'    try:'
p3250
sI201
S'        if type(code) == types.CodeType:'
p3251
sI202
S'            ccode = code'
p3252
sI203
S'        else:'
p3253
sI204
S'            ccode = compile2(code,layer)'
p3254
sI205
S'        exec ccode in environment'
p3255
sI206
S'    except HTTP:'
p3256
sI207
S'        raise'
p3257
sI208
S'    except RestrictedError:'
p3258
sI209
S'        # do not encapsulate (obfuscate) the original RestrictedError'
p3259
ssS'call'
p3260
S'(code=\'response.write(\\\'<!DOCTYPE html PUBLIC "-//W3C//D...p>\\\\n  </div>\\\\n </body>\\\\n</html>\\\\n\\\', escape=False)\', environment={\'A\': <class \'gluon.html.A\'>, \'Auth\': <class \'gluon.tools.Auth\'>, \'B\': <class \'gluon.html.B\'>, \'BEAUTIFY\': <class \'gluon.html.BEAUTIFY\'>, \'BODY\': <class \'gluon.html.BODY\'>, \'BR\': <class \'gluon.html.BR\'>, \'BUTTON\': <class \'gluon.html.BUTTON\'>, \'CAT\': <class \'gluon.html.CAT\'>, \'CENTER\': <class \'gluon.html.CENTER\'>, \'CLEANUP\': <class \'gluon.validators.CLEANUP\'>, ...}, layer=\'/home/game_boy/web2py/applications/IIITCourier/views/default/searchPage.html\')'
p3261
sS'func'
p3262
S'restricted'
p3263
sa(dp3264
g3239
S'/home/game_boy/web2py/applications/IIITCourier/views/default/searchPage.html'
p3265
sg3241
(dp3266
sg3247
I32
sg3248
(dp3267
I32
S'rows.pop(0)'
p3268
sI33
S"response.write('\\n', escape=False)"
p3269
sI34
S'for row in rows:'
p3270
sI35
S"    response.write('\\n<p>', escape=False)"
p3271
sI36
S'    response.write(row)'
p3272
sI37
S"    response.write('</p>\\n', escape=False)"
p3273
sI38
S'    pass'
p3274
sI39
S"response.write('\\n', escape=False)"
p3275
sI40
S'response.write(\'\\n   </div>\\n   <!-- end content -->\\n   <!-- start sidebar -->\\n   <!--<div id="sidebar">\\n   <ul>\\n     <li id="search">\\n      <h2>\\n       Search\\n      </h2>\\n      <form method="get" action="">\\n       <fieldset>\\n        <input type="text" id="s" name="s" value="" />\\n        <input type="submit" id="x" value="Search" />\\n       </fieldset>\\n      </form>\\n     </li>\\n     <li>\\n      <h2>\\n       Lorem Ipsum\\n      </h2>\\n      <ul>\\n       <li>\\n        <a href="#">\\n         Fusce dui neque fringilla\\n        </a>\\n       </li>\\n       <li>\\n        <a href="#">\\n         Eget tempor eget nonummy\\n        </a>\\n       </li>\\n       <li>\\n        <a href="#">\\n         Magna lacus bibendum mauris\\n        </a>\\n       </li>\\n       <li>\\n        <a href="#">\\n         Nec metus sed donec\\n        </a>\\n       </li>\\n       <li>\\n        <a href="#">\\n         Magna lacus bibendum mauris\\n        </a>\\n       </li>\\n       <li>\\n        <a href="#">\\n         Velit semper nisi molestie\\n        </a>\\n       </li>\\n       <li>\\n        <a href="#">\\n         Eget tempor eget nonummy\\n        </a>\\n       </li>\\n      </ul>\\n     </li>\\n     <li>\\n      <h2>\\n       Volutpat Dolore\\n      </h2>\\n      <ul>\\n       <li>\\n        <a href="#">\\n         Eget tempor eget nonummy\\n        </a>\\n       </li>\\n       <li>\\n        <a href="#">\\n         Magna lacus bibendum mauris\\n        </a>\\n       </li>\\n       <li>\\n        <a href="#">\\n         Magna lacus bibendum mauris\\n        </a>\\n       </li>\\n       <li>\\n        <a href="#">\\n         Velit semper nisi molestie\\n        </a>\\n       </li>\\n       <li>\\n        <a href="#">\\n         Nec metus sed donec\\n        </a>\\n       </li>\\n       <li>\\n        <a href="#">\\n         Magna lacus bibendum mauris\\n        </a>\\n       </li>\\n       <li>\\n        <a href="#">\\n         Fusce dui neque fringilla\\n        </a>\\n       </li>\\n      </ul>\\n     </li>\\n     <li>\\n      <h2>\\n       Magna Bibendum\\n      </h2>\\n      <ul>\\n       <li>\\n        <a href="#">\\n         Nec metus sed donec\\n        </a>\\n       </li>\\n       <li>\\n        <a href="#">\\n         Magna lacus bibendum mauris\\n        </a>\\n       </li>\\n       <li>\\n        <a href="#">\\n         Velit semper nisi molestie\\n        </a>\\n       </li>\\n       <li>\\n        <a href="#">\\n         Eget tempor eget nonummy\\n        </a>\\n       </li>\\n       <li>\\n        <a href="#">\\n         Nec metus sed donec\\n        </a>\\n       </li>\\n       <li>\\n        <a href="#">\\n         Magna lacus bibendum mauris\\n        </a>\\n       </li>\\n       <li>\\n        <a href="#">\\n         Velit semper nisi molestie\\n        </a>\\n       </li>\\n      </ul>\\n     </li>\\n    </ul>\\n    <div style="clear: both;">\\n     &nbsp;\\n    </div>\\n   </div>\\n   <!-- end sidebar -->\\n  </div>\\n  <!-- end page -->\\n  <div id="footer">\\n   <p id="legal">\\n    &copy;2007 IIIT. All Rights Reserved. | Designed by Mohit Sharma and Sonam Gupta\\n   </p>\\n  </div>\\n </body>\\n</html>\\n\', escape=False)'
p3276
sI23
S'try:'
p3277
sI24
S"    response.write(auth.navbar(action=URL('default','user')))"
p3278
sI25
S'except:pass'
p3279
sI26
S'response.write(\'\\n\\n  <!-- start header -->\\n  <div id="header">\\n   <div id="logo">\\n    <h1>\\n    IIIT Courier\\n    </h1>\\n   </div>\\n   <div id="menu">\\n    \', escape=False)'
p3280
sI27
S"response.write(MENU(response.menu,_class='web2py-menu'))"
p3281
sI28
S'response.write(\'\\n    <script>\\n      jQuery(document).ready(function(){jQuery(\\\'ul.web2py-menu\\\').superfish({delay:400});});\\n    </script>\\n   </div>\\n  </div>\\n  <!-- end header -->\\n  <!-- start page -->\\n  <div id="page">\\n   <!-- start content -->\\n   <div id="content">\\n    <div class="flash">\', escape=False)'
p3282
sI29
S"response.write(response.flash or '')"
p3283
sI30
S"response.write('</div>\\n    ', escape=False)"
p3284
sI31
S'response.write("\\n<h1 class=\'h1InPage\'>Records matched</h1>\\n", escape=False)'
p3285
ssg3260
S'()'
p3286
sg3262
S'<module>'
p3287
sasS'pyver'
p3288
S'Python 2.7.6: /usr/bin/python'
p3289
sS'session'
p3290
g57
(g58
g59
NtRp3291
(dp3292
g62
(dp3293
sg64
(lp3294
g57
(g66
g59
NtRp3295
(dp3296
g62
(dp3297
g70
I5
ssg71
Nsg64
(lp3298
g57
(g73
g59
NtRp3299
(dp3300
g62
(dp3301
sg71
g3295
sg64
(lp3302
g57
(g78
g59
NtRp3303
(dp3304
g62
(dp3305
g82
g83
ssg71
g3299
sg64
(lp3306
S'auth'
p3307
asbag57
(g78
g59
NtRp3308
(dp3309
g62
(dp3310
g89
g90
ssg71
g3299
sg64
(lp3311
S':'
asbag57
(g78
g59
NtRp3312
(dp3313
g62
(dp3314
sg71
g3299
sg64
(lp3315
g57
(g58
g59
NtRp3316
(dp3317
g62
(dp3318
g70
I5
ssg71
g3312
sg64
(lp3319
g57
(g66
g59
NtRp3320
(dp3321
g62
(dp3322
g70
I4
ssg71
Nsg64
(lp3323
g57
(g73
g59
NtRp3324
(dp3325
g62
(dp3326
sg71
g3320
sg64
(lp3327
g57
(g78
g59
NtRp3328
(dp3329
g62
(dp3330
g82
g83
ssg71
g3324
sg64
(lp3331
S'expiration'
p3332
asbag57
(g78
g59
NtRp3333
(dp3334
g62
(dp3335
g89
g90
ssg71
g3324
sg64
(lp3336
S':'
asbag57
(g78
g59
NtRp3337
(dp3338
g62
(dp3339
sg71
g3324
sg64
(lp3340
g57
(g58
g59
NtRp3341
(dp3342
g62
(dp3343
g70
I4
ssg71
g3337
sg64
(lp3344
S'3600'
p3345
asbasbasbag57
(g73
g59
NtRp3346
(dp3347
g62
(dp3348
sg71
g3320
sg64
(lp3349
g57
(g78
g59
NtRp3350
(dp3351
g62
(dp3352
g82
g83
ssg71
g3346
sg64
(lp3353
S'hmac_key'
p3354
asbag57
(g78
g59
NtRp3355
(dp3356
g62
(dp3357
g89
g90
ssg71
g3346
sg64
(lp3358
S':'
asbag57
(g78
g59
NtRp3359
(dp3360
g62
(dp3361
sg71
g3346
sg64
(lp3362
g57
(g58
g59
NtRp3363
(dp3364
g62
(dp3365
g70
I4
ssg71
g3359
sg64
(lp3366
S'807aef99-3935-41c9-b7b4-77e5865b3ca8'
p3367
asbasbasbag57
(g73
g59
NtRp3368
(dp3369
g62
(dp3370
sg71
g3320
sg64
(lp3371
g57
(g78
g59
NtRp3372
(dp3373
g62
(dp3374
g82
g83
ssg71
g3368
sg64
(lp3375
S'last_visit'
p3376
asbag57
(g78
g59
NtRp3377
(dp3378
g62
(dp3379
g89
g90
ssg71
g3368
sg64
(lp3380
S':'
asbag57
(g78
g59
NtRp3381
(dp3382
g62
(dp3383
sg71
g3368
sg64
(lp3384
g57
(g58
g59
NtRp3385
(dp3386
g62
(dp3387
g70
I4
ssg71
g3381
sg64
(lp3388
S'datetime.datetime(2015, 11, 16, 3, 7, 20, 584544)'
p3389
asbasbasbag57
(g73
g59
NtRp3390
(dp3391
g62
(dp3392
sg71
g3320
sg64
(lp3393
g57
(g78
g59
NtRp3394
(dp3395
g62
(dp3396
g82
g83
ssg71
g3390
sg64
(lp3397
S'remember'
p3398
asbag57
(g78
g59
NtRp3399
(dp3400
g62
(dp3401
g89
g90
ssg71
g3390
sg64
(lp3402
S':'
asbag57
(g78
g59
NtRp3403
(dp3404
g62
(dp3405
sg71
g3390
sg64
(lp3406
g57
(g58
g59
NtRp3407
(dp3408
g62
(dp3409
g70
I4
ssg71
g3403
sg64
(lp3410
g100
asbasbasbag57
(g73
g59
NtRp3411
(dp3412
g62
(dp3413
sg71
g3320
sg64
(lp3414
g57
(g78
g59
NtRp3415
(dp3416
g62
(dp3417
g82
g83
ssg71
g3411
sg64
(lp3418
S'user'
p3419
asbag57
(g78
g59
NtRp3420
(dp3421
g62
(dp3422
g89
g90
ssg71
g3411
sg64
(lp3423
S':'
asbag57
(g78
g59
NtRp3424
(dp3425
g62
(dp3426
sg71
g3411
sg64
(lp3427
g57
(g58
g59
NtRp3428
(dp3429
g62
(dp3430
g70
I4
ssg71
g3424
sg64
(lp3431
g57
(g66
g59
NtRp3432
(dp3433
g62
(dp3434
g70
I3
ssg71
Nsg64
(lp3435
g57
(g73
g59
NtRp3436
(dp3437
g62
(dp3438
sg71
g3432
sg64
(lp3439
g57
(g78
g59
NtRp3440
(dp3441
g62
(dp3442
g82
g83
ssg71
g3436
sg64
(lp3443
S'email'
p3444
asbag57
(g78
g59
NtRp3445
(dp3446
g62
(dp3447
g89
g90
ssg71
g3436
sg64
(lp3448
S':'
asbag57
(g78
g59
NtRp3449
(dp3450
g62
(dp3451
sg71
g3436
sg64
(lp3452
g57
(g58
g59
NtRp3453
(dp3454
g62
(dp3455
g70
I3
ssg71
g3449
sg64
(lp3456
S'sharma.mohit@students.iiit.ac.in'
p3457
asbasbasbag57
(g73
g59
NtRp3458
(dp3459
g62
(dp3460
sg71
g3432
sg64
(lp3461
g57
(g78
g59
NtRp3462
(dp3463
g62
(dp3464
g82
g83
ssg71
g3458
sg64
(lp3465
S'first_name'
p3466
asbag57
(g78
g59
NtRp3467
(dp3468
g62
(dp3469
g89
g90
ssg71
g3458
sg64
(lp3470
S':'
asbag57
(g78
g59
NtRp3471
(dp3472
g62
(dp3473
sg71
g3458
sg64
(lp3474
g57
(g58
g59
NtRp3475
(dp3476
g62
(dp3477
g70
I3
ssg71
g3471
sg64
(lp3478
S'Mohit'
p3479
asbasbasbag57
(g73
g59
NtRp3480
(dp3481
g62
(dp3482
sg71
g3432
sg64
(lp3483
g57
(g78
g59
NtRp3484
(dp3485
g62
(dp3486
g82
g83
ssg71
g3480
sg64
(lp3487
S'id'
p3488
asbag57
(g78
g59
NtRp3489
(dp3490
g62
(dp3491
g89
g90
ssg71
g3480
sg64
(lp3492
S':'
asbag57
(g78
g59
NtRp3493
(dp3494
g62
(dp3495
sg71
g3480
sg64
(lp3496
g57
(g58
g59
NtRp3497
(dp3498
g62
(dp3499
g70
I3
ssg71
g3493
sg64
(lp3500
S'1'
asbasbasbag57
(g73
g59
NtRp3501
(dp3502
g62
(dp3503
sg71
g3432
sg64
(lp3504
g57
(g78
g59
NtRp3505
(dp3506
g62
(dp3507
g82
g83
ssg71
g3501
sg64
(lp3508
S'last_name'
p3509
asbag57
(g78
g59
NtRp3510
(dp3511
g62
(dp3512
g89
g90
ssg71
g3501
sg64
(lp3513
S':'
asbag57
(g78
g59
NtRp3514
(dp3515
g62
(dp3516
sg71
g3501
sg64
(lp3517
g57
(g58
g59
NtRp3518
(dp3519
g62
(dp3520
g70
I3
ssg71
g3514
sg64
(lp3521
S'Sharma'
p3522
asbasbasbag57
(g73
g59
NtRp3523
(dp3524
g62
(dp3525
sg71
g3432
sg64
(lp3526
g57
(g78
g59
NtRp3527
(dp3528
g62
(dp3529
g82
g83
ssg71
g3523
sg64
(lp3530
S'password'
p3531
asbag57
(g78
g59
NtRp3532
(dp3533
g62
(dp3534
g89
g90
ssg71
g3523
sg64
(lp3535
S':'
asbag57
(g78
g59
NtRp3536
(dp3537
g62
(dp3538
sg71
g3523
sg64
(lp3539
g57
(g58
g59
NtRp3540
(dp3541
g62
(dp3542
g70
I3
ssg71
g3536
sg64
(lp3543
S'2f5ec7b5464f877683a0b98ae667f279'
p3544
asbasbasbag57
(g73
g59
NtRp3545
(dp3546
g62
(dp3547
sg71
g3432
sg64
(lp3548
g57
(g78
g59
NtRp3549
(dp3550
g62
(dp3551
g82
g83
ssg71
g3545
sg64
(lp3552
S'registration_id'
p3553
asbag57
(g78
g59
NtRp3554
(dp3555
g62
(dp3556
g89
g90
ssg71
g3545
sg64
(lp3557
S':'
asbag57
(g78
g59
NtRp3558
(dp3559
g62
(dp3560
sg71
g3545
sg64
(lp3561
g57
(g58
g59
NtRp3562
(dp3563
g62
(dp3564
g70
I3
ssg71
g3558
sg64
(lp3565
S''
asbasbasbag57
(g73
g59
NtRp3566
(dp3567
g62
(dp3568
sg71
g3432
sg64
(lp3569
g57
(g78
g59
NtRp3570
(dp3571
g62
(dp3572
g82
g83
ssg71
g3566
sg64
(lp3573
S'registration_key'
p3574
asbag57
(g78
g59
NtRp3575
(dp3576
g62
(dp3577
g89
g90
ssg71
g3566
sg64
(lp3578
S':'
asbag57
(g78
g59
NtRp3579
(dp3580
g62
(dp3581
sg71
g3566
sg64
(lp3582
g57
(g58
g59
NtRp3583
(dp3584
g62
(dp3585
g70
I3
ssg71
g3579
sg64
(lp3586
S''
asbasbasbag57
(g73
g59
NtRp3587
(dp3588
g62
(dp3589
sg71
g3432
sg64
(lp3590
g57
(g78
g59
NtRp3591
(dp3592
g62
(dp3593
g82
g83
ssg71
g3587
sg64
(lp3594
S'reset_password_key'
p3595
asbag57
(g78
g59
NtRp3596
(dp3597
g62
(dp3598
g89
g90
ssg71
g3587
sg64
(lp3599
S':'
asbag57
(g78
g59
NtRp3600
(dp3601
g62
(dp3602
sg71
g3587
sg64
(lp3603
g57
(g58
g59
NtRp3604
(dp3605
g62
(dp3606
g70
I3
ssg71
g3600
sg64
(lp3607
S''
asbasbasbasbasbasbasbag57
(g73
g59
NtRp3608
(dp3609
g62
(dp3610
sg71
g3320
sg64
(lp3611
g57
(g78
g59
NtRp3612
(dp3613
g62
(dp3614
g82
g83
ssg71
g3608
sg64
(lp3615
S'user_groups'
p3616
asbag57
(g78
g59
NtRp3617
(dp3618
g62
(dp3619
g89
g90
ssg71
g3608
sg64
(lp3620
S':'
asbag57
(g78
g59
NtRp3621
(dp3622
g62
(dp3623
sg71
g3608
sg64
(lp3624
g57
(g58
g59
NtRp3625
(dp3626
g62
(dp3627
g70
I4
ssg71
g3621
sg64
(lp3628
g57
(g66
g59
NtRp3629
(dp3630
g62
(dp3631
g70
I3
ssg71
Nsg64
(lp3632
g57
(g73
g59
NtRp3633
(dp3634
g62
(dp3635
sg71
g3629
sg64
(lp3636
g57
(g78
g59
NtRp3637
(dp3638
g62
(dp3639
g82
g83
ssg71
g3633
sg64
(lp3640
S'1'
asbag57
(g78
g59
NtRp3641
(dp3642
g62
(dp3643
g89
g90
ssg71
g3633
sg64
(lp3644
S':'
asbag57
(g78
g59
NtRp3645
(dp3646
g62
(dp3647
sg71
g3633
sg64
(lp3648
g57
(g58
g59
NtRp3649
(dp3650
g62
(dp3651
g70
I3
ssg71
g3645
sg64
(lp3652
S'user_1'
p3653
asbasbasbag57
(g73
g59
NtRp3654
(dp3655
g62
(dp3656
sg71
g3629
sg64
(lp3657
g57
(g78
g59
NtRp3658
(dp3659
g62
(dp3660
g82
g83
ssg71
g3654
sg64
(lp3661
S'2'
asbag57
(g78
g59
NtRp3662
(dp3663
g62
(dp3664
g89
g90
ssg71
g3654
sg64
(lp3665
S':'
asbag57
(g78
g59
NtRp3666
(dp3667
g62
(dp3668
sg71
g3654
sg64
(lp3669
g57
(g58
g59
NtRp3670
(dp3671
g62
(dp3672
g70
I3
ssg71
g3666
sg64
(lp3673
S'security'
p3674
asbasbasbasbasbasbasbasbasbasbasbag57
(g73
g59
NtRp3675
(dp3676
g62
(dp3677
sg71
g3295
sg64
(lp3678
g57
(g78
g59
NtRp3679
(dp3680
g62
(dp3681
g82
g83
ssg71
g3675
sg64
(lp3682
S'last_query'
p3683
asbag57
(g78
g59
NtRp3684
(dp3685
g62
(dp3686
g89
g90
ssg71
g3675
sg64
(lp3687
S':'
asbag57
(g78
g59
NtRp3688
(dp3689
g62
(dp3690
sg71
g3675
sg64
(lp3691
g57
(g58
g59
NtRp3692
(dp3693
g62
(dp3694
g70
I5
ssg71
g3688
sg64
(lp3695
S'db.auth_cas.id>0'
p3696
asbasbasbasbasbsS'etype'
p3697
S"<type 'exceptions.AttributeError'>"
p3698
sS'date'
p3699
S'Mon Nov 16 03:07:20 2015'
p3700
sS'response'
p3701
g57
(g58
g59
NtRp3702
(dp3703
g62
(dp3704
sg64
(lp3705
g57
(g66
g59
NtRp3706
(dp3707
g62
(dp3708
g70
I5
ssg71
Nsg64
(lp3709
g57
(g73
g59
NtRp3710
(dp3711
g62
(dp3712
sg71
g3706
sg64
(lp3713
g57
(g78
g59
NtRp3714
(dp3715
g62
(dp3716
g82
g83
ssg71
g3710
sg64
(lp3717
g155
asbag57
(g78
g59
NtRp3718
(dp3719
g62
(dp3720
g89
g90
ssg71
g3710
sg64
(lp3721
S':'
asbag57
(g78
g59
NtRp3722
(dp3723
g62
(dp3724
sg71
g3710
sg64
(lp3725
g57
(g58
g59
NtRp3726
(dp3727
g62
(dp3728
g70
I5
ssg71
g3722
sg64
(lp3729
S'<cStringIO.StringO object at 0x7fa6c746d618>'
p3730
asbasbasbag57
(g73
g59
NtRp3731
(dp3732
g62
(dp3733
sg71
g3706
sg64
(lp3734
g57
(g78
g59
NtRp3735
(dp3736
g62
(dp3737
g82
g83
ssg71
g3731
sg64
(lp3738
g221
asbag57
(g78
g59
NtRp3739
(dp3740
g62
(dp3741
g89
g90
ssg71
g3731
sg64
(lp3742
S':'
asbag57
(g78
g59
NtRp3743
(dp3744
g62
(dp3745
sg71
g3731
sg64
(lp3746
g57
(g58
g59
NtRp3747
(dp3748
g62
(dp3749
g70
I5
ssg71
g3743
sg64
(lp3750
g57
(g66
g59
NtRp3751
(dp3752
g62
(dp3753
g70
I4
ssg71
Nsg64
(lp3754
g57
(g73
g59
NtRp3755
(dp3756
g62
(dp3757
sg71
g3751
sg64
(lp3758
g57
(g78
g59
NtRp3759
(dp3760
g62
(dp3761
g82
g83
ssg71
g3755
sg64
(lp3762
S'session_id_iiitcourier'
p3763
asbag57
(g78
g59
NtRp3764
(dp3765
g62
(dp3766
g89
g90
ssg71
g3755
sg64
(lp3767
S':'
asbag57
(g78
g59
NtRp3768
(dp3769
g62
(dp3770
sg71
g3755
sg64
(lp3771
g57
(g58
g59
NtRp3772
(dp3773
g62
(dp3774
g70
I4
ssg71
g3768
sg64
(lp3775
g57
(g66
g59
NtRp3776
(dp3777
g62
(dp3778
g70
I3
ssg71
Nsg64
(lp3779
g57
(g73
g59
NtRp3780
(dp3781
g62
(dp3782
sg71
g3776
sg64
(lp3783
g57
(g78
g59
NtRp3784
(dp3785
g62
(dp3786
g82
g83
ssg71
g3780
sg64
(lp3787
g271
asbag57
(g78
g59
NtRp3788
(dp3789
g62
(dp3790
g89
g90
ssg71
g3780
sg64
(lp3791
S':'
asbag57
(g78
g59
NtRp3792
(dp3793
g62
(dp3794
sg71
g3780
sg64
(lp3795
g57
(g58
g59
NtRp3796
(dp3797
g62
(dp3798
g70
I3
ssg71
g3792
sg64
(lp3799
S''
asbasbasbag57
(g73
g59
NtRp3800
(dp3801
g62
(dp3802
sg71
g3776
sg64
(lp3803
g57
(g78
g59
NtRp3804
(dp3805
g62
(dp3806
g82
g83
ssg71
g3800
sg64
(lp3807
g292
asbag57
(g78
g59
NtRp3808
(dp3809
g62
(dp3810
g89
g90
ssg71
g3800
sg64
(lp3811
S':'
asbag57
(g78
g59
NtRp3812
(dp3813
g62
(dp3814
sg71
g3800
sg64
(lp3815
g57
(g58
g59
NtRp3816
(dp3817
g62
(dp3818
g70
I3
ssg71
g3812
sg64
(lp3819
S''
asbasbasbag57
(g73
g59
NtRp3820
(dp3821
g62
(dp3822
sg71
g3776
sg64
(lp3823
g57
(g78
g59
NtRp3824
(dp3825
g62
(dp3826
g82
g83
ssg71
g3820
sg64
(lp3827
g313
asbag57
(g78
g59
NtRp3828
(dp3829
g62
(dp3830
g89
g90
ssg71
g3820
sg64
(lp3831
S':'
asbag57
(g78
g59
NtRp3832
(dp3833
g62
(dp3834
sg71
g3820
sg64
(lp3835
g57
(g58
g59
NtRp3836
(dp3837
g62
(dp3838
g70
I3
ssg71
g3832
sg64
(lp3839
S''
asbasbasbag57
(g73
g59
NtRp3840
(dp3841
g62
(dp3842
sg71
g3776
sg64
(lp3843
g57
(g78
g59
NtRp3844
(dp3845
g62
(dp3846
g82
g83
ssg71
g3840
sg64
(lp3847
g334
asbag57
(g78
g59
NtRp3848
(dp3849
g62
(dp3850
g89
g90
ssg71
g3840
sg64
(lp3851
S':'
asbag57
(g78
g59
NtRp3852
(dp3853
g62
(dp3854
sg71
g3840
sg64
(lp3855
g57
(g58
g59
NtRp3856
(dp3857
g62
(dp3858
g70
I3
ssg71
g3852
sg64
(lp3859
S''
asbasbasbag57
(g73
g59
NtRp3860
(dp3861
g62
(dp3862
sg71
g3776
sg64
(lp3863
g57
(g78
g59
NtRp3864
(dp3865
g62
(dp3866
g82
g83
ssg71
g3860
sg64
(lp3867
g355
asbag57
(g78
g59
NtRp3868
(dp3869
g62
(dp3870
g89
g90
ssg71
g3860
sg64
(lp3871
S':'
asbag57
(g78
g59
NtRp3872
(dp3873
g62
(dp3874
sg71
g3860
sg64
(lp3875
g57
(g58
g59
NtRp3876
(dp3877
g62
(dp3878
g70
I3
ssg71
g3872
sg64
(lp3879
S''
asbasbasbag57
(g73
g59
NtRp3880
(dp3881
g62
(dp3882
sg71
g3776
sg64
(lp3883
g57
(g78
g59
NtRp3884
(dp3885
g62
(dp3886
g82
g83
ssg71
g3880
sg64
(lp3887
g376
asbag57
(g78
g59
NtRp3888
(dp3889
g62
(dp3890
g89
g90
ssg71
g3880
sg64
(lp3891
S':'
asbag57
(g78
g59
NtRp3892
(dp3893
g62
(dp3894
sg71
g3880
sg64
(lp3895
g57
(g58
g59
NtRp3896
(dp3897
g62
(dp3898
g70
I3
ssg71
g3892
sg64
(lp3899
S'/'
asbasbasbag57
(g73
g59
NtRp3900
(dp3901
g62
(dp3902
sg71
g3776
sg64
(lp3903
g57
(g78
g59
NtRp3904
(dp3905
g62
(dp3906
g82
g83
ssg71
g3900
sg64
(lp3907
g397
asbag57
(g78
g59
NtRp3908
(dp3909
g62
(dp3910
g89
g90
ssg71
g3900
sg64
(lp3911
S':'
asbag57
(g78
g59
NtRp3912
(dp3913
g62
(dp3914
sg71
g3900
sg64
(lp3915
g57
(g58
g59
NtRp3916
(dp3917
g62
(dp3918
g70
I3
ssg71
g3912
sg64
(lp3919
S''
asbasbasbag57
(g73
g59
NtRp3920
(dp3921
g62
(dp3922
sg71
g3776
sg64
(lp3923
g57
(g78
g59
NtRp3924
(dp3925
g62
(dp3926
g82
g83
ssg71
g3920
sg64
(lp3927
g418
asbag57
(g78
g59
NtRp3928
(dp3929
g62
(dp3930
g89
g90
ssg71
g3920
sg64
(lp3931
S':'
asbag57
(g78
g59
NtRp3932
(dp3933
g62
(dp3934
sg71
g3920
sg64
(lp3935
g57
(g58
g59
NtRp3936
(dp3937
g62
(dp3938
g70
I3
ssg71
g3932
sg64
(lp3939
S''
asbasbasbasbasbasbasbasbasbasbasbag57
(g73
g59
NtRp3940
(dp3941
g62
(dp3942
sg71
g3706
sg64
(lp3943
g57
(g78
g59
NtRp3944
(dp3945
g62
(dp3946
g82
g83
ssg71
g3940
sg64
(lp3947
S'delimiters'
p3948
asbag57
(g78
g59
NtRp3949
(dp3950
g62
(dp3951
g89
g90
ssg71
g3940
sg64
(lp3952
S':'
asbag57
(g78
g59
NtRp3953
(dp3954
g62
(dp3955
sg71
g3940
sg64
(lp3956
g57
(g58
g59
NtRp3957
(dp3958
g62
(dp3959
g70
I5
ssg71
g3953
sg64
(lp3960
g57
(g66
g59
NtRp3961
(dp3962
g62
(dp3963
g70
I4
ssg71
Nsg64
(lp3964
g57
(g73
g59
NtRp3965
(dp3966
g62
(dp3967
sg71
g3961
sg64
(lp3968
g57
(g78
g59
NtRp3969
(dp3970
g62
(dp3971
sg71
g3965
sg64
(lp3972
g57
(g58
g59
NtRp3973
(dp3974
g62
(dp3975
g70
I4
ssg71
g3969
sg64
(lp3976
S'{{'
p3977
asbasbasbag57
(g73
g59
NtRp3978
(dp3979
g62
(dp3980
sg71
g3961
sg64
(lp3981
g57
(g78
g59
NtRp3982
(dp3983
g62
(dp3984
sg71
g3978
sg64
(lp3985
g57
(g58
g59
NtRp3986
(dp3987
g62
(dp3988
g70
I4
ssg71
g3982
sg64
(lp3989
S'}}'
p3990
asbasbasbasbasbasbasbag57
(g73
g59
NtRp3991
(dp3992
g62
(dp3993
sg71
g3706
sg64
(lp3994
g57
(g78
g59
NtRp3995
(dp3996
g62
(dp3997
g82
g83
ssg71
g3991
sg64
(lp3998
S'files'
p3999
asbag57
(g78
g59
NtRp4000
(dp4001
g62
(dp4002
g89
g90
ssg71
g3991
sg64
(lp4003
S':'
asbag57
(g78
g59
NtRp4004
(dp4005
g62
(dp4006
sg71
g3991
sg64
(lp4007
g57
(g58
g59
NtRp4008
(dp4009
g62
(dp4010
g70
I5
ssg71
g4004
sg64
(lp4011
g57
(g66
g59
NtRp4012
(dp4013
g62
(dp4014
g70
I4
ssg71
Nsg64
(lp4015
g57
(g73
g59
NtRp4016
(dp4017
g62
(dp4018
sg71
g4012
sg64
(lp4019
g57
(g78
g59
NtRp4020
(dp4021
g62
(dp4022
sg71
g4016
sg64
(lp4023
g57
(g58
g59
NtRp4024
(dp4025
g62
(dp4026
g70
I4
ssg71
g4020
sg64
(lp4027
S'/IIITCourier/static/js/jquery.js'
p4028
asbasbasbag57
(g73
g59
NtRp4029
(dp4030
g62
(dp4031
sg71
g4012
sg64
(lp4032
g57
(g78
g59
NtRp4033
(dp4034
g62
(dp4035
sg71
g4029
sg64
(lp4036
g57
(g58
g59
NtRp4037
(dp4038
g62
(dp4039
g70
I4
ssg71
g4033
sg64
(lp4040
S'/IIITCourier/static/css/calendar.css'
p4041
asbasbasbag57
(g73
g59
NtRp4042
(dp4043
g62
(dp4044
sg71
g4012
sg64
(lp4045
g57
(g78
g59
NtRp4046
(dp4047
g62
(dp4048
sg71
g4042
sg64
(lp4049
g57
(g58
g59
NtRp4050
(dp4051
g62
(dp4052
g70
I4
ssg71
g4046
sg64
(lp4053
S'/IIITCourier/static/js/calendar.js'
p4054
asbasbasbag57
(g73
g59
NtRp4055
(dp4056
g62
(dp4057
sg71
g4012
sg64
(lp4058
g57
(g78
g59
NtRp4059
(dp4060
g62
(dp4061
sg71
g4055
sg64
(lp4062
g57
(g58
g59
NtRp4063
(dp4064
g62
(dp4065
g70
I4
ssg71
g4059
sg64
(lp4066
S'/IIITCourier/static/js/web2py.js'
p4067
asbasbasbag57
(g73
g59
NtRp4068
(dp4069
g62
(dp4070
sg71
g4012
sg64
(lp4071
g57
(g78
g59
NtRp4072
(dp4073
g62
(dp4074
sg71
g4068
sg64
(lp4075
g57
(g58
g59
NtRp4076
(dp4077
g62
(dp4078
g70
I4
ssg71
g4072
sg64
(lp4079
S'/IIITCourier/static/plugin_layouts/layouts/Boorish/default.css'
p4080
asbasbasbag57
(g73
g59
NtRp4081
(dp4082
g62
(dp4083
sg71
g4012
sg64
(lp4084
g57
(g78
g59
NtRp4085
(dp4086
g62
(dp4087
sg71
g4081
sg64
(lp4088
g57
(g58
g59
NtRp4089
(dp4090
g62
(dp4091
g70
I4
ssg71
g4085
sg64
(lp4092
S'/IIITCourier/static/plugin_layouts/superfish.js'
p4093
asbasbasbasbasbasbasbag57
(g73
g59
NtRp4094
(dp4095
g62
(dp4096
sg71
g3706
sg64
(lp4097
g57
(g78
g59
NtRp4098
(dp4099
g62
(dp4100
g82
g83
ssg71
g4094
sg64
(lp4101
S'flash'
p4102
asbag57
(g78
g59
NtRp4103
(dp4104
g62
(dp4105
g89
g90
ssg71
g4094
sg64
(lp4106
S':'
asbag57
(g78
g59
NtRp4107
(dp4108
g62
(dp4109
sg71
g4094
sg64
(lp4110
g57
(g58
g59
NtRp4111
(dp4112
g62
(dp4113
g70
I5
ssg71
g4107
sg64
(lp4114
S''
asbasbasbag57
(g73
g59
NtRp4115
(dp4116
g62
(dp4117
sg71
g3706
sg64
(lp4118
g57
(g78
g59
NtRp4119
(dp4120
g62
(dp4121
g82
g83
ssg71
g4115
sg64
(lp4122
S'generic_patterns'
p4123
asbag57
(g78
g59
NtRp4124
(dp4125
g62
(dp4126
g89
g90
ssg71
g4115
sg64
(lp4127
S':'
asbag57
(g78
g59
NtRp4128
(dp4129
g62
(dp4130
sg71
g4115
sg64
(lp4131
g57
(g58
g59
NtRp4132
(dp4133
g62
(dp4134
g70
I5
ssg71
g4128
sg64
(lp4135
g57
(g66
g59
NtRp4136
(dp4137
g62
(dp4138
g70
I4
ssg71
Nsg64
(lp4139
g57
(g73
g59
NtRp4140
(dp4141
g62
(dp4142
sg71
g4136
sg64
(lp4143
g57
(g78
g59
NtRp4144
(dp4145
g62
(dp4146
sg71
g4140
sg64
(lp4147
g57
(g58
g59
NtRp4148
(dp4149
g62
(dp4150
g70
I4
ssg71
g4144
sg64
(lp4151
S'*'
asbasbasbasbasbasbasbag57
(g73
g59
NtRp4152
(dp4153
g62
(dp4154
sg71
g3706
sg64
(lp4155
g57
(g78
g59
NtRp4156
(dp4157
g62
(dp4158
g82
g83
ssg71
g4152
sg64
(lp4159
S'headers'
p4160
asbag57
(g78
g59
NtRp4161
(dp4162
g62
(dp4163
g89
g90
ssg71
g4152
sg64
(lp4164
S':'
asbag57
(g78
g59
NtRp4165
(dp4166
g62
(dp4167
sg71
g4152
sg64
(lp4168
g57
(g58
g59
NtRp4169
(dp4170
g62
(dp4171
g70
I5
ssg71
g4165
sg64
(lp4172
g57
(g66
g59
NtRp4173
(dp4174
g62
(dp4175
g70
I4
ssg71
Nsg64
(lp4176
g57
(g73
g59
NtRp4177
(dp4178
g62
(dp4179
sg71
g4173
sg64
(lp4180
g57
(g78
g59
NtRp4181
(dp4182
g62
(dp4183
g82
g83
ssg71
g4177
sg64
(lp4184
S'Cache-Control'
p4185
asbag57
(g78
g59
NtRp4186
(dp4187
g62
(dp4188
g89
g90
ssg71
g4177
sg64
(lp4189
S':'
asbag57
(g78
g59
NtRp4190
(dp4191
g62
(dp4192
sg71
g4177
sg64
(lp4193
g57
(g58
g59
NtRp4194
(dp4195
g62
(dp4196
g70
I4
ssg71
g4190
sg64
(lp4197
S'no-store, no-cache, must-revalidate, post-check=0, pre-check=0'
p4198
asbasbasbag57
(g73
g59
NtRp4199
(dp4200
g62
(dp4201
sg71
g4173
sg64
(lp4202
g57
(g78
g59
NtRp4203
(dp4204
g62
(dp4205
g82
g83
ssg71
g4199
sg64
(lp4206
S'Content-Type'
p4207
asbag57
(g78
g59
NtRp4208
(dp4209
g62
(dp4210
g89
g90
ssg71
g4199
sg64
(lp4211
S':'
asbag57
(g78
g59
NtRp4212
(dp4213
g62
(dp4214
sg71
g4199
sg64
(lp4215
g57
(g58
g59
NtRp4216
(dp4217
g62
(dp4218
g70
I4
ssg71
g4212
sg64
(lp4219
S'text/html; charset=utf-8'
p4220
asbasbasbag57
(g73
g59
NtRp4221
(dp4222
g62
(dp4223
sg71
g4173
sg64
(lp4224
g57
(g78
g59
NtRp4225
(dp4226
g62
(dp4227
g82
g83
ssg71
g4221
sg64
(lp4228
S'Expires'
p4229
asbag57
(g78
g59
NtRp4230
(dp4231
g62
(dp4232
g89
g90
ssg71
g4221
sg64
(lp4233
S':'
asbag57
(g78
g59
NtRp4234
(dp4235
g62
(dp4236
sg71
g4221
sg64
(lp4237
g57
(g58
g59
NtRp4238
(dp4239
g62
(dp4240
g70
I4
ssg71
g4234
sg64
(lp4241
S'Sun, 15 Nov 2015 21:37:20 GMT'
p4242
asbasbasbag57
(g73
g59
NtRp4243
(dp4244
g62
(dp4245
sg71
g4173
sg64
(lp4246
g57
(g78
g59
NtRp4247
(dp4248
g62
(dp4249
g82
g83
ssg71
g4243
sg64
(lp4250
S'Pragma'
p4251
asbag57
(g78
g59
NtRp4252
(dp4253
g62
(dp4254
g89
g90
ssg71
g4243
sg64
(lp4255
S':'
asbag57
(g78
g59
NtRp4256
(dp4257
g62
(dp4258
sg71
g4243
sg64
(lp4259
g57
(g58
g59
NtRp4260
(dp4261
g62
(dp4262
g70
I4
ssg71
g4256
sg64
(lp4263
S'no-cache'
p4264
asbasbasbag57
(g73
g59
NtRp4265
(dp4266
g62
(dp4267
sg71
g4173
sg64
(lp4268
g57
(g78
g59
NtRp4269
(dp4270
g62
(dp4271
g82
g83
ssg71
g4265
sg64
(lp4272
S'X-Powered-By'
p4273
asbag57
(g78
g59
NtRp4274
(dp4275
g62
(dp4276
g89
g90
ssg71
g4265
sg64
(lp4277
S':'
asbag57
(g78
g59
NtRp4278
(dp4279
g62
(dp4280
sg71
g4265
sg64
(lp4281
g57
(g58
g59
NtRp4282
(dp4283
g62
(dp4284
g70
I4
ssg71
g4278
sg64
(lp4285
S'web2py'
p4286
asbasbasbasbasbasbasbag57
(g73
g59
NtRp4287
(dp4288
g62
(dp4289
sg71
g3706
sg64
(lp4290
g57
(g78
g59
NtRp4291
(dp4292
g62
(dp4293
g82
g83
ssg71
g4287
sg64
(lp4294
S'menu'
p4295
asbag57
(g78
g59
NtRp4296
(dp4297
g62
(dp4298
g89
g90
ssg71
g4287
sg64
(lp4299
S':'
asbag57
(g78
g59
NtRp4300
(dp4301
g62
(dp4302
sg71
g4287
sg64
(lp4303
g57
(g58
g59
NtRp4304
(dp4305
g62
(dp4306
g70
I5
ssg71
g4300
sg64
(lp4307
g57
(g66
g59
NtRp4308
(dp4309
g62
(dp4310
g70
I4
ssg71
Nsg64
(lp4311
g57
(g73
g59
NtRp4312
(dp4313
g62
(dp4314
sg71
g4308
sg64
(lp4315
g57
(g78
g59
NtRp4316
(dp4317
g62
(dp4318
sg71
g4312
sg64
(lp4319
g57
(g58
g59
NtRp4320
(dp4321
g62
(dp4322
g70
I4
ssg71
g4316
sg64
(lp4323
g57
(g66
g59
NtRp4324
(dp4325
g62
(dp4326
g70
I3
ssg71
Nsg64
(lp4327
g57
(g73
g59
NtRp4328
(dp4329
g62
(dp4330
sg71
g4324
sg64
(lp4331
g57
(g78
g59
NtRp4332
(dp4333
g62
(dp4334
sg71
g4328
sg64
(lp4335
g57
(g58
g59
NtRp4336
(dp4337
g62
(dp4338
g70
I3
ssg71
g4332
sg64
(lp4339
cgluon.languages
lazyT_unpickle
p4340
(S't\x04\x00\x00\x00Home'
tRp4341
asbasbasbag57
(g73
g59
NtRp4342
(dp4343
g62
(dp4344
sg71
g4324
sg64
(lp4345
g57
(g78
g59
NtRp4346
(dp4347
g62
(dp4348
sg71
g4342
sg64
(lp4349
g57
(g58
g59
NtRp4350
(dp4351
g62
(dp4352
g70
I3
ssg71
g4346
sg64
(lp4353
g100
asbasbasbag57
(g73
g59
NtRp4354
(dp4355
g62
(dp4356
sg71
g4324
sg64
(lp4357
g57
(g78
g59
NtRp4358
(dp4359
g62
(dp4360
sg71
g4354
sg64
(lp4361
g57
(g58
g59
NtRp4362
(dp4363
g62
(dp4364
g70
I3
ssg71
g4358
sg64
(lp4365
S'/IIITCourier/default/index'
p4366
asbasbasbag57
(g73
g59
NtRp4367
(dp4368
g62
(dp4369
sg71
g4324
sg64
(lp4370
g57
(g78
g59
NtRp4371
(dp4372
g62
(dp4373
sg71
g4367
sg64
(lp4374
g57
(g58
g59
NtRp4375
(dp4376
g62
(dp4377
g70
I3
ssg71
g4371
sg64
(lp4378
g57
(g66
g59
NtRp4379
(dp4380
g62
(dp4381
g70
I2
ssg71
Nsg64
(lp4382
sbasbasbasbasbasbasbasbasbasbasbasbag57
(g73
g59
NtRp4383
(dp4384
g62
(dp4385
sg71
g3706
sg64
(lp4386
g57
(g78
g59
NtRp4387
(dp4388
g62
(dp4389
g82
g83
ssg71
g4383
sg64
(lp4390
S'meta'
p4391
asbag57
(g78
g59
NtRp4392
(dp4393
g62
(dp4394
g89
g90
ssg71
g4383
sg64
(lp4395
S':'
asbag57
(g78
g59
NtRp4396
(dp4397
g62
(dp4398
sg71
g4383
sg64
(lp4399
g57
(g58
g59
NtRp4400
(dp4401
g62
(dp4402
g70
I5
ssg71
g4396
sg64
(lp4403
g57
(g66
g59
NtRp4404
(dp4405
g62
(dp4406
g70
I4
ssg71
Nsg64
(lp4407
g57
(g73
g59
NtRp4408
(dp4409
g62
(dp4410
sg71
g4404
sg64
(lp4411
g57
(g78
g59
NtRp4412
(dp4413
g62
(dp4414
g82
g83
ssg71
g4408
sg64
(lp4415
S'author'
p4416
asbag57
(g78
g59
NtRp4417
(dp4418
g62
(dp4419
g89
g90
ssg71
g4408
sg64
(lp4420
S':'
asbag57
(g78
g59
NtRp4421
(dp4422
g62
(dp4423
sg71
g4408
sg64
(lp4424
g57
(g58
g59
NtRp4425
(dp4426
g62
(dp4427
g70
I4
ssg71
g4421
sg64
(lp4428
S'Your Name <you@example.com>'
p4429
asbasbasbag57
(g73
g59
NtRp4430
(dp4431
g62
(dp4432
sg71
g4404
sg64
(lp4433
g57
(g78
g59
NtRp4434
(dp4435
g62
(dp4436
g82
g83
ssg71
g4430
sg64
(lp4437
S'copyright'
p4438
asbag57
(g78
g59
NtRp4439
(dp4440
g62
(dp4441
g89
g90
ssg71
g4430
sg64
(lp4442
S':'
asbag57
(g78
g59
NtRp4443
(dp4444
g62
(dp4445
sg71
g4430
sg64
(lp4446
g57
(g58
g59
NtRp4447
(dp4448
g62
(dp4449
g70
I4
ssg71
g4443
sg64
(lp4450
S'Copyright 2015'
p4451
asbasbasbag57
(g73
g59
NtRp4452
(dp4453
g62
(dp4454
sg71
g4404
sg64
(lp4455
g57
(g78
g59
NtRp4456
(dp4457
g62
(dp4458
g82
g83
ssg71
g4452
sg64
(lp4459
S'description'
p4460
asbag57
(g78
g59
NtRp4461
(dp4462
g62
(dp4463
g89
g90
ssg71
g4452
sg64
(lp4464
S':'
asbag57
(g78
g59
NtRp4465
(dp4466
g62
(dp4467
sg71
g4452
sg64
(lp4468
g57
(g58
g59
NtRp4469
(dp4470
g62
(dp4471
g70
I4
ssg71
g4465
sg64
(lp4472
S'a cool new app'
p4473
asbasbasbag57
(g73
g59
NtRp4474
(dp4475
g62
(dp4476
sg71
g4404
sg64
(lp4477
g57
(g78
g59
NtRp4478
(dp4479
g62
(dp4480
g82
g83
ssg71
g4474
sg64
(lp4481
S'generator'
p4482
asbag57
(g78
g59
NtRp4483
(dp4484
g62
(dp4485
g89
g90
ssg71
g4474
sg64
(lp4486
S':'
asbag57
(g78
g59
NtRp4487
(dp4488
g62
(dp4489
sg71
g4474
sg64
(lp4490
g57
(g58
g59
NtRp4491
(dp4492
g62
(dp4493
g70
I4
ssg71
g4487
sg64
(lp4494
S'Web2py Web Framework'
p4495
asbasbasbag57
(g73
g59
NtRp4496
(dp4497
g62
(dp4498
sg71
g4404
sg64
(lp4499
g57
(g78
g59
NtRp4500
(dp4501
g62
(dp4502
g82
g83
ssg71
g4496
sg64
(lp4503
S'keywords'
p4504
asbag57
(g78
g59
NtRp4505
(dp4506
g62
(dp4507
g89
g90
ssg71
g4496
sg64
(lp4508
S':'
asbag57
(g78
g59
NtRp4509
(dp4510
g62
(dp4511
sg71
g4496
sg64
(lp4512
g57
(g58
g59
NtRp4513
(dp4514
g62
(dp4515
g70
I4
ssg71
g4509
sg64
(lp4516
S'web2py, python, framework'
p4517
asbasbasbasbasbasbasbag57
(g73
g59
NtRp4518
(dp4519
g62
(dp4520
sg71
g3706
sg64
(lp4521
g57
(g78
g59
NtRp4522
(dp4523
g62
(dp4524
g82
g83
ssg71
g4518
sg64
(lp4525
S'postprocessing'
p4526
asbag57
(g78
g59
NtRp4527
(dp4528
g62
(dp4529
g89
g90
ssg71
g4518
sg64
(lp4530
S':'
asbag57
(g78
g59
NtRp4531
(dp4532
g62
(dp4533
sg71
g4518
sg64
(lp4534
g57
(g58
g59
NtRp4535
(dp4536
g62
(dp4537
g70
I5
ssg71
g4531
sg64
(lp4538
g57
(g66
g59
NtRp4539
(dp4540
g62
(dp4541
g70
I4
ssg71
Nsg64
(lp4542
sbasbasbasbag57
(g73
g59
NtRp4543
(dp4544
g62
(dp4545
sg71
g3706
sg64
(lp4546
g57
(g78
g59
NtRp4547
(dp4548
g62
(dp4549
g82
g83
ssg71
g4543
sg64
(lp4550
S'session_file'
p4551
asbag57
(g78
g59
NtRp4552
(dp4553
g62
(dp4554
g89
g90
ssg71
g4543
sg64
(lp4555
S':'
asbag57
(g78
g59
NtRp4556
(dp4557
g62
(dp4558
sg71
g4543
sg64
(lp4559
g57
(g58
g59
NtRp4560
(dp4561
g62
(dp4562
g70
I5
ssg71
g4556
sg64
(lp4563
S"<open file '/home/game_boy/web2py/applications/IIITCourier/sessions/127.0.0.1-d80de6ec-cf5d-4cf3-8d7c-fad6af1bba5b', mode 'rb+' at 0x7fa6c782ac00>"
p4564
asbasbasbag57
(g73
g59
NtRp4565
(dp4566
g62
(dp4567
sg71
g3706
sg64
(lp4568
g57
(g78
g59
NtRp4569
(dp4570
g62
(dp4571
g82
g83
ssg71
g4565
sg64
(lp4572
S'session_filename'
p4573
asbag57
(g78
g59
NtRp4574
(dp4575
g62
(dp4576
g89
g90
ssg71
g4565
sg64
(lp4577
S':'
asbag57
(g78
g59
NtRp4578
(dp4579
g62
(dp4580
sg71
g4565
sg64
(lp4581
g57
(g58
g59
NtRp4582
(dp4583
g62
(dp4584
g70
I5
ssg71
g4578
sg64
(lp4585
S'/home/game_boy/web2py/applications/IIITCourier/sessions/127.0.0.1-d80de6ec-cf5d-4cf3-8d7c-fad6af1bba5b'
p4586
asbasbasbag57
(g73
g59
NtRp4587
(dp4588
g62
(dp4589
sg71
g3706
sg64
(lp4590
g57
(g78
g59
NtRp4591
(dp4592
g62
(dp4593
g82
g83
ssg71
g4587
sg64
(lp4594
S'session_id'
p4595
asbag57
(g78
g59
NtRp4596
(dp4597
g62
(dp4598
g89
g90
ssg71
g4587
sg64
(lp4599
S':'
asbag57
(g78
g59
NtRp4600
(dp4601
g62
(dp4602
sg71
g4587
sg64
(lp4603
g57
(g58
g59
NtRp4604
(dp4605
g62
(dp4606
g70
I5
ssg71
g4600
sg64
(lp4607
S'127.0.0.1-d80de6ec-cf5d-4cf3-8d7c-fad6af1bba5b'
p4608
asbasbasbag57
(g73
g59
NtRp4609
(dp4610
g62
(dp4611
sg71
g3706
sg64
(lp4612
g57
(g78
g59
NtRp4613
(dp4614
g62
(dp4615
g82
g83
ssg71
g4609
sg64
(lp4616
S'session_id_name'
p4617
asbag57
(g78
g59
NtRp4618
(dp4619
g62
(dp4620
g89
g90
ssg71
g4609
sg64
(lp4621
S':'
asbag57
(g78
g59
NtRp4622
(dp4623
g62
(dp4624
sg71
g4609
sg64
(lp4625
g57
(g58
g59
NtRp4626
(dp4627
g62
(dp4628
g70
I5
ssg71
g4622
sg64
(lp4629
g3763
asbasbasbag57
(g73
g59
NtRp4630
(dp4631
g62
(dp4632
sg71
g3706
sg64
(lp4633
g57
(g78
g59
NtRp4634
(dp4635
g62
(dp4636
g82
g83
ssg71
g4630
sg64
(lp4637
S'session_locked'
p4638
asbag57
(g78
g59
NtRp4639
(dp4640
g62
(dp4641
g89
g90
ssg71
g4630
sg64
(lp4642
S':'
asbag57
(g78
g59
NtRp4643
(dp4644
g62
(dp4645
sg71
g4630
sg64
(lp4646
g57
(g58
g59
NtRp4647
(dp4648
g62
(dp4649
g70
I5
ssg71
g4643
sg64
(lp4650
g1679
asbasbasbag57
(g73
g59
NtRp4651
(dp4652
g62
(dp4653
sg71
g3706
sg64
(lp4654
g57
(g78
g59
NtRp4655
(dp4656
g62
(dp4657
g82
g83
ssg71
g4651
sg64
(lp4658
S'session_new'
p4659
asbag57
(g78
g59
NtRp4660
(dp4661
g62
(dp4662
g89
g90
ssg71
g4651
sg64
(lp4663
S':'
asbag57
(g78
g59
NtRp4664
(dp4665
g62
(dp4666
sg71
g4651
sg64
(lp4667
g57
(g58
g59
NtRp4668
(dp4669
g62
(dp4670
g70
I5
ssg71
g4664
sg64
(lp4671
g100
asbasbasbag57
(g73
g59
NtRp4672
(dp4673
g62
(dp4674
sg71
g3706
sg64
(lp4675
g57
(g78
g59
NtRp4676
(dp4677
g62
(dp4678
g82
g83
ssg71
g4672
sg64
(lp4679
S'status'
p4680
asbag57
(g78
g59
NtRp4681
(dp4682
g62
(dp4683
g89
g90
ssg71
g4672
sg64
(lp4684
S':'
asbag57
(g78
g59
NtRp4685
(dp4686
g62
(dp4687
sg71
g4672
sg64
(lp4688
g57
(g58
g59
NtRp4689
(dp4690
g62
(dp4691
g70
I5
ssg71
g4685
sg64
(lp4692
S'200'
p4693
asbasbasbag57
(g73
g59
NtRp4694
(dp4695
g62
(dp4696
sg71
g3706
sg64
(lp4697
g57
(g78
g59
NtRp4698
(dp4699
g62
(dp4700
g82
g83
ssg71
g4694
sg64
(lp4701
S'subtitle'
p4702
asbag57
(g78
g59
NtRp4703
(dp4704
g62
(dp4705
g89
g90
ssg71
g4694
sg64
(lp4706
S':'
asbag57
(g78
g59
NtRp4707
(dp4708
g62
(dp4709
sg71
g4694
sg64
(lp4710
g57
(g58
g59
NtRp4711
(dp4712
g62
(dp4713
g70
I5
ssg71
g4707
sg64
(lp4714
g4340
(S's\r\x00\x00\x00customize me!'
tRp4715
asbasbasbag57
(g73
g59
NtRp4716
(dp4717
g62
(dp4718
sg71
g3706
sg64
(lp4719
g57
(g78
g59
NtRp4720
(dp4721
g62
(dp4722
g82
g83
ssg71
g4716
sg64
(lp4723
S'title'
p4724
asbag57
(g78
g59
NtRp4725
(dp4726
g62
(dp4727
g89
g90
ssg71
g4716
sg64
(lp4728
S':'
asbag57
(g78
g59
NtRp4729
(dp4730
g62
(dp4731
sg71
g4716
sg64
(lp4732
g57
(g58
g59
NtRp4733
(dp4734
g62
(dp4735
g70
I5
ssg71
g4729
sg64
(lp4736
S'Iiitcourier'
p4737
asbasbasbag57
(g73
g59
NtRp4738
(dp4739
g62
(dp4740
sg71
g3706
sg64
(lp4741
g57
(g78
g59
NtRp4742
(dp4743
g62
(dp4744
g82
g83
ssg71
g4738
sg64
(lp4745
g2452
asbag57
(g78
g59
NtRp4746
(dp4747
g62
(dp4748
g89
g90
ssg71
g4738
sg64
(lp4749
S':'
asbag57
(g78
g59
NtRp4750
(dp4751
g62
(dp4752
sg71
g4738
sg64
(lp4753
g57
(g58
g59
NtRp4754
(dp4755
g62
(dp4756
g70
I5
ssg71
g4750
sg64
(lp4757
g2465
asbasbasbag57
(g73
g59
NtRp4758
(dp4759
g62
(dp4760
sg71
g3706
sg64
(lp4761
g57
(g78
g59
NtRp4762
(dp4763
g62
(dp4764
g82
g83
ssg71
g4758
sg64
(lp4765
S'view'
p4766
asbag57
(g78
g59
NtRp4767
(dp4768
g62
(dp4769
g89
g90
ssg71
g4758
sg64
(lp4770
S':'
asbag57
(g78
g59
NtRp4771
(dp4772
g62
(dp4773
sg71
g4758
sg64
(lp4774
g57
(g58
g59
NtRp4775
(dp4776
g62
(dp4777
g70
I5
ssg71
g4771
sg64
(lp4778
S'default/searchPage.html'
p4779
asbasbasbasbasbsS'locals'
p4780
(dp4781
S'Service'
p4782
S"<class 'gluon.tools.Service'>"
p4783
sS'OBJECT'
p4784
S"<class 'gluon.html.OBJECT'>"
p4785
sS'SQLDB'
p4786
S"<class 'gluon.dal.DAL'>"
p4787
sg3290
S"<Storage {'last_query': 'db.auth_cas.id>0', '_us...reate]': '723b45d3-d19a-488a-b74d-7c0cb584724d'}>"
p4788
sS'LINK'
p4789
S"<class 'gluon.html.LINK'>"
p4790
sS'BR'
p4791
S"<class 'gluon.html.BR'>"
p4792
sS'local_import'
p4793
S'<function <lambda>>'
p4794
sS'OPTGROUP'
p4795
S"<class 'gluon.html.OPTGROUP'>"
p4796
sS'__package__'
p4797
S'None'
p4798
sS'PRE'
p4799
S"<class 'gluon.html.PRE'>"
p4800
sS'IS_INT_IN_RANGE'
p4801
S"<class 'gluon.validators.IS_INT_IN_RANGE'>"
p4802
sS'IS_LOWER'
p4803
S"<class 'gluon.validators.IS_LOWER'>"
p4804
sS'IS_STRONG'
p4805
S"<class 'gluon.validators.IS_STRONG'>"
p4806
sS'cache'
p4807
S'<gluon.cache.Cache object>'
p4808
sS'IS_IN_DB'
p4809
S"<class 'gluon.validators.IS_IN_DB'>"
p4810
sS'TAG'
p4811
S'<gluon.html.__TAG__ object>'
p4812
sS'SQLField'
p4813
S"<class 'gluon.dal.Field'>"
p4814
sS'mail'
p4815
S'<gluon.tools.Mail object>'
p4816
sS'BODY'
p4817
S"<class 'gluon.html.BODY'>"
p4818
sS'IS_DATE_IN_RANGE'
p4819
S"<class 'gluon.validators.IS_DATE_IN_RANGE'>"
p4820
sS'TH'
p4821
S"<class 'gluon.html.TH'>"
p4822
sS'URL'
p4823
S'<function URL>'
p4824
sS'__file__'
p4825
S"'/home/game_boy/web2py/applications/IIITCourier/views/default/searchPage.html'"
p4826
sS'db'
p4827
S"<DAL {'auth_event': <Table {'origin': <gluon.dal...': <gluon.dal.Field object at 0x7fa6c73fd690>}>}>"
p4828
sS'auth'
p4829
S'<gluon.tools.Auth object>'
p4830
sS'P'
S"<class 'gluon.html.P'>"
p4831
sS'TFOOT'
p4832
S"<class 'gluon.html.TFOOT'>"
p4833
sS'XHTML'
p4834
S"<class 'gluon.html.XHTML'>"
p4835
sS'ON'
p4836
g1679
sS'OL'
p4837
S"<class 'gluon.html.OL'>"
p4838
sS'TEXTAREA'
p4839
S"<class 'gluon.html.TEXTAREA'>"
p4840
sS'MENU'
p4841
S"<class 'gluon.html.MENU'>"
p4842
sS'LOAD'
p4843
S'<function LOAD>'
p4844
sS'CODE'
p4845
S"<class 'gluon.html.CODE'>"
p4846
sS'HTTP'
p4847
S"<class 'gluon.http.HTTP'>"
p4848
sS'HR'
p4849
S"<class 'gluon.html.HR'>"
p4850
sS'IS_DATETIME'
p4851
S"<class 'gluon.validators.IS_DATETIME'>"
p4852
sS'HEAD'
p4853
S"<class 'gluon.html.HEAD'>"
p4854
sS'LABEL'
p4855
S"<class 'gluon.html.LABEL'>"
p4856
sS'CLEANUP'
p4857
S"<class 'gluon.validators.CLEANUP'>"
p4858
sS'plugins'
p4859
S'<gluon.tools.PluginManager object>'
p4860
sS'SELECT'
p4861
S"<class 'gluon.html.SELECT'>"
p4862
sS'use_janrain'
p4863
S'<function use_janrain>'
p4864
sS'CENTER'
p4865
S"<class 'gluon.html.CENTER'>"
p4866
sS'prettydate'
p4867
S'<function prettydate>'
p4868
sS'Crud'
p4869
S"<class 'gluon.tools.Crud'>"
p4870
sS'Auth'
p4871
S"<class 'gluon.tools.Auth'>"
p4872
sS'__builtins__'
p4873
S"{'ArithmeticError': <type 'exceptions.ArithmeticError'>, 'AssertionError': <type 'exceptions.AssertionError'>, 'AttributeError': <type 'exceptions.AttributeError'>, 'BaseException': <type 'exceptions.BaseException'>, 'BufferError': <type 'exceptions.BufferError'>, 'BytesWarning': <type 'exceptions.BytesWarning'>, 'DeprecationWarning': <type 'exceptions.DeprecationWarning'>, 'EOFError': <type 'exceptions.EOFError'>, 'Ellipsis': Ellipsis, 'EnvironmentError': <type 'exceptions.EnvironmentError'>, ...}"
p4874
sS'HTML'
p4875
S"<class 'gluon.html.HTML'>"
p4876
sS'SQLFORM'
p4877
S"<class 'gluon.sqlhtml.SQLFORM'>"
p4878
sS'EM'
p4879
S"<class 'gluon.html.EM'>"
p4880
sS'redirect'
p4881
S'<function redirect>'
p4882
sS'FIELDSET'
p4883
S"<class 'gluon.html.FIELDSET'>"
p4884
sS'IS_EQUAL_TO'
p4885
S"<class 'gluon.validators.IS_EQUAL_TO'>"
p4886
sS'embed64'
p4887
S'<function embed64>'
p4888
sS'IS_LIST_OF'
p4889
S"<class 'gluon.validators.IS_LIST_OF'>"
p4890
sS'__name__'
p4891
S"'__restricted__'"
p4892
sS'EMBED'
p4893
S"<class 'gluon.html.EMBED'>"
p4894
sS'FORM'
p4895
S"<class 'gluon.html.FORM'>"
p4896
sS'H2'
p4897
S"<class 'gluon.html.H2'>"
p4898
sS'H3'
p4899
S"<class 'gluon.html.H3'>"
p4900
sS'BUTTON'
p4901
S"<class 'gluon.html.BUTTON'>"
p4902
sS'H1'
p4903
S"<class 'gluon.html.H1'>"
p4904
sS'H6'
p4905
S"<class 'gluon.html.H6'>"
p4906
sS'H4'
p4907
S"<class 'gluon.html.H4'>"
p4908
sS'H5'
p4909
S"<class 'gluon.html.H5'>"
p4910
sS'UL'
p4911
S"<class 'gluon.html.UL'>"
p4912
sS'IS_UPPER'
p4913
S"<class 'gluon.validators.IS_UPPER'>"
p4914
sS'xmlescape'
p4915
S'<function xmlescape>'
p4916
sS'IS_TIME'
p4917
S"<class 'gluon.validators.IS_TIME'>"
p4918
sS'OPTION'
p4919
S"<class 'gluon.html.OPTION'>"
p4920
sS'TITLE'
p4921
S"<class 'gluon.html.TITLE'>"
p4922
sS'CRYPT'
p4923
S"<class 'gluon.validators.CRYPT'>"
p4924
sS'IS_EMPTY_OR'
p4925
S"<class 'gluon.validators.IS_EMPTY_OR'>"
p4926
sS'MARKMIN'
p4927
S"<class 'gluon.html.MARKMIN'>"
p4928
sS'INPUT'
p4929
S"<class 'gluon.html.INPUT'>"
p4930
sS'COL'
p4931
S"<class 'gluon.html.COL'>"
p4932
sS'rows'
p4933
S'<gluon.html.DIV object>'
p4934
sS'service'
p4935
S'<gluon.tools.Service object>'
p4936
sS'SCRIPT'
p4937
S"<class 'gluon.html.SCRIPT'>"
p4938
sS'TABLE'
p4939
S"<class 'gluon.html.TABLE'>"
p4940
sS'IS_IPV4'
p4941
S"<class 'gluon.validators.IS_IPV4'>"
p4942
sS'IS_LENGTH'
p4943
S"<class 'gluon.validators.IS_LENGTH'>"
p4944
sS'XML'
p4945
S"<class 'gluon.html.XML'>"
p4946
sS'B'
S"<class 'gluon.html.B'>"
p4947
sS'IMG'
p4948
S"<class 'gluon.html.IMG'>"
p4949
sS'SQLTABLE'
p4950
S"<class 'gluon.sqlhtml.SQLTABLE'>"
p4951
sS'IS_MATCH'
p4952
S"<class 'gluon.validators.IS_MATCH'>"
p4953
sS'IS_ALPHANUMERIC'
p4954
S"<class 'gluon.validators.IS_ALPHANUMERIC'>"
p4955
sS'SPAN'
p4956
S"<class 'gluon.html.SPAN'>"
p4957
sS'IS_SLUG'
p4958
S"<class 'gluon.validators.IS_SLUG'>"
p4959
sS'BEAUTIFY'
p4960
S"<class 'gluon.html.BEAUTIFY'>"
p4961
sS'META'
p4962
S"<class 'gluon.html.META'>"
p4963
sS'IS_DATE'
p4964
S"<class 'gluon.validators.IS_DATE'>"
p4965
sS'IS_EMAIL'
p4966
S"<class 'gluon.validators.IS_EMAIL'>"
p4967
sS'IS_NOT_EMPTY'
p4968
S"<class 'gluon.validators.IS_NOT_EMPTY'>"
p4969
sS'IS_FLOAT_IN_RANGE'
p4970
S"<class 'gluon.validators.IS_FLOAT_IN_RANGE'>"
p4971
sS'TBODY'
p4972
S"<class 'gluon.html.TBODY'>"
p4973
sS'CAT'
p4974
S"<class 'gluon.html.CAT'>"
p4975
sS'Field'
p4976
S"<class 'gluon.dal.Field'>"
p4977
sS'DIV'
p4978
S"<class 'gluon.html.DIV'>"
p4979
sS'LEGEND'
p4980
S"<class 'gluon.html.LEGEND'>"
p4981
sS'COLGROUP'
p4982
S"<class 'gluon.html.COLGROUP'>"
p4983
sS'DAL'
p4984
S"<class 'gluon.dal.DAL'>"
p4985
sS'TT'
p4986
S"<class 'gluon.html.TT'>"
p4987
sS'TR'
p4988
S"<class 'gluon.html.TR'>"
p4989
sS'LI'
p4990
S"<class 'gluon.html.LI'>"
p4991
sS'IFRAME'
p4992
S"<class 'gluon.html.IFRAME'>"
p4993
sS'TD'
p4994
S"<class 'gluon.html.TD'>"
p4995
sS'PluginManager'
p4996
S"<class 'gluon.tools.PluginManager'>"
p4997
sS'IS_URL'
p4998
S"<class 'gluon.validators.IS_URL'>"
p4999
sS'A'
S"<class 'gluon.html.A'>"
p5000
sS'STYLE'
p5001
S"<class 'gluon.html.STYLE'>"
p5002
sS'IS_DATETIME_IN_RANGE'
p5003
S"<class 'gluon.validators.IS_DATETIME_IN_RANGE'>"
p5004
sS'IS_IMAGE'
p5005
S"<class 'gluon.validators.IS_IMAGE'>"
p5006
sS'I'
S"<class 'gluon.html.I'>"
p5007
sS'crud'
p5008
S'<gluon.tools.Crud object>'
p5009
sS'IS_NOT_IN_DB'
p5010
S"<class 'gluon.validators.IS_NOT_IN_DB'>"
p5011
sg3701
S"<Storage {'body': <cStringIO.StringO object at 0...fa6c73c1e60>, 'view': 'default/searchPage.html'}>"
p5012
sS'THEAD'
p5013
S"<class 'gluon.html.THEAD'>"
p5014
sS'IS_NULL_OR'
p5015
S"<class 'gluon.validators.IS_EMPTY_OR'>"
p5016
sg56
S"<Storage {'body': <cStringIO.StringO object at 0...: '', 'to': 'None'}>, 'post_vars': <Storage {}>}>"
p5017
sS'IS_EXPR'
p5018
S"<class 'gluon.validators.IS_EXPR'>"
p5019
sS'T'
S'<gluon.languages.translator object>'
p5020
sS'IS_IN_SET'
p5021
S"<class 'gluon.validators.IS_IN_SET'>"
p5022
sS'IS_UPLOAD_FILENAME'
p5023
S"<class 'gluon.validators.IS_UPLOAD_FILENAME'>"
p5024
sS'IS_DECIMAL_IN_RANGE'
p5025
S"<class 'gluon.validators.IS_DECIMAL_IN_RANGE'>"
p5026
sssS'traceback'
p5027
S'Traceback (most recent call last):\n  File "/usr/lib/pymodules/python2.7/gluon/restricted.py", line 205, in restricted\n    exec ccode in environment\n  File "/home/game_boy/web2py/applications/IIITCourier/views/default/searchPage.html", line 32, in <module>\nAttributeError: \'DIV\' object has no attribute \'pop\'\n'
p5028
s.